0:Math_pow
1:abort
2:enlargeMemory
3:getTotalMemory
4:abortOnCannotGrowMemory
5:invoke_iiiiiii
6:invoke_jii
7:invoke_iiiiiiii
8:invoke_iiiii
9:invoke_viffi
10:invoke_viiiiii
11:invoke_ji
12:invoke_diii
13:invoke_viiiji
14:invoke_iiiiii
15:invoke_vijii
16:invoke_viiii
17:invoke_jijii
18:invoke_viiiii
19:invoke_vii
20:invoke_viidi
21:invoke_viji
22:invoke_viiiiiiii
23:invoke_viiiiiii
24:invoke_viiiiiiiii
25:invoke_iii
26:invoke_viii
27:invoke_v
28:invoke_vi
29:invoke_iiiiiiiiiii
30:invoke_ii
31:invoke_fifffi
32:invoke_iiii
33:invoke_viiffi
34:invoke_i
35:invoke_viffffi
36:_emscripten_glGetTexParameterfv
37:_glClearStencil
38:___syscall220
39:_emscripten_glBlendFuncSeparate
40:_glTexParameteriv
41:_glUniformMatrix4fv
42:_glVertexAttrib4f
43:_emscripten_glDepthFunc
44:_emscripten_webgl_create_context
45:_pthread_key_delete
46:_glDisableVertexAttribArray
47:_emscripten_memcpy_big
48:_pthread_attr_init
49:_emscripten_glUniform1f
50:___syscall221
51:_glInvalidateFramebuffer
52:_emscripten_glVertexAttrib2f
53:_emscripten_glUniform1i
54:_emscripten_glGetIntegerv
55:_emscripten_glIsProgram
56:_glGenSamplers
57:_emscripten_webgl_make_context_current
58:_glEndTransformFeedback
59:_glFramebufferRenderbuffer
60:___cxa_rethrow
61:_emscripten_glTexParameteriv
62:___syscall140
63:___syscall145
64:___syscall146
65:_glUniform1uiv
66:_emscripten_glAttachShader
67:_pthread_cond_timedwait
68:_emscripten_glTexParameterfv
69:_pthread_attr_destroy
70:_emscripten_glUniformMatrix2fv
71:_emscripten_glDrawArraysInstanced
72:___syscall183
73:_glDepthMask
74:_emscripten_glVertexAttrib2fv
75:_glViewport
76:_emscripten_glFlush
77:_glReadBuffer
78:___syscall91
79:_pthread_once
80:_glDrawArraysInstanced
81:_JS_Sound_SetListenerOrientation
82:_emscripten_glGetAttribLocation
83:_glBeginQuery
84:_glAttachShader
85:_emscripten_glTexCoordPointer
86:_emscripten_set_blur_callback
87:_emscripten_glLoadMatrixf
88:_emscripten_glStencilFuncSeparate
89:_emscripten_glVertexAttrib3f
90:_emscripten_webgl_enable_extension
91:_glCullFace
92:_emscripten_get_gamepad_status
93:_sched_yield
94:_glCompressedTexImage2D
95:_emscripten_glUniform1iv
96:_glClearColor
97:_glFinish
98:_emscripten_glUniform3iv
99:_emscripten_glGetBufferParameteriv
100:_emscripten_glVertexAttrib4fv
101:_glGetTexParameteriv
102:_pthread_getspecific
103:_glDrawArrays
104:_glGetError
105:_emscripten_glDepthRange
106:_glActiveTexture
107:_emscripten_asm_const_iii
108:_emscripten_glCopyTexImage2D
109:_emscripten_glFramebufferTexture2D
110:_glEnableVertexAttribArray
111:_emscripten_glStencilFunc
112:_glBindVertexArray
113:_glVertexAttribIPointer
114:_glDeleteBuffers
115:_localtime
116:_glGetUniformBlockIndex
117:_glGetActiveUniformBlockName
118:_glRenderbufferStorageMultisample
119:_glCompressedTexSubImage2D
120:_emscripten_glRenderbufferStorage
121:_emscripten_set_keydown_callback
122:_emscripten_glVertexPointer
123:_JS_SystemInfo_GetHeight
124:_emscripten_glBufferSubData
125:_emscripten_glGetUniformfv
126:_glFramebufferTextureLayer
127:_glDeleteQueries
128:_emscripten_glStencilOp
129:_emscripten_glBlendEquation
130:_glTexImage3D
131:_emscripten_glVertexAttrib1fv
132:_emscripten_glDeleteBuffers
133:_glLinkProgram
134:_emscripten_glGetProgramInfoLog
135:_emscripten_glUniform4fv
136:___cxa_throw
137:_JS_SystemInfo_GetCurrentCanvasWidth
138:_glUniform1iv
139:_emscripten_glUniform2fv
140:_emscripten_glBindBuffer
141:_emscripten_glGetFloatv
142:_pthread_mutex_init
143:_glBlendEquationSeparate
144:_glTexSubImage2D
145:_glUseProgram
146:_glUniformMatrix3fv
147:_emscripten_glCullFace
148:_glBindTransformFeedback
149:_emscripten_glStencilMaskSeparate
150:_emscripten_glUniform3fv
151:_glBindBuffer
152:_emscripten_request_fullscreen
153:_JS_Sound_Play
154:_emscripten_glDisableVertexAttribArray
155:_SocketClose
156:_glPolygonOffset
157:_emscripten_webgl_get_current_context
158:_emscripten_set_touchstart_callback
159:_JS_Sound_SetListenerPosition
160:_emscripten_glGetBooleanv
161:_glProgramBinary
162:_emscripten_glVertexAttribDivisor
163:_JS_Eval_SetTimeout
164:_glDrawElementsInstanced
165:_emscripten_glDeleteObjectARB
166:_emscripten_glUniform4f
167:_emscripten_glGetShaderPrecisionFormat
168:_JS_SystemInfo_GetLanguage
169:_emscripten_glIsEnabled
170:_JS_SystemInfo_HasFullscreen
171:_emscripten_glStencilOpSeparate
172:_JS_Sound_Set3D
173:_pthread_cleanup_pop
174:_glGenerateMipmap
175:_JS_Sound_SetPosition
176:___syscall122
177:___cxa_free_exception
178:_JS_SystemInfo_HasCursorLock
179:_emscripten_glClear
180:_glDrawElements
181:_JS_WebRequest_Send
182:_emscripten_glValidateProgram
183:_emscripten_glUniform4iv
184:___setErrNo
185:_glStencilOpSeparate
186:_JS_WebRequest_Abort
187:___resumeException
188:_emscripten_glBlendFunc
189:_mktime
190:_emscripten_glGetError
191:_emscripten_glBufferData
192:_emscripten_glStencilMask
193:_glGenTextures
194:_glGetIntegerv
195:_glUniform3iv
196:_emscripten_glClearStencil
197:_JS_Sound_Stop
198:_emscripten_set_mouseup_callback
199:_SocketError
200:_emscripten_glFinish
201:_emscripten_glClearDepth
202:_emscripten_glUniform1fv
203:_glBindFramebuffer
204:_glValidateProgram
205:_glGenFramebuffers
206:_emscripten_glUniform4i
207:_glUniform1fv
208:_glDeleteFramebuffers
209:_JS_FileSystem_Sync
210:_glCheckFramebufferStatus
211:_JS_WebRequest_GetStatusLine
212:_emscripten_glCreateShader
213:_glGetProgramBinary
214:___syscall192
215:_glProgramParameteri
216:_glBindTexture
217:_strftime
218:_emscripten_glGetVertexAttribiv
219:_glReadPixels
220:_glGetActiveAttrib
221:_emscripten_glUniformMatrix3fv
222:_glUniform2iv
223:_SocketState
224:___syscall33
225:_pthread_key_create
226:_emscripten_glDeleteFramebuffers
227:___syscall39
228:___syscall38
229:_getpwuid
230:_glFrontFace
231:_emscripten_glGetObjectParameterivARB
232:_glGetUniformiv
233:_JS_SystemInfo_HasWebGL
234:_emscripten_glGetUniformiv
235:_glGetActiveUniformBlockiv
236:_SocketRecvLength
237:_glGetProgramiv
238:___syscall168
239:_glScissor
240:_emscripten_glClearColor
241:_glGetFramebufferAttachmentParameteriv
242:___cxa_find_matching_catch_4
243:_emscripten_set_mousemove_callback
244:_glBlitFramebuffer
245:___cxa_find_matching_catch_2
246:___cxa_find_matching_catch_3
247:_emscripten_glDeleteTextures
248:_emscripten_exit_fullscreen
249:_glGetShaderiv
250:_llvm_eh_typeid_for
251:_glBindBufferBase
252:_glUniform4fv
253:_glTexSubImage3D
254:_glBindAttribLocation
255:_emscripten_glColorMask
256:_emscripten_webgl_destroy_context
257:_emscripten_glBindTexture
258:_glDeleteSamplers
259:_glUniform4iv
260:_emscripten_set_main_loop
261:_glUniformBlockBinding
262:_emscripten_glIsShader
263:_emscripten_glCompressedTexImage2D
264:_glDisable
265:_emscripten_glGetInfoLogARB
266:_emscripten_longjmp
267:_atexit
268:_glFenceSync
269:_glStencilFuncSeparate
270:_JS_Sound_ReleaseInstance
271:_emscripten_glGenRenderbuffers
272:_JS_SystemInfo_GetCurrentCanvasHeight
273:_JS_WebRequest_GetResponseHeaders
274:_emscripten_glReleaseShaderCompiler
275:__ZN4FMOD13DSPConnection6setMixEf
276:_flock
277:_glUniform2fv
278:_emscripten_glFrontFace
279:_glDeleteProgram
280:_glBlendEquation
281:_emscripten_glUseProgram
282:_glCreateProgram
283:_clock_gettime
284:_emscripten_set_touchmove_callback
285:_glGetAttribLocation
286:_glCreateShader
287:_emscripten_glReadPixels
288:_sysconf
289:_utime
290:_glEndQuery
291:_pthread_mutexattr_settype
292:_glTexStorage2D
293:_glGenBuffers
294:_glShaderSource
295:_emscripten_glScissor
296:_glUniform3uiv
297:_pthread_cleanup_push
298:_llvm_trap
299:_JS_Sound_SetVolume
300:_JS_Cursor_SetShow
301:_glPixelStorei
302:_emscripten_glIsBuffer
303:_emscripten_glVertexAttrib1f
304:_glVertexAttribPointer
305:_emscripten_glCompressedTexSubImage2D
306:_glSamplerParameteri
307:_glBindSampler
308:_JS_WebRequest_Release
309:_emscripten_get_main_loop_timing
310:_glGetVertexAttribiv
311:_JS_Log_Dump
312:_emscripten_glGetAttachedShaders
313:_emscripten_glGenTextures
314:_glBindRenderbuffer
315:_pthread_cond_init
316:_gmtime
317:_emscripten_glGetTexParameteriv
318:_glDeleteTextures
319:_emscripten_set_mousedown_callback
320:_emscripten_glClientActiveTexture
321:_emscripten_glCheckFramebufferStatus
322:_emscripten_glUniform3f
323:_emscripten_glUniform3i
324:_glDrawBuffers
325:_emscripten_glDeleteShader
326:_glEnable
327:_glUnmapBuffer
328:_glGetString
329:_emscripten_glGetUniformLocation
330:_emscripten_glEnableVertexAttribArray
331:_emscripten_get_now
332:_emscripten_glGenFramebuffers
333:_gettimeofday
334:_emscripten_glEnableClientState
335:_JS_Sound_Init
336:_SocketCreate
337:_emscripten_glDrawElements
338:_emscripten_get_num_gamepads
339:_glClearDepthf
340:_glIsEnabled
341:_emscripten_glDisable
342:___cxa_end_catch
343:_emscripten_glDeleteRenderbuffers
344:_emscripten_glDrawElementsInstanced
345:_emscripten_glVertexAttrib4f
346:_JS_Sound_Create_Channel
347:_emscripten_glPixelStorei
348:_glCopyBufferSubData
349:_emscripten_webgl_init_context_attributes
350:_SocketSend
351:_emscripten_glFramebufferRenderbuffer
352:_glBufferData
353:_emscripten_glRotatef
354:_emscripten_glGetShaderiv
355:_JS_Eval_ClearTimeout
356:___cxa_pure_virtual
357:_emscripten_glUniformMatrix4fv
358:_emscripten_glGetPointerv
359:_pthread_cond_wait
360:_clock
361:_emscripten_glIsRenderbuffer
362:_emscripten_request_pointerlock
363:___syscall40
364:_difftime
365:___syscall42
366:_emscripten_set_touchcancel_callback
367:_glDeleteRenderbuffers
368:_glGetShaderPrecisionFormat
369:_JS_SystemInfo_GetMemory
370:_JS_Sound_SetLoop
371:_JS_WebRequest_SetResponseHandler
372:_emscripten_set_focus_callback
373:_pthread_mutexattr_destroy
374:_emscripten_glGetVertexAttribfv
375:_emscripten_glVertexAttrib3fv
376:_glGetUniformLocation
377:_emscripten_glCompileShader
378:_glClear
379:_glBeginTransformFeedback
380:_emscripten_glLinkProgram
381:_JS_WebRequest_Create
382:_emscripten_get_pointerlock_status
383:_emscripten_glDrawRangeElements
384:___unlock
385:_pthread_create
386:_glGetActiveUniformsiv
387:_SocketRecv
388:_pthread_setspecific
389:_glColorMask
390:_emscripten_glGenBuffers
391:_glCopyTexSubImage2D
392:_emscripten_glCreateProgram
393:_JS_WebRequest_SetProgressHandler
394:_glTexParameteri
395:_pthread_cond_destroy
396:_emscripten_glDetachShader
397:_glTexParameterf
398:_setenv
399:_glGenQueries
400:_emscripten_glGetRenderbufferParameteriv
401:_emscripten_set_fullscreenchange_callback
402:_emscripten_glVertexAttribPointer
403:_glTexStorage3D
404:_glIsVertexArray
405:_JS_SystemInfo_GetBrowserName
406:_emscripten_glDrawArrays
407:_emscripten_glPolygonOffset
408:_longjmp
409:_emscripten_glBlendColor
410:_glGetShaderInfoLog
411:_emscripten_set_main_loop_timing
412:___cxa_begin_catch
413:_emscripten_glGetProgramiv
414:_glDeleteSync
415:_emscripten_glGetShaderSource
416:_emscripten_glTexImage2D
417:_glRenderbufferStorage
418:_JS_Sound_GetLength
419:_emscripten_glBlendEquationSeparate
420:_emscripten_glGetString
421:_emscripten_glIsFramebuffer
422:_glUniform2uiv
423:_unsetenv
424:_emscripten_glBindProgramARB
425:_JS_Sound_SetLoopPoints
426:_pthread_detach
427:_JS_Eval_EvalJS
428:_emscripten_set_devicemotion_callback
429:___syscall85
430:_emscripten_glUniform2i
431:_emscripten_glUniform2f
432:_glGenTransformFeedbacks
433:_JS_SystemInfo_GetWidth
434:_glGetProgramInfoLog
435:_emscripten_glTexParameterf
436:_emscripten_glTexParameteri
437:_JS_Sound_Load
438:_JS_Sound_Load_PCM
439:_emscripten_glGenVertexArrays
440:_glDeleteVertexArrays
441:_glGetStringi
442:_emscripten_glBindAttribLocation
443:_glDepthFunc
444:___cxa_allocate_exception
445:_emscripten_set_canvas_size
446:_emscripten_glClearDepthf
447:_JS_SystemInfo_GetDocumentURL
448:_emscripten_glMatrixMode
449:_glBlendFuncSeparate
450:___syscall10
451:_emscripten_glNormalPointer
452:_emscripten_glHint
453:_emscripten_glEnable
454:___syscall3
455:___lock
456:_emscripten_glBindFramebuffer
457:___syscall6
458:___syscall5
459:___syscall4
460:_emscripten_glBindRenderbuffer
461:_time
462:_emscripten_glGetFramebufferAttachmentParameteriv
463:_emscripten_set_wheel_callback
464:_exit
465:_emscripten_glGetActiveAttrib
466:___syscall268
467:_emscripten_set_keypress_callback
468:_JS_SystemInfo_GetOS
469:_glMapBufferRange
470:_JS_SystemInfo_GetBrowserVersionString
471:_glGetIntegeri_v
472:_glFramebufferTexture2D
473:_JS_Cursor_SetImage
474:_emscripten_glShaderBinary
475:_emscripten_glGetShaderInfoLog
476:_glUniform3fv
477:_emscripten_glGetVertexAttribPointerv
478:_glClientWaitSync
479:_JS_FileSystem_SetSyncInterval
480:_emscripten_set_deviceorientation_callback
481:___syscall193
482:_emscripten_glGetActiveUniform
483:___syscall197
484:___syscall196
485:___syscall195
486:___syscall194
487:___syscall199
488:_emscripten_glDeleteProgram
489:_glUniform1i
490:_glFlushMappedBufferRange
491:_emscripten_glTexSubImage2D
492:_pthread_mutex_destroy
493:_emscripten_glColorPointer
494:_glTransformFeedbackVaryings
495:_glGetShaderSource
496:_emscripten_glViewport
497:_emscripten_glDepthMask
498:_emscripten_glDrawBuffers
499:_emscripten_glLineWidth
500:_glCompileShader
501:_emscripten_exit_pointerlock
502:_JS_WebRequest_SetRequestHeader
503:_abort
504:_JS_Sound_GetLoadState
505:_glTexImage2D
506:_glUniform4uiv
507:_glFlush
508:_emscripten_glLoadIdentity
509:_glDeleteShader
510:_emscripten_glShaderSource
511:_glGenVertexArrays
512:_emscripten_get_fullscreen_status
513:_emscripten_set_touchend_callback
514:_pthread_cond_signal
515:_glGenRenderbuffers
516:_emscripten_glSampleCoverage
517:_emscripten_glFrustum
518:_emscripten_glDepthRangef
519:_JS_Sound_SetPitch
520:_emscripten_glGenerateMipmap
521:_glCopyTexImage2D
522:_emscripten_glIsTexture
523:_glCompressedTexSubImage3D
524:_emscripten_glBindVertexArray
525:_emscripten_glActiveTexture
526:_emscripten_set_keyup_callback
527:_emscripten_glDeleteVertexArrays
528:___syscall54
529:_glDeleteTransformFeedbacks
530:_emscripten_glUniform2iv
531:_pthread_mutexattr_init
532:_glBufferSubData
533:_getenv
534:_SDL_GL_SwapBuffers
535:_emscripten_glCopyTexSubImage2D
536:_glGetInternalformativ
537:_glGetActiveUniform
538:_glStencilMask
539:f64-to-int
540:legalimport$invoke_jii
541:legalimport$invoke_ji
542:legalimport$invoke_viiiji
543:legalimport$invoke_vijii
544:legalimport$invoke_jijii
545:legalimport$invoke_viji
546:legalimport$_glClientWaitSync
547:stackAlloc
548:stackSave
549:stackRestore
550:establishStackSpace
551:setThrew
552:setTempRet0
553:getTempRet0
554:__ZN6Object17MainThreadCleanupEv
555:__ZN6Object39ShouldIgnoreInGarbageDependencyTrackingEv
556:__ZN6Object12SetHideFlagsENS_9HideFlagsE
557:__ZN6Object23VirtualRedirectTransferER18StreamedBinaryReadILb1EE
558:__ZNK9Behaviour10HasEnabledEv
559:__ZNK9Behaviour10GetEnabledEv
560:__ZNSt3__213__tree_removeIPNS_16__tree_node_baseIPvEEEEvT_S5_
561:__ZNK15dense_hashtableINSt3__24pairIKiP6ObjectEEi21InstanceIDHashFunctorN14dense_hash_mapIiS4_S6_NS0_8equal_toIiEE13stl_allocatorIS5_L18MemLabelIdentifier65ELi16EEE9SelectKeyES9_SC_E13find_positionERS2_
562:__ZN15EditorExtensionD2Ev
563:__ZN15EditorExtensionD0Ev
564:__ZNK15EditorExtension26GetTypeInfoVirtualInternalEv
565:__ZNK6Object7GetNameEv
566:__ZN8Vector3f8TransferI14SafeBinaryReadEEvRT_
567:__ZN4PPtrI9TransformE8TransferI14SafeBinaryReadEEvRT_
568:__ZN4PPtrI9TransformE8TransferI18StreamedBinaryReadILb0EEEEvRT_
569:__ZN4PPtrI9TransformE8TransferI19StreamedBinaryWriteILb0EEEEvRT_
570:__ZNK11NamedObject7GetNameEv
571:__ZN14SafeBinaryRead8TransferIhEEvRT_PKc17TransferMetaFlags
572:__ZN14SafeBinaryRead21TransferSTLStyleArrayI13dynamic_arrayI8Vector3fLj4EEEEvRT_17TransferMetaFlags
573:__ZN14SafeBinaryRead21TransferSTLStyleArrayI13dynamic_arrayIiLj4EEEEvRT_17TransferMetaFlags
574:__ZN4AABB8TransferI14SafeBinaryReadEEvRT_
575:__ZN14SafeBinaryRead21TransferSTLStyleArrayI13dynamic_arrayIhLj1EEEEvRT_17TransferMetaFlags
576:__ZN7Hash1288TransferI14SafeBinaryReadEEvRT_
577:__ZN24GenerateTypeTreeTransfer8TransferI8Vector3fEEvRT_PKc17TransferMetaFlags
578:__ZN7Hash1288TransferI24GenerateTypeTreeTransferEEvRT_
579:__ZN18StreamedBinaryReadILb0EE21TransferSTLStyleArrayI13dynamic_arrayIhLj1EEEEvRT_17TransferMetaFlags
580:__ZN7Hash1288TransferI18StreamedBinaryReadILb0EEEEvRT_
581:__ZN18StreamedBinaryReadILb0EE21TransferSTLStyleArrayI13dynamic_arrayI8Vector3fLj4EEEEvRT_17TransferMetaFlags
582:__ZN18StreamedBinaryReadILb0EE21TransferSTLStyleArrayI13dynamic_arrayIiLj4EEEEvRT_17TransferMetaFlags
583:__ZN4AABB8TransferI18StreamedBinaryReadILb0EEEEvRT_
584:__ZN4AABB8TransferI19StreamedBinaryWriteILb0EEEEvRT_
585:__ZN7Hash1288TransferI19StreamedBinaryWriteILb0EEEEvRT_
586:__ZN4core20StringStorageDefaultIcE6assignEPKcj
587:i32s-div
588:__ZN14SafeBinaryRead21TransferSTLStyleArrayINSt3__26vectorIN4core12basic_stringIcNS3_20StringStorageDefaultIcEEEENS1_9allocatorIS7_EEEEEEvRT_17TransferMetaFlags
589:__ZNSt3__26vectorIN4core12basic_stringIcNS1_20StringStorageDefaultIcEEEENS_9allocatorIS5_EEE8__appendEj
590:__Z14resize_trimmedINSt3__26vectorIN4core12basic_stringIcNS2_20StringStorageDefaultIcEEEENS0_9allocatorIS6_EEEEEvRT_j
591:__ZN14SafeBinaryRead21TransferSTLStyleArrayIN4core12basic_stringIcNS1_20StringStorageDefaultIcEEEEEEvRT_17TransferMetaFlags
592:__ZN4core20StringStorageDefaultIcE10reallocateEj
593:__ZN14SafeBinaryRead8TransferIcEEvRT_PKc17TransferMetaFlags
594:__ZNSt3__26vectorIN4core12basic_stringIcNS1_20StringStorageDefaultIcEEEENS_9allocatorIS5_EEE7reserveEj
595:__ZNSt3__26vectorIN4core12basic_stringIcNS1_20StringStorageDefaultIcEEEENS_9allocatorIS5_EEE6assignINS_11__wrap_iterIPS5_EEEENS_9enable_ifIXaasr21__is_forward_iteratorIT_EE5valuesr16is_constructibleIS5_NS_15iterator_traitsISE_E9referenceEEE5valueEvE4typeESE_SE_
596:__ZN18StreamedBinaryReadILb0EE21TransferSTLStyleArrayIN4core12basic_stringIcNS2_20StringStorageDefaultIcEEEEEEvRT_17TransferMetaFlags
597:__ZN19StreamedBinaryWriteILb0EE21TransferSTLStyleArrayIN4core12basic_stringIcNS2_20StringStorageDefaultIcEEEEEEvRT_17TransferMetaFlags
598:__ZNK16LevelGameManager7GetNameEv
599:__ZN13dynamic_arrayIhLj1EE18resize_initializedEjRKh12ResizePolicy
600:__ZN13dynamic_arrayIiLj4EE18resize_initializedEjRKi12ResizePolicy
601:__ZN13dynamic_arrayI8Vector3fLj4EE9push_backERKS0_
602:__ZNSt3__26vectorIN4core12basic_stringIcNS1_20StringStorageDefaultIcEEEENS_9allocatorIS5_EEE21__push_back_slow_pathIKS5_EEvRT_
603:__ZNK14AsyncOperation7ReleaseEv
604:__ZNSt3__227__tree_balance_after_insertIPNS_16__tree_node_baseIPvEEEEvT_S5_
605:__ZN9AnimationD2Ev
606:__ZN9AnimationD0Ev
607:__ZN9Animation17MainThreadCleanupEv
608:__ZN9Animation13AwakeFromLoadE17AwakeFromLoadMode
609:__ZNK9Animation26GetTypeInfoVirtualInternalEv
610:__ZN9Animation23VirtualRedirectTransferER19StreamedBinaryWriteILb0EE
611:__ZN9Animation23VirtualRedirectTransferER18StreamedBinaryReadILb0EE
612:__ZN9Animation23VirtualRedirectTransferER17RemapPPtrTransfer
613:__ZN9Animation23VirtualRedirectTransferER24GenerateTypeTreeTransfer
614:__ZN9Animation23VirtualRedirectTransferER14SafeBinaryRead
615:__ZN9Animation10DeactivateE19DeactivateOperation
616:__ZN9Animation12AddToManagerEv
617:__ZN9Animation17RemoveFromManagerEv
618:__ZN14AnimationState7SetTimeEf
619:__ZN9Animation8TransferI14SafeBinaryReadEEvRT_
620:__ZN14SafeBinaryRead21TransferSTLStyleArrayINSt3__26vectorI4PPtrI13AnimationClipE13stl_allocatorIS5_L18MemLabelIdentifier25ELi16EEEEEEvRT_17TransferMetaFlags
621:__Z32TransferEnumWithNameForceIntSizeI14SafeBinaryRead8WrapModeEvRT_RT0_PKc17TransferMetaFlags
622:__Z14resize_trimmedINSt3__26vectorI4PPtrI13AnimationClipE13stl_allocatorIS4_L18MemLabelIdentifier25ELi16EEEEEvRT_j
623:__ZNSt3__26vectorI4PPtrI13AnimationClipE13stl_allocatorIS3_L18MemLabelIdentifier25ELi16EEE6assignINS_11__wrap_iterIPS3_EEEENS_9enable_ifIXaasr21__is_forward_iteratorIT_EE5valuesr16is_constructibleIS3_NS_15iterator_traitsISD_E9referenceEEE5valueEvE4typeESD_SD_
624:__ZNSt3__26vectorI4PPtrI13AnimationClipE13stl_allocatorIS3_L18MemLabelIdentifier25ELi16EEE8__appendEj
625:__ZN9Animation8TransferI24GenerateTypeTreeTransferEEvRT_
626:__ZN9Animation8TransferI18StreamedBinaryReadILb0EEEEvRT_
627:__ZN9Animation8TransferI19StreamedBinaryWriteILb0EEEEvRT_
628:__ZL27AnimationVisibilityCallbackPvS_i
629:__ZN9Animation34RecomputeContainedRenderersRecurseER9Transform
630:__ZN9Animation25CheckRendererVisibleStateEv
631:__ZN9Animation4PlayENS_8PlayModeE
632:__ZN9Animation20BuildAnimationStatesEv
633:__ZN9Animation14QueueCrossFadeER14AnimationStatefiNS_8PlayModeE
634:__ZN9Animation9CrossFadeER14AnimationStatefNS_8PlayModeEb
635:__ZN9Animation14CloneAnimationEP14AnimationState
636:__ZNSt3__26vectorIN9Animation15QueuedAnimationE13stl_allocatorIS2_L18MemLabelIdentifier25ELi16EEE21__push_back_slow_pathIKS2_EEvRT_
637:__ZN4coreplERKNS_12basic_stringIcNS_20StringStorageDefaultIcEEEEPKc
638:__ZN14AnimationState4InitERKN4core12basic_stringIcNS0_20StringStorageDefaultIcEEEEP13AnimationClipd8WrapModeb
639:__ZNSt3__26vectorIP14AnimationState13stl_allocatorIS2_L18MemLabelIdentifier25ELi16EEE21__push_back_slow_pathIKS2_EEvRT_
640:__ZN13AnimationClip8GetRangeEv
641:__ZN14AnimationState11SetWrapModeE8WrapMode
642:__ZN9Animation20GetClipLegacyWarningEP13AnimationClip
643:__ZN9Animation15UpdateAnimationEd
644:__ZN9Animation13SyncLayerTimeEi
645:__ZN9Animation22UpdateQueuedAnimationsERb
646:__ZN14AnimationState20UpdateAnimationStateEdRN5Unity9ComponentE
647:__ZN14AnimationStateD2Ev
648:__ZN9Animation14SampleInternalEv
649:__ZN9Animation19ValidateBoundCurvesEv
650:__ZN9Animation25RebuildStateForEverythingEv
651:__ZNSt3__26__sortIR12GreaterLayerPP14AnimationStateEEvT0_S6_T_
652:__ZN9Animation21RebuildBoundStateMaskEv
653:__ZN9Animation14BlendOptimizedEv
654:__ZN9Animation12BlendGenericEv
655:__ZN9Animation13BlendAdditiveEv
656:__Z16CalculateWeightsILb0EEvPP14AnimationStateiiPfi
657:__ZN15AnimationBinder13SetFloatValueERK20BoundCurveDeprecatedf
658:__ZN11UnityEngine9Animation23SetBoundCurveFloatValueERKNS0_10BoundCurveEf
659:__Z16CalculateWeightsILb1EEvPP14AnimationStateiiPfi
660:__ZNSt3__27__sort3IR12GreaterLayerPP14AnimationStateEEjT0_S6_S6_T_
661:__ZNSt3__27__sort4IR12GreaterLayerPP14AnimationStateEEjT0_S6_S6_S6_T_
662:__ZNSt3__27__sort5IR12GreaterLayerPP14AnimationStateEEjT0_S6_S6_S6_S6_T_
663:__ZNSt3__218__insertion_sort_3IR12GreaterLayerPP14AnimationStateEEvT0_S6_T_
664:__ZNSt3__227__insertion_sort_incompleteIR12GreaterLayerPP14AnimationStateEEbT0_S6_T_
665:__ZN15AnimationBinder17InitCurveIDLookupER14dense_hash_mapI7CurveIDj10hash_curveNSt3__28equal_toIS1_EE13stl_allocatorINS3_4pairIKS1_jEEL18MemLabelIdentifier1ELi16EEE
666:__ZN15AnimationBinder10BindCurvesERK14dense_hash_mapI7CurveIDj10hash_curveNSt3__28equal_toIS1_EE13stl_allocatorINS3_4pairIKS1_jEEL18MemLabelIdentifier1ELi16EEER9TransformR13dynamic_arrayI20BoundCurveDeprecatedLj4EERNS3_6vectorIPSF_S6_ISM_LSA_25ELi16EEEERi
667:__ZN15AnimationBinder19RemoveUnboundCurvesER14dense_hash_mapI7CurveIDj10hash_curveNSt3__28equal_toIS1_EE13stl_allocatorINS3_4pairIKS1_jEEL18MemLabelIdentifier1ELi16EEER13dynamic_arrayI20BoundCurveDeprecatedLj4EE
668:__Z27InsertAnimationClipCurveIDsR14dense_hash_mapI7CurveIDj10hash_curveNSt3__28equal_toIS0_EE13stl_allocatorINS2_4pairIKS0_jEEL18MemLabelIdentifier1ELi16EEER13AnimationClip
669:__ZL16AssignBoundCurveRK14dense_hash_mapI7CurveIDj10hash_curveNSt3__28equal_toIS0_EE13stl_allocatorINS2_4pairIKS0_jEEL18MemLabelIdentifier1ELi16EEERS7_P17AnimationCurveTplIfERK13dynamic_arrayI20BoundCurveDeprecatedLj4EER14AnimationState
670:__ZN30dense_hashtable_const_iteratorINSt3__24pairIK7CurveIDjEES2_10hash_curveN14dense_hash_mapIS2_jS5_NS0_8equal_toIS2_EE13stl_allocatorIS4_L18MemLabelIdentifier1ELi16EEE9SelectKeyES8_SB_E30advance_past_empty_and_deletedEv
671:__ZNK15dense_hashtableINSt3__24pairIK7CurveIDjEES2_10hash_curveN14dense_hash_mapIS2_jS5_NS0_8equal_toIS2_EE13stl_allocatorIS4_L18MemLabelIdentifier1ELi16EEE9SelectKeyES8_SB_E23find_position_with_hashERS3_j
672:__ZN14AnimationState18ShouldMixTransformER9Transform
673:__ZN15dense_hashtableINSt3__24pairIK7CurveIDjEES2_10hash_curveN14dense_hash_mapIS2_jS5_NS0_8equal_toIS2_EE13stl_allocatorIS4_L18MemLabelIdentifier1ELi16EEE9SelectKeyES8_SB_E12resize_deltaEjj
674:__ZN15dense_hashtableINSt3__24pairIK7CurveIDjEES2_10hash_curveN14dense_hash_mapIS2_jS5_NS0_8equal_toIS2_EE13stl_allocatorIS4_L18MemLabelIdentifier1ELi16EEE9SelectKeyES8_SB_E15insert_noresizeERKS4_
675:__ZN15dense_hashtableINSt3__24pairIK7CurveIDjEES2_10hash_curveN14dense_hash_mapIS2_jS5_NS0_8equal_toIS2_EE13stl_allocatorIS4_L18MemLabelIdentifier1ELi16EEE9SelectKeyES8_SB_E12maybe_shrinkEv
676:__ZN15dense_hashtableINSt3__24pairIK7CurveIDjEES2_10hash_curveN14dense_hash_mapIS2_jS5_NS0_8equal_toIS2_EE13stl_allocatorIS4_L18MemLabelIdentifier1ELi16EEE9SelectKeyES8_SB_E9copy_fromERKSE_j
677:__ZNSt3__26vectorIiNS_9allocatorIiEEE8__appendEj
678:__ZL27ClearTransformTemporaryFlagR9Transform
679:__Z21BindGenericFloatCurveRK7CurveIDRP6ObjectP10GameObjectP9TransformRPvRiRN11UnityEngine9Animation10BoundCurveE
680:__ZN15AnimationBinder18CalculateTargetPtrEPKN5Unity4TypeEP6ObjectPKcPPvPi
681:__ZL23CalculateTransformRootsR9TransformRNSt3__26vectorIPS_13stl_allocatorIS3_L18MemLabelIdentifier25ELi16EEEE
682:__Z21GetAnimatableBindTypeRK16TypeTreeIterator
683:__ZN11UnityEngine9Animation31GetGenericAnimationBindingCacheEv
684:__ZNK11UnityEngine9Animation28GenericAnimationBindingCache20CreateGenericBindingERKN4core12basic_stringIcNS2_20StringStorageDefaultIcEEEEPKN5Unity4TypeE4PPtrI10MonoScriptES8_bRNS0_14GenericBindingE
685:__ZN11UnityEngine9Animation28GenericAnimationBindingCache11BindGenericERKNS0_14GenericBindingER9TransformRNS0_10BoundCurveE
686:__ZNK11UnityEngine9Animation28GenericAnimationBindingCache10BindCustomERKNS0_14GenericBindingER9TransformRNS0_10BoundCurveE
687:__ZN11UnityEngine9Animation28GenericAnimationBindingCache10BindScriptERKNS0_14GenericBindingER9TransformRNS0_10BoundCurveE
688:__ZN11UnityEngine9Animation28GenericAnimationBindingCache20BindGenericComponentERKNS0_14GenericBindingER9TransformRNS0_10BoundCurveE
689:__ZN13dynamic_arrayIPN11UnityEngine9Animation23CachedComponentBindingsELj4EE18resize_initializedEjRKS3_12ResizePolicy
690:__ZN11UnityEngine9AnimationL24GenerateComponentBindingEPKN5Unity4TypeE18ScriptingObjectPtr17ScriptingClassPtrP6Object
691:__ZN11UnityEngine9AnimationL22GenerateBindingRecurseERK16TypeTreeIterator18ScriptingObjectPtrN7mecanim5crc32ER13dynamic_arrayINS0_13CachedBindingELj4EE
692:__ZNSt3__26__sortIRNS_6__lessIN11UnityEngine9Animation13CachedBindingES4_EEPS4_EEvT0_S8_T_
693:__ZN7mecanim6memory16InPlaceAllocator8AllocateEjj
694:__ZNSt3__27__sort4IRNS_6__lessIN11UnityEngine9Animation13CachedBindingES4_EEPS4_EEjT0_S8_S8_S8_T_
695:__ZNSt3__227__insertion_sort_incompleteIRNS_6__lessIN11UnityEngine9Animation13CachedBindingES4_EEPS4_EEbT0_S8_T_
696:__ZN11UnityEngine9AnimationL19GetTypeTreeBindTypeERK16TypeTreeIterator
697:__ZN7mecanim9animation15FindMuscleIndexEj
698:__ZN15dense_hashtableINSt3__24pairIK7CurveIDjEES2_10hash_curveN14dense_hash_mapIS2_jS5_NS0_8equal_toIS2_EE13stl_allocatorIS4_L18MemLabelIdentifier1ELi16EEE9SelectKeyES8_SB_E14squash_deletedEv
699:__ZNSt3__26__treeINS_12__value_typeI4PPtrI9TransformEbEENS_19__map_value_compareIS4_S5_NS_4lessIS4_EELb1EEENS_9allocatorIS5_EEE7destroyEPNS_11__tree_nodeIS5_PvEE
700:__ZN14AnimationState10FireEventsEffbRN5Unity9ComponentEffb
701:__ZN14AnimationState12UpdateFadingEf
702:__Z9FireEventR14AnimationEventRN5Unity9ComponentEP14AnimationStateP17AnimatorStateInfoP16AnimatorClipInfo
703:__Z28GetAnimationScriptingClassesv
704:__Z20AnimationEventToMonoRK14AnimationEventR18MonoAnimationEvent
705:__Z17dynamic_pptr_castIP13MonoBehaviour6ObjectET_RK4PPtrIT0_E
706:__Z22AnimatorClipInfoToMonoRK16AnimatorClipInfoR20MonoAnimatorClipInfo
707:__ZL35InitializeAnimationScriptingClassesv
708:__ZL32CleanupAnimationScriptingClassesv
709:__ZNSt3__26vectorIP8Renderer13stl_allocatorIS2_L18MemLabelIdentifier25ELi16EEE8__appendEj
710:__ZN9Animation22ReleaseOwnedAnimationsEv
711:__ZN13AnimationClipD2Ev
712:__ZN13AnimationClipD0Ev
713:__ZN13AnimationClip17MainThreadCleanupEv
714:__ZN13AnimationClip13AwakeFromLoadE17AwakeFromLoadMode
715:__ZNK13AnimationClip26GetTypeInfoVirtualInternalEv
716:__ZN13AnimationClip7SetNameEPKc
717:__ZN13AnimationClip23VirtualRedirectTransferER19StreamedBinaryWriteILb0EE
718:__ZN13AnimationClip23VirtualRedirectTransferER18StreamedBinaryReadILb0EE
719:__ZN13AnimationClip23VirtualRedirectTransferER17RemapPPtrTransfer
720:__ZN13AnimationClip23VirtualRedirectTransferER24GenerateTypeTreeTransfer
721:__ZN13AnimationClip23VirtualRedirectTransferER14SafeBinaryRead
722:__ZNK13AnimationClip18GetAverageDurationEv
723:__ZNK13AnimationClip22GetAverageAngularSpeedEv
724:__ZNK13AnimationClip15GetAverageSpeedEv
725:__ZNK13AnimationClip16GetApparentSpeedEv
726:__ZNK13AnimationClip13IsHumanMotionEv
727:__ZNK13AnimationClip9IsLoopingEv
728:__ZNK13AnimationClip8IsLegacyEv
729:__ZN6Motion21AddSelfToDependenciesER8UserList
730:__ZNK13AnimationClip17GetAnimationClipsEv
731:__ZN13AnimationClip8TransferI14SafeBinaryReadEEvRT_
732:__ZN14SafeBinaryRead21TransferSTLStyleArrayINSt3__26vectorIN13AnimationClip15QuaternionCurveE13stl_allocatorIS4_L18MemLabelIdentifier25ELi16EEEEEEvRT_17TransferMetaFlags
733:__ZN14SafeBinaryRead21TransferSTLStyleArrayINSt3__26vectorI24CompressedAnimationCurve13stl_allocatorIS3_L18MemLabelIdentifier25ELi16EEEEEEvRT_17TransferMetaFlags
734:__ZNSt3__213__vector_baseI24CompressedAnimationCurve13stl_allocatorIS1_L18MemLabelIdentifier25ELi16EEED2Ev
735:__ZN13AnimationClip16DecompressCurvesERNSt3__26vectorI24CompressedAnimationCurve13stl_allocatorIS2_L18MemLabelIdentifier25ELi16EEEE
736:__ZN14SafeBinaryRead21TransferSTLStyleArrayINSt3__26vectorIN13AnimationClip12Vector3CurveE13stl_allocatorIS4_L18MemLabelIdentifier25ELi16EEEEEEvRT_17TransferMetaFlags
737:__ZN14SafeBinaryRead21TransferSTLStyleArrayINSt3__26vectorIN13AnimationClip10FloatCurveE13stl_allocatorIS4_L18MemLabelIdentifier25ELi16EEEEEEvRT_17TransferMetaFlags
738:__ZN14SafeBinaryRead21TransferSTLStyleArrayINSt3__26vectorIN13AnimationClip9PPtrCurveE13stl_allocatorIS4_L18MemLabelIdentifier25ELi16EEEEEEvRT_17TransferMetaFlags
739:__ZL51RenameMotionCurvesToRootCurvesBackwardCompatibilityRNSt3__26vectorIN13AnimationClip10FloatCurveE13stl_allocatorIS2_L18MemLabelIdentifier25ELi16EEEE
740:__Z21TransferBlobSerializeIN7mecanim9animation18ClipMuscleConstantE14SafeBinaryReadEvRPT_PKcRjS8_RT0_
741:__ZN11UnityEngine9Animation28AnimationClipBindingConstant8TransferI14SafeBinaryReadEEvRT_
742:__ZN14SafeBinaryRead21TransferSTLStyleArrayINSt3__26vectorI14AnimationEvent13stl_allocatorIS3_L18MemLabelIdentifier25ELi16EEEEEEvRT_17TransferMetaFlags
743:__Z14resize_trimmedINSt3__26vectorI14AnimationEvent13stl_allocatorIS2_L18MemLabelIdentifier25ELi16EEEEEvRT_j
744:__ZN14AnimationEvent8TransferI14SafeBinaryReadEEvRT_
745:__ZNSt3__26vectorI14AnimationEvent13stl_allocatorIS1_L18MemLabelIdentifier25ELi16EEE7reserveEj
746:__ZNSt3__26vectorI14AnimationEvent13stl_allocatorIS1_L18MemLabelIdentifier25ELi16EEE6assignINS_11__wrap_iterIPS1_EEEENS_9enable_ifIXaasr21__is_forward_iteratorIT_EE5valuesr16is_constructibleIS1_NS_15iterator_traitsISB_E9referenceEEE5valueEvE4typeESB_SB_
747:__ZNSt3__26vectorI14AnimationEvent13stl_allocatorIS1_L18MemLabelIdentifier25ELi16EEE8__appendEj
748:__ZNSt3__26vectorI14AnimationEvent13stl_allocatorIS1_L18MemLabelIdentifier25ELi16EEE26__swap_out_circular_bufferERNS_14__split_bufferIS1_RS4_EE
749:__ZN14AnimationEventaSERKS_
750:__ZNSt3__26vectorI14AnimationEvent13stl_allocatorIS1_L18MemLabelIdentifier25ELi16EEE18__construct_at_endINS_11__wrap_iterIPS1_EEEENS_9enable_ifIXsr21__is_forward_iteratorIT_EE5valueEvE4typeESB_SB_j
751:__ZN14SafeBinaryRead21TransferSTLStyleArrayI13dynamic_arrayIN11UnityEngine9Animation14GenericBindingELj4EEEEvRT_17TransferMetaFlags
752:__ZN14SafeBinaryRead21TransferSTLStyleArrayI13dynamic_arrayI4PPtrI6ObjectELj4EEEEvRT_17TransferMetaFlags
753:__ZN15SerializeTraitsI13dynamic_arrayIN11UnityEngine9Animation14GenericBindingELj4EEE19ResizeSTLStyleArrayERS4_i18MemLabelIdentifier
754:__ZN11UnityEngine9Animation14GenericBinding8TransferI14SafeBinaryReadEEvRT_
755:__ZN14SafeBinaryRead8TransferIPKN5Unity4TypeEEEvRT_PKc17TransferMetaFlags
756:__ZN7mecanim6memory16ChainedAllocator7ReserveEj
757:__ZN7mecanim9animation18ClipMuscleConstant8TransferI14SafeBinaryReadEEvRT_
758:__ZN7mecanim5human9HumanPose8TransferI14SafeBinaryReadEEvRT_
759:__ZN15SerializeTraitsIN4math4trsXEE8TransferI14SafeBinaryReadEEvRS1_RT_
760:__ZN7mecanim9animation4Clip8TransferI14SafeBinaryReadEEvRT_
761:__ZN14SafeBinaryRead21TransferSTLStyleArrayI19StaticArrayTransferIiLi161EEEEvRT_17TransferMetaFlags
762:__ZN14SafeBinaryRead21TransferSTLStyleArrayI22OffsetPtrArrayTransferIN7mecanim9animation10ValueDeltaEEEEvRT_17TransferMetaFlags
763:__ZN14SafeBinaryRead21TransferSTLStyleArrayI22OffsetPtrArrayTransferIfEEEvRT_17TransferMetaFlags
764:__ZN7mecanim9animation10ValueDelta8TransferI14SafeBinaryReadEEvRT_
765:__ZN14SafeBinaryRead21TransferSTLStyleArrayI22OffsetPtrArrayTransferIjEEEvRT_17TransferMetaFlags
766:__ZN7mecanim9animation9DenseClip8TransferI14SafeBinaryReadEEvRT_
767:__ZN14SafeBinaryRead8TransferIN7mecanim18ValueArrayConstantEEEvRT_PKc17TransferMetaFlags
768:__ZN14SafeBinaryRead21TransferSTLStyleArrayI22OffsetPtrArrayTransferIN7mecanim13ValueConstantEEEEvRT_17TransferMetaFlags
769:__ZN7mecanim13ValueConstant8TransferI14SafeBinaryReadEEvRT_
770:__ZN15SerializeTraitsIKN4math7_float4EE8TransferI14SafeBinaryReadEEvRS2_RT_
771:__ZN14SafeBinaryRead21TransferSTLStyleArrayI19StaticArrayTransferIN7mecanim5human9HumanGoalELi4EEEEvRT_17TransferMetaFlags
772:__ZN7mecanim4hand8HandPose8TransferI14SafeBinaryReadEEvRT_
773:__ZN14SafeBinaryRead21TransferSTLStyleArrayI19StaticArrayTransferIfLi55EEEEvRT_17TransferMetaFlags
774:__ZN14SafeBinaryRead21TransferSTLStyleArrayI19StaticArrayTransferIKN4math7_float3ELi8EEEEvRT_17TransferMetaFlags
775:__ZN14SafeBinaryRead21TransferSTLStyleArrayI19StaticArrayTransferIfLi20EEEEvRT_17TransferMetaFlags
776:__ZN7mecanim5human9HumanGoal8TransferI14SafeBinaryReadEEvRT_
777:__ZN7mecanim5human9HumanPoseC2Ev
778:__Z14resize_trimmedINSt3__26vectorIN13AnimationClip9PPtrCurveE13stl_allocatorIS3_L18MemLabelIdentifier25ELi16EEEEEvRT_j
779:__ZN13AnimationClip9PPtrCurve8TransferI14SafeBinaryReadEEvRT_
780:__ZN14SafeBinaryRead21TransferSTLStyleArrayI13dynamic_arrayI12PPtrKeyframeLj4EEEEvRT_17TransferMetaFlags
781:__ZN12PPtrKeyframe8TransferI14SafeBinaryReadEEvRT_
782:__ZNSt3__26vectorIN13AnimationClip9PPtrCurveE13stl_allocatorIS2_L18MemLabelIdentifier25ELi16EEE7reserveEj
783:__ZNSt3__26vectorIN13AnimationClip9PPtrCurveE13stl_allocatorIS2_L18MemLabelIdentifier25ELi16EEE6assignINS_11__wrap_iterIPS2_EEEENS_9enable_ifIXaasr21__is_forward_iteratorIT_EE5valuesr16is_constructibleIS2_NS_15iterator_traitsISC_E9referenceEEE5valueEvE4typeESC_SC_
784:__ZNSt3__26vectorIN13AnimationClip9PPtrCurveE13stl_allocatorIS2_L18MemLabelIdentifier25ELi16EEE6resizeEj
785:__ZNSt3__213__vector_baseIN13AnimationClip9PPtrCurveE13stl_allocatorIS2_L18MemLabelIdentifier25ELi16EEED2Ev
786:__ZN13AnimationClip9PPtrCurveC2ERKS0_
787:__ZNSt3__26vectorIN13AnimationClip9PPtrCurveE13stl_allocatorIS2_L18MemLabelIdentifier25ELi16EEE8__appendEj
788:__ZNSt3__214__split_bufferIN13AnimationClip9PPtrCurveER13stl_allocatorIS2_L18MemLabelIdentifier25ELi16EEED2Ev
789:__ZN13AnimationClip9PPtrCurveaSERKS0_
790:__ZNSt3__26vectorIN13AnimationClip9PPtrCurveE13stl_allocatorIS2_L18MemLabelIdentifier25ELi16EEE10deallocateEv
791:__Z14resize_trimmedINSt3__26vectorIN13AnimationClip10FloatCurveE13stl_allocatorIS3_L18MemLabelIdentifier25ELi16EEEEEvRT_j
792:__ZN13AnimationClip10FloatCurve8TransferI14SafeBinaryReadEEvRT_
793:__ZN17AnimationCurveTplIfE8TransferI14SafeBinaryReadEEvRT_
794:__ZN14SafeBinaryRead21TransferSTLStyleArrayI13dynamic_arrayI11KeyframeTplIfELj4EEEEvRT_17TransferMetaFlags
795:__ZN15SerializeTraitsI13dynamic_arrayI11KeyframeTplIfELj4EEE19ResizeSTLStyleArrayERS3_i18MemLabelIdentifier
796:__ZN15SerializeTraitsI11KeyframeTplIfEE8TransferI14SafeBinaryReadEEvRS1_RT_
797:__ZNSt3__26vectorIN13AnimationClip10FloatCurveE13stl_allocatorIS2_L18MemLabelIdentifier25ELi16EEE7reserveEj
798:__ZNSt3__26vectorIN13AnimationClip10FloatCurveE13stl_allocatorIS2_L18MemLabelIdentifier25ELi16EEE6assignINS_11__wrap_iterIPS2_EEEENS_9enable_ifIXaasr21__is_forward_iteratorIT_EE5valuesr16is_constructibleIS2_NS_15iterator_traitsISC_E9referenceEEE5valueEvE4typeESC_SC_
799:__ZNSt3__26vectorIN13AnimationClip10FloatCurveE13stl_allocatorIS2_L18MemLabelIdentifier25ELi16EEE6resizeEj
800:__ZNSt3__213__vector_baseIN13AnimationClip10FloatCurveE13stl_allocatorIS2_L18MemLabelIdentifier25ELi16EEED2Ev
801:__ZN13AnimationClip10FloatCurveC2ERKS0_
802:__ZNSt3__26vectorIN13AnimationClip10FloatCurveE13stl_allocatorIS2_L18MemLabelIdentifier25ELi16EEE8__appendEj
803:__ZNSt3__214__split_bufferIN13AnimationClip10FloatCurveER13stl_allocatorIS2_L18MemLabelIdentifier25ELi16EEED2Ev
804:__ZN13AnimationClip10FloatCurveaSERKS0_
805:__ZNSt3__26vectorIN13AnimationClip10FloatCurveE13stl_allocatorIS2_L18MemLabelIdentifier25ELi16EEE10deallocateEv
806:__Z14resize_trimmedINSt3__26vectorIN13AnimationClip12Vector3CurveE13stl_allocatorIS3_L18MemLabelIdentifier25ELi16EEEEEvRT_j
807:__ZN13AnimationClip12Vector3Curve8TransferI14SafeBinaryReadEEvRT_
808:__ZN17AnimationCurveTplI8Vector3fE8TransferI14SafeBinaryReadEEvRT_
809:__ZN14SafeBinaryRead21TransferSTLStyleArrayI13dynamic_arrayI11KeyframeTplI8Vector3fELj4EEEEvRT_17TransferMetaFlags
810:__ZN13dynamic_arrayI11KeyframeTplI8Vector3fELj4EE18resize_initializedEjRKS2_12ResizePolicy
811:__ZN11KeyframeTplI8Vector3fE8TransferI14SafeBinaryReadEEvRT_
812:__ZNSt3__26vectorIN13AnimationClip12Vector3CurveE13stl_allocatorIS2_L18MemLabelIdentifier25ELi16EEE7reserveEj
813:__ZNSt3__26vectorIN13AnimationClip12Vector3CurveE13stl_allocatorIS2_L18MemLabelIdentifier25ELi16EEE6assignINS_11__wrap_iterIPS2_EEEENS_9enable_ifIXaasr21__is_forward_iteratorIT_EE5valuesr16is_constructibleIS2_NS_15iterator_traitsISC_E9referenceEEE5valueEvE4typeESC_SC_
814:__ZNSt3__26vectorIN13AnimationClip12Vector3CurveE13stl_allocatorIS2_L18MemLabelIdentifier25ELi16EEE8__appendEj
815:__ZNSt3__26vectorIN13AnimationClip12Vector3CurveE13stl_allocatorIS2_L18MemLabelIdentifier25ELi16EEEC2INS_11__wrap_iterIPS2_EEEET_SB_RKS5_PNS_9enable_ifIXaasr21__is_forward_iteratorISB_EE5valuesr16is_constructibleIS2_NS_15iterator_traitsISB_E9referenceEEE5valueEvE4typeE
816:__ZN17AnimationCurveTplI8Vector3fEC2ERKS1_
817:__ZN13AnimationClip12Vector3CurveaSERKS0_
818:__ZNSt3__26vectorIN13AnimationClip15QuaternionCurveE13stl_allocatorIS2_L18MemLabelIdentifier25ELi16EEE8__appendEj
819:__ZNSt3__26vectorIN13AnimationClip15QuaternionCurveE13stl_allocatorIS2_L18MemLabelIdentifier25ELi16EEE26__swap_out_circular_bufferERNS_14__split_bufferIS2_RS5_EE
820:__Z14resize_trimmedINSt3__26vectorI24CompressedAnimationCurve13stl_allocatorIS2_L18MemLabelIdentifier25ELi16EEEEEvRT_j
821:__ZN24CompressedAnimationCurve8TransferI14SafeBinaryReadEEvRT_
822:__ZN15PackedIntVector8TransferI14SafeBinaryReadEEvRT_
823:__ZN16PackedQuatVector8TransferI14SafeBinaryReadEEvRT_
824:__ZN17PackedFloatVector8TransferI14SafeBinaryReadEEvRT_
825:__ZNSt3__26vectorI24CompressedAnimationCurve13stl_allocatorIS1_L18MemLabelIdentifier25ELi16EEE7reserveEj
826:__ZNSt3__26vectorI24CompressedAnimationCurve13stl_allocatorIS1_L18MemLabelIdentifier25ELi16EEE6assignINS_11__wrap_iterIPS1_EEEENS_9enable_ifIXaasr21__is_forward_iteratorIT_EE5valuesr16is_constructibleIS1_NS_15iterator_traitsISB_E9referenceEEE5valueEvE4typeESB_SB_
827:__ZNSt3__26vectorI24CompressedAnimationCurve13stl_allocatorIS1_L18MemLabelIdentifier25ELi16EEE6resizeEj
828:__ZN24CompressedAnimationCurveC2ERKS_
829:__ZNSt3__26vectorI24CompressedAnimationCurve13stl_allocatorIS1_L18MemLabelIdentifier25ELi16EEE8__appendEj
830:__ZNSt3__214__split_bufferI24CompressedAnimationCurveR13stl_allocatorIS1_L18MemLabelIdentifier25ELi16EEED2Ev
831:__ZN24CompressedAnimationCurveaSERKS_
832:__ZNSt3__26vectorI24CompressedAnimationCurve13stl_allocatorIS1_L18MemLabelIdentifier25ELi16EEE10deallocateEv
833:__Z14resize_trimmedINSt3__26vectorIN13AnimationClip15QuaternionCurveE13stl_allocatorIS3_L18MemLabelIdentifier25ELi16EEEEEvRT_j
834:__ZN13AnimationClip15QuaternionCurve8TransferI14SafeBinaryReadEEvRT_
835:__ZN17AnimationCurveTplI11QuaternionfE8TransferI14SafeBinaryReadEEvRT_
836:__ZN14SafeBinaryRead21TransferSTLStyleArrayI13dynamic_arrayI11KeyframeTplI11QuaternionfELj4EEEEvRT_17TransferMetaFlags
837:__ZN15SerializeTraitsI13dynamic_arrayI11KeyframeTplI11QuaternionfELj4EEE19ResizeSTLStyleArrayERS4_i18MemLabelIdentifier
838:__ZN11KeyframeTplI11QuaternionfE8TransferI14SafeBinaryReadEEvRT_
839:__ZNSt3__26vectorIN13AnimationClip15QuaternionCurveE13stl_allocatorIS2_L18MemLabelIdentifier25ELi16EEE7reserveEj
840:__ZNSt3__26vectorIN13AnimationClip15QuaternionCurveE13stl_allocatorIS2_L18MemLabelIdentifier25ELi16EEE6assignINS_11__wrap_iterIPS2_EEEENS_9enable_ifIXaasr21__is_forward_iteratorIT_EE5valuesr16is_constructibleIS2_NS_15iterator_traitsISC_E9referenceEEE5valueEvE4typeESC_SC_
841:__ZNSt3__26vectorIN13AnimationClip15QuaternionCurveE13stl_allocatorIS2_L18MemLabelIdentifier25ELi16EEE18__construct_at_endINS_11__wrap_iterIPS2_EEEENS_9enable_ifIXsr21__is_forward_iteratorIT_EE5valueEvE4typeESC_SC_j
842:__ZN13AnimationClip15QuaternionCurveaSERKS0_
843:__ZN13AnimationClip8TransferI24GenerateTypeTreeTransferEEvRT_
844:__ZN24GenerateTypeTreeTransfer21TransferSTLStyleArrayINSt3__26vectorIN13AnimationClip15QuaternionCurveE13stl_allocatorIS4_L18MemLabelIdentifier25ELi16EEEEEEvRT_17TransferMetaFlags
845:__ZN24GenerateTypeTreeTransfer21TransferSTLStyleArrayINSt3__26vectorI24CompressedAnimationCurve13stl_allocatorIS3_L18MemLabelIdentifier25ELi16EEEEEEvRT_17TransferMetaFlags
846:__ZN24GenerateTypeTreeTransfer21TransferSTLStyleArrayINSt3__26vectorIN13AnimationClip12Vector3CurveE13stl_allocatorIS4_L18MemLabelIdentifier25ELi16EEEEEEvRT_17TransferMetaFlags
847:__ZN24GenerateTypeTreeTransfer21TransferSTLStyleArrayINSt3__26vectorIN13AnimationClip10FloatCurveE13stl_allocatorIS4_L18MemLabelIdentifier25ELi16EEEEEEvRT_17TransferMetaFlags
848:__ZN24GenerateTypeTreeTransfer21TransferSTLStyleArrayINSt3__26vectorIN13AnimationClip9PPtrCurveE13stl_allocatorIS4_L18MemLabelIdentifier25ELi16EEEEEEvRT_17TransferMetaFlags
849:__Z21TransferBlobSerializeIN7mecanim9animation18ClipMuscleConstantE24GenerateTypeTreeTransferEvRPT_PKcRjS8_RT0_
850:__ZN11UnityEngine9Animation28AnimationClipBindingConstant8TransferI24GenerateTypeTreeTransferEEvRT_
851:__ZN24GenerateTypeTreeTransfer21TransferSTLStyleArrayINSt3__26vectorI14AnimationEvent13stl_allocatorIS3_L18MemLabelIdentifier25ELi16EEEEEEvRT_17TransferMetaFlags
852:__ZN14AnimationEvent8TransferI24GenerateTypeTreeTransferEEvRT_
853:__ZN11UnityEngine9Animation14GenericBinding8TransferI24GenerateTypeTreeTransferEEvRT_
854:__ZN7mecanim9animation18ClipMuscleConstant8TransferI24GenerateTypeTreeTransferEEvRT_
855:__ZN7mecanim5human9HumanPose8TransferI24GenerateTypeTreeTransferEEvRT_
856:__ZN24GenerateTypeTreeTransfer8TransferIKN4math7_float3EEEvRT_PKc17TransferMetaFlags
857:__ZN15SerializeTraitsIKN4math7_float4EE8TransferI24GenerateTypeTreeTransferEEvRS2_RT_
858:__ZN7mecanim9animation4Clip8TransferI24GenerateTypeTreeTransferEEvRT_
859:__ZN7mecanim9animation9DenseClip8TransferI24GenerateTypeTreeTransferEEvRT_
860:__Z17TransferOffsetPtrI9OffsetPtrIN7mecanim13ValueConstantEE24GenerateTypeTreeTransferEvRT_PKcRjRT0_
861:__ZN7mecanim5human9HumanGoal8TransferI24GenerateTypeTreeTransferEEvRT_
862:__ZN7mecanim4hand8HandPose8TransferI24GenerateTypeTreeTransferEEvRT_
863:__ZN24GenerateTypeTreeTransfer8TransferIN13AnimationClip9PPtrCurveEEEvRT_PKc17TransferMetaFlags
864:__ZN13AnimationClip10FloatCurve8TransferI24GenerateTypeTreeTransferEEvRT_
865:__ZN17AnimationCurveTplIfE8TransferI24GenerateTypeTreeTransferEEvRT_
866:__ZN11KeyframeTplIfE8TransferI24GenerateTypeTreeTransferEEvRT_
867:__ZN17AnimationCurveTplI8Vector3fE8TransferI24GenerateTypeTreeTransferEEvRT_
868:__ZN24CompressedAnimationCurve8TransferI24GenerateTypeTreeTransferEEvRT_
869:__ZN24GenerateTypeTreeTransfer8TransferI15PackedIntVectorEEvRT_PKc17TransferMetaFlags
870:__ZN17PackedFloatVector8TransferI24GenerateTypeTreeTransferEEvRT_
871:__ZN17AnimationCurveTplI11QuaternionfE8TransferI24GenerateTypeTreeTransferEEvRT_
872:__ZN11KeyframeTplI11QuaternionfE8TransferI24GenerateTypeTreeTransferEEvRT_
873:__ZN13AnimationClip8TransferI17RemapPPtrTransferEEvRT_
874:__ZN13AnimationClip8TransferI18StreamedBinaryReadILb0EEEEvRT_
875:__ZN17AnimationCurveTplI11QuaternionfE8TransferI18StreamedBinaryReadILb0EEEEvRT_
876:__ZN24CompressedAnimationCurve8TransferI18StreamedBinaryReadILb0EEEEvRT_
877:__ZN17AnimationCurveTplI8Vector3fE8TransferI18StreamedBinaryReadILb0EEEEvRT_
878:__ZN13AnimationClip10FloatCurve8TransferI18StreamedBinaryReadILb0EEEEvRT_
879:__ZN13AnimationClip9PPtrCurve8TransferI18StreamedBinaryReadILb0EEEEvRT_
880:__Z21TransferBlobSerializeIN7mecanim9animation18ClipMuscleConstantE18StreamedBinaryReadILb0EEEvRPT_PKcRjS9_RT0_
881:__ZN11UnityEngine9Animation14GenericBinding8TransferI18StreamedBinaryReadILb0EEEEvRT_
882:__ZN18StreamedBinaryReadILb0EE21TransferSTLStyleArrayI13dynamic_arrayI4PPtrI6ObjectELj4EEEEvRT_17TransferMetaFlags
883:__ZN14AnimationEvent8TransferI18StreamedBinaryReadILb0EEEEvRT_
884:__ZN7mecanim9animation18ClipMuscleConstant8TransferI18StreamedBinaryReadILb0EEEEvRT_
885:__ZN7mecanim5human9HumanPose8TransferI18StreamedBinaryReadILb0EEEEvRT_
886:__ZN15SerializeTraitsIN4math4trsXEE8TransferI18StreamedBinaryReadILb0EEEEvRS1_RT_
887:__ZN7mecanim9animation4Clip8TransferI18StreamedBinaryReadILb0EEEEvRT_
888:__ZN18StreamedBinaryReadILb0EE21TransferSTLStyleArrayI22OffsetPtrArrayTransferIN7mecanim9animation10ValueDeltaEEEEvRT_17TransferMetaFlags
889:__ZN7mecanim9animation12StreamedClip8TransferI18StreamedBinaryReadILb0EEEEvRT_
890:__ZN7mecanim9animation9DenseClip8TransferI18StreamedBinaryReadILb0EEEEvRT_
891:__ZN18StreamedBinaryReadILb0EE21TransferSTLStyleArrayI22OffsetPtrArrayTransferIN7mecanim13ValueConstantEEEEvRT_17TransferMetaFlags
892:__ZN18StreamedBinaryReadILb0EE8TransferIKN4math7_float4EEEvRT_PKc17TransferMetaFlags
893:__ZN7mecanim5human9HumanGoal8TransferI18StreamedBinaryReadILb0EEEEvRT_
894:__ZN7mecanim4hand8HandPose8TransferI18StreamedBinaryReadILb0EEEEvRT_
895:__ZN18StreamedBinaryReadILb0EE21TransferSTLStyleArrayI19StaticArrayTransferIKN4math7_float3ELi8EEEEvRT_17TransferMetaFlags
896:__ZN18StreamedBinaryReadILb0EE21TransferSTLStyleArrayI13dynamic_arrayI12PPtrKeyframeLj4EEEEvRT_17TransferMetaFlags
897:__ZN17AnimationCurveTplIfE8TransferI18StreamedBinaryReadILb0EEEEvRT_
898:__ZN17PackedFloatVector8TransferI18StreamedBinaryReadILb0EEEEvRT_
899:__ZN13AnimationClip8TransferI19StreamedBinaryWriteILb0EEEEvRT_
900:__ZN17AnimationCurveTplI11QuaternionfE8TransferI19StreamedBinaryWriteILb0EEEEvRT_
901:__ZN24CompressedAnimationCurve8TransferI19StreamedBinaryWriteILb0EEEEvRT_
902:__ZN13AnimationClip14CompressCurvesERNSt3__26vectorI24CompressedAnimationCurve13stl_allocatorIS2_L18MemLabelIdentifier25ELi16EEEE
903:__ZN17AnimationCurveTplI8Vector3fE8TransferI19StreamedBinaryWriteILb0EEEEvRT_
904:__ZN13AnimationClip10FloatCurve8TransferI19StreamedBinaryWriteILb0EEEEvRT_
905:__ZN13AnimationClip9PPtrCurve8TransferI19StreamedBinaryWriteILb0EEEEvRT_
906:__Z21TransferBlobSerializeIN7mecanim9animation18ClipMuscleConstantE19StreamedBinaryWriteILb0EEEvRPT_PKcRjS9_RT0_
907:__ZN19StreamedBinaryWriteILb0EE8TransferIN11UnityEngine9Animation28AnimationClipBindingConstantEEEvRT_PKc17TransferMetaFlags
908:__ZN14AnimationEvent8TransferI19StreamedBinaryWriteILb0EEEEvRT_
909:__ZN11UnityEngine9Animation14GenericBinding8TransferI19StreamedBinaryWriteILb0EEEEvRT_
910:__ZN7mecanim9animation18ClipMuscleConstant8TransferI19StreamedBinaryWriteILb0EEEEvRT_
911:__ZN7mecanim5human9HumanPose8TransferI19StreamedBinaryWriteILb0EEEEvRT_
912:__ZN15SerializeTraitsIN4math4trsXEE8TransferI19StreamedBinaryWriteILb0EEEEvRS1_RT_
913:__ZN7mecanim9animation4Clip8TransferI19StreamedBinaryWriteILb0EEEEvRT_
914:__ZN19StreamedBinaryWriteILb0EE21TransferSTLStyleArrayI22OffsetPtrArrayTransferIN7mecanim9animation10ValueDeltaEEEEvRT_17TransferMetaFlags
915:__ZN7mecanim9animation9DenseClip8TransferI19StreamedBinaryWriteILb0EEEEvRT_
916:__ZN15SerializeTraitsI22OffsetPtrArrayTransferIN7mecanim13ValueConstantEEE8TransferI19StreamedBinaryWriteILb0EEEEvRS3_RT_
917:__ZN19StreamedBinaryWriteILb0EE8TransferIKN4math7_float4EEEvRT_PKc17TransferMetaFlags
918:__ZN7mecanim5human9HumanGoal8TransferI19StreamedBinaryWriteILb0EEEEvRT_
919:__ZN7mecanim4hand8HandPose8TransferI19StreamedBinaryWriteILb0EEEEvRT_
920:__Z13TransferArrayILi8EKN4math7_float3E19StreamedBinaryWriteILb0EEEvRAT__T0_PKcRT1_
921:__ZN19StreamedBinaryWriteILb0EE8TransferIKN4math7_float3EEEvRT_PKc17TransferMetaFlags
922:__ZN17AnimationCurveTplIfE8TransferI19StreamedBinaryWriteILb0EEEEvRT_
923:__ZN11KeyframeTplIfE8TransferI19StreamedBinaryWriteILb0EEEEvRT_
924:__ZN11KeyframeTplI8Vector3fE8TransferI19StreamedBinaryWriteILb0EEEEvRT_
925:__ZN15PackedIntVector8TransferI19StreamedBinaryWriteILb0EEEEvRT_
926:__ZN17PackedFloatVector8TransferI19StreamedBinaryWriteILb0EEEEvRT_
927:__ZN6Motion17NotifyObjectUsersERK17MessageIdentifier
928:__ZN6Motion17MainThreadCleanupEv
929:__ZN6MotionD2Ev
930:__ZN6MotionD0Ev
931:__ZNK6Motion26GetTypeInfoVirtualInternalEv
932:__ZN7mecanim6memory16ChainedAllocator8AllocateEjj
933:__ZN8AnimatorD2Ev
934:__ZN8AnimatorD0Ev
935:__ZN8Animator17MainThreadCleanupEv
936:__ZN8Animator13AwakeFromLoadE17AwakeFromLoadMode
937:__ZN8Animator5ResetEv
938:__ZNK8Animator26GetTypeInfoVirtualInternalEv
939:__ZN8Animator23VirtualRedirectTransferER19StreamedBinaryWriteILb0EE
940:__ZN8Animator23VirtualRedirectTransferER18StreamedBinaryReadILb0EE
941:__ZN8Animator23VirtualRedirectTransferER17RemapPPtrTransfer
942:__ZN8Animator23VirtualRedirectTransferER24GenerateTypeTreeTransfer
943:__ZN8Animator23VirtualRedirectTransferER14SafeBinaryRead
944:__ZN8Animator10DeactivateE19DeactivateOperation
945:__ZN8Animator12AddToManagerEv
946:__ZN8Animator17RemoveFromManagerEv
947:__ZN8Animator16TransformChangedEi
948:__ZN8Animator15SetPrepareStageEv
949:__ZNK8Animator25GetStateMachineBehavioursEv
950:__ZN8Animator26ClearRelatedPropertyBlocksEv
951:__ZN8Animator11ClearObjectEv
952:__ZN8Animator23ClearContainedRenderersEv
953:__ZN8Animator26AnimatorVisibilityCallbackEPvS0_i
954:__ZN8Animator19SetVisibleRenderersEb
955:__ZNK8Animator20IsAnyRendererVisibleEv
956:__ZN8Animator23RemoveContainedRendererEPv
957:__ZN8Animator12CreateObjectEv
958:__ZN8Animator13UpdateAvatarsERK13dynamic_arrayIP14PlayableOutputLj4EEbbb
959:__ZN8Animator9BuildJobsERK13dynamic_arrayIP14PlayableOutputLj4EERS0_INS_11AnimatorJobELj4EEPS7_bb
960:__ZNK23AnimationPlayableOutput17GetTargetAnimatorEv
961:__ZN14AvatarPlayback10CursorTimeEv
962:__ZN8Animator23SetPlaybackTimeInternalEf
963:__ZN26AnimatorControllerPlayable11UpdateGraphEf
964:__ZN8Animator20ProcessAnimationsJobEPNS_11AnimatorJobEj
965:__ZN13AnimationClip19FireAnimationEventsEP22AnimationClipEventInfoRN5Unity9ComponentE
966:__ZN8Animator14FireBehavioursEN7mecanim12statemachine19StateMachineMessageERNS_11AnimatorJobE
967:__ZN8Animator19ApplyOnAnimatorMoveERNS_11AnimatorJobE
968:__ZN26AnimatorControllerPlayable24ClearFirstEvaluationFlagEv
969:__ZN7mecanim9animation31UpdateAvatarMemoryFirstEvalFlagEPNS0_12AvatarMemoryEf
970:__ZN8Animator24SortJobsBasedOnHierarchyERK13dynamic_arrayINS_11AnimatorJobELj4EERS0_IS2_Lj4EE
971:__ZNK26AnimatorControllerPlayable13GetLayerCountEv
972:__ZN7mecanim9animation22EvaluateAvatarRetargetEPKNS0_14AvatarConstantEPKNS0_11AvatarInputEPNS0_12AvatarOutputEPNS0_12AvatarMemoryEPNS0_15AvatarWorkspaceEb
973:__ZN8Animator9WriteStepEv
974:__ZN7mecanim9animation16EvaluateAvatarIKEPKNS0_14AvatarConstantEPKNS0_11AvatarInputEPNS0_12AvatarOutputEPNS0_12AvatarMemoryEPNS0_15AvatarWorkspaceEb
975:__ZN7mecanim9animation17EvaluateAvatarEndEPKNS0_14AvatarConstantEPKNS0_11AvatarInputEPNS0_12AvatarOutputEPNS0_12AvatarMemoryEPNS0_15AvatarWorkspaceE
976:__ZN8Animator17ApplyOnAnimatorIKEiRNS_11AnimatorJobE
977:__ZN8Animator15WritePropertiesEff
978:__ZN11UnityEngine9Animation29SetGenericFloatPropertyValuesERKNS0_30AnimatorGenericBindingConstantERKN7mecanim10ValueArrayE
979:__ZN11UnityEngine9Animation28SetGenericPPtrPropertyValuesERKNS0_30AnimatorGenericBindingConstantERKN7mecanim10ValueArrayE
980:__ZN11UnityEngine9Animation35SetTransformPropertyApplyMainThreadER9TransformRKNS0_30AnimatorGenericBindingConstantERKNS0_21AvatarBindingConstantEb
981:__ZN11UnityEngine9Animation40SetFlattenedSkeletonTransformsMainThreadER9TransformRKNS0_21AvatarBindingConstantEb
982:i32s-rem
983:__ZN14AvatarPlayback11RecordFrameEfPKN7mecanim9animation12AvatarMemoryEPNS1_16ControllerMemoryE
984:__ZN9BlobWrite8TransferIN7mecanim9animation12AvatarMemoryEEEvRT_PKc17TransferMetaFlags
985:__ZN9BlobWriteD2Ev
986:__ZN9BlobWrite8TransferIN7mecanim9animation16ControllerMemoryEEEvRT_PKc17TransferMetaFlags
987:__ZNSt3__26vectorI11AvatarFrameNS_9allocatorIS1_EEE21__push_back_slow_pathIKS1_EEvRT_
988:__ZN7mecanim9animation16ControllerMemory8TransferI8BlobSizeEEvRT_
989:__ZN7mecanim9animation16ControllerMemory8TransferI9BlobWriteEEvRT_
990:__ZN9BlobWrite8TransferIjEEvRT_PKc17TransferMetaFlags
991:__ZN9BlobWrite8TransferI22OffsetPtrArrayTransferI9OffsetPtrIN7mecanim12statemachine18StateMachineMemoryEEEEEvRT_PKc17TransferMetaFlags
992:__ZN9BlobWrite8TransferI22OffsetPtrArrayTransferIfEEEvRT_PKc17TransferMetaFlags
993:__ZN9BlobWrite8TransferI9OffsetPtrIN7mecanim10ValueArrayEEEEvRT_PKc17TransferMetaFlags
994:__ZN9BlobWrite8TransferIbEEvRT_PKc17TransferMetaFlags
995:__ZN9BlobWrite8TransferIN7mecanim10ValueArrayEEEvRT_PKc17TransferMetaFlags
996:__ZN7mecanim10ValueArray8TransferI8BlobSizeEEvRT_
997:__ZN7mecanim10ValueArray8TransferI9BlobWriteEEvRT_
998:__ZN9BlobWrite8TransferI22OffsetPtrArrayTransferIKN4math7_float3EEEEvRT_PKc17TransferMetaFlags
999:__ZN9BlobWrite8TransferI22OffsetPtrArrayTransferIKN4math7_float4EEEEvRT_PKc17TransferMetaFlags
1000:__ZN9BlobWrite8TransferI22OffsetPtrArrayTransferIbEEEvRT_PKc17TransferMetaFlags
1001:__ZN34BlobWriteTransferSTLStyleArrayImplI22OffsetPtrArrayTransferIbEEclERS1_17TransferMetaFlagsR9BlobWrite
1002:__ZN34BlobWriteTransferSTLStyleArrayImplI22OffsetPtrArrayTransferIiEEclERS1_17TransferMetaFlagsR9BlobWrite
1003:__ZN34BlobWriteTransferSTLStyleArrayImplI22OffsetPtrArrayTransferIKN4math7_float4EEEclERS4_17TransferMetaFlagsR9BlobWrite
1004:__ZN9BlobWrite8TransferIKN4math7_float4EEEvRT_PKc17TransferMetaFlags
1005:__ZN34BlobWriteTransferSTLStyleArrayImplI22OffsetPtrArrayTransferIKN4math7_float3EEEclERS4_17TransferMetaFlagsR9BlobWrite
1006:__ZN9BlobWrite8TransferIKN4math7_float3EEEvRT_PKc17TransferMetaFlags
1007:__ZN34BlobWriteTransferSTLStyleArrayImplI22OffsetPtrArrayTransferI9OffsetPtrIN7mecanim12statemachine18StateMachineMemoryEEEEclERS6_17TransferMetaFlagsR9BlobWrite
1008:__ZN9BlobWrite8TransferI9OffsetPtrIN7mecanim12statemachine18StateMachineMemoryEEEEvRT_PKc17TransferMetaFlags
1009:__ZN9BlobWrite8TransferIN7mecanim12statemachine18StateMachineMemoryEEEvRT_PKc17TransferMetaFlags
1010:__ZN7mecanim12statemachine18StateMachineMemory8TransferI8BlobSizeEEvRT_
1011:__ZN7mecanim12statemachine18StateMachineMemory8TransferI9BlobWriteEEvRT_
1012:__ZN7mecanim9animation12AvatarMemory8TransferI8BlobSizeEEvRT_
1013:__ZN7mecanim9animation12AvatarMemory8TransferI9BlobWriteEEvRT_
1014:__ZN9BlobWrite8TransferIN4math4trsXEEEvRT_PKc17TransferMetaFlags
1015:__ZN15SerializeTraitsIN4math4trsXEE8TransferI8BlobSizeEEvRS1_RT_
1016:__ZN11UnityEngine9Animation28SetBoundCurveInstanceIDValueERKNS0_10BoundCurveEi
1017:__ZN7mecanim8skeleton16SkeletonPoseCopyIN4math4trsXES3_EEvPKNS0_13SkeletonPoseTIT_EEPNS4_IT0_EE
1018:__ZN7mecanim5human10TwistSolveEPKNS0_5HumanEPNS_8skeleton13SkeletonPoseTIN4math4trsXEEES9_
1019:__ZN7mecanim8skeleton25SkeletonPoseComputeGlobalIN4math4trsXEEEvPKNS0_8SkeletonEPKNS0_13SkeletonPoseTIT_EEPS9_ii
1020:__ZN7mecanim8skeleton24SkeletonPoseComputeLocalIN4math4trsXEEEvPKNS0_8SkeletonEPKNS0_13SkeletonPoseTIT_EEPS9_ii
1021:__ZN7mecanim8skeleton16SkeletonPoseCopyIN4math4trsXES3_EEvPKNS0_13SkeletonPoseTIT_EEPNS4_IT0_EEjPKi
1022:__ZN7mecanim5human13HumanFixTwistEPKNS0_5HumanEPNS_8skeleton13SkeletonPoseTIN4math4trsXEEES9_iiRKf
1023:__ZN7mecanim8skeleton26SkeletonPoseComputeGlobalQEPKNS0_8SkeletonEPKNS0_13SkeletonPoseTIN4math4trsXEEEPS7_ii
1024:__ZN7mecanim8skeleton13SkeletonAlignEPKNS0_8SkeletonERKN4math7_float4ES7_i
1025:__ZN7mecanim8skeleton25SkeletonPoseComputeLocalQEPKNS0_8SkeletonEPKNS0_13SkeletonPoseTIN4math4trsXEEEPS7_ii
1026:__ZN7mecanim8skeleton25SkeletonPoseComputeGlobalIN4math4trsXEEEvPKNS0_8SkeletonEPKNS0_13SkeletonPoseTIT_EEPS9_
1027:__ZN7mecanim5human20HumanGetHintPositionEPKNS0_5HumanEPKNS_8skeleton13SkeletonPoseTIN4math4trsXEEENS0_4GoalE
1028:__ZN7mecanim5human13FullBodySolveEPKNS0_5HumanEPKNS0_9HumanPoseEPNS_8skeleton13SkeletonPoseTIN4math4trsXEEESC_SC_
1029:__ZN7mecanim5human15GetLookAtDeltaQERKN4math7_float3ES4_RKNS1_7_float4ES4_S4_RKf
1030:__ZN7mecanim8skeleton25Skeleton2BoneAdjustLengthEPKNS0_8SkeletonEiiiRKN4math7_float3ERKfPNS0_13SkeletonPoseTINS4_4trsXEEESD_
1031:__ZN7mecanim8skeleton15Skeleton2BoneIKEPKNS0_8SkeletonEiiiRKN4math7_float3EfPNS0_13SkeletonPoseTINS4_4trsXEEESB_
1032:__ZN7mecanim8skeleton23Skeleton2BoneAdjustHintEPKNS0_8SkeletonEiiiRKN4math7_float3EfPNS0_13SkeletonPoseTINS4_4trsXEEESB_f
1033:__ZN7mecanim5human17ReachGoalRotationEPKNS0_5HumanERKN4math7_float4EiPNS_8skeleton13SkeletonPoseTINS4_4trsXEEESC_SC_
1034:__ZN7mecanim5human14HumanFixEndDoFEPKNS0_5HumanEPNS_8skeleton13SkeletonPoseTIN4math4trsXEEES9_iifi
1035:__ZN7mecanim8skeleton14SkeletonGetDoFEPKNS0_8SkeletonEPKNS0_13SkeletonPoseTIN4math4trsXEEEi
1036:__ZN7mecanim8skeleton14SkeletonSetDoFEPKNS0_8SkeletonEPNS0_13SkeletonPoseTIN4math4trsXEEERKNS5_7_float3Ei
1037:__ZN11UnityEngine9Animation31SetHumanTransformPropertyValuesERKNS0_21AvatarBindingConstantERKN7mecanim8skeleton13SkeletonPoseTIN4math4trsXEEEbb
1038:__ZN11UnityEngine9Animation33SetGenericTransformPropertyValuesERKNS0_30AnimatorGenericBindingConstantERKN7mecanim10ValueArrayEP9Transformb
1039:__ZN7mecanim9animation21SkeletonPoseFromValueIN4math4trsXEEEvRKNS_8skeleton8SkeletonERKNS4_13SkeletonPoseTIS3_EERKNS_10ValueArrayEPKNS0_14SkeletonTQSMapERNS8_IT_EEPKib
1040:__ZN7mecanim8skeleton16SkeletonPoseCopyIN4math4trsXENS2_7affineXEEEvPKNS0_13SkeletonPoseTIT_EEPNS5_IT0_EE
1041:__ZN7mecanim8skeleton25SkeletonPoseComputeGlobalIN4math7affineXEEEvPKNS0_8SkeletonEPKNS0_13SkeletonPoseTIT_EEPS9_
1042:__Z28SetExposedSkeletonTransformsRKN7mecanim9animation14AvatarConstantERKN11UnityEngine9Animation30AnimatorGenericBindingConstantERKNS_8skeleton13SkeletonPoseTIN4math4trsXEEERKNSA_INSB_7affineXEEERNS5_21AvatarBindingConstantE
1043:__ZN7mecanim8skeleton25SkeletonGetGlobalRotationEPKNS0_8SkeletonEPKNS0_13SkeletonPoseTIN4math4trsXEEEi
1044:__ZN7mecanim5human13HumanPoseCopyERNS0_9HumanPoseERKS1_b
1045:__ZN7mecanim5human10RetargetToEPKNS0_5HumanEPKNS0_9HumanPoseES6_RKN4math4trsXEPS4_PNS_8skeleton13SkeletonPoseTIS8_EESF_
1046:__ZN7mecanim9animation11SetIKOnFeetEbRKNS0_14AvatarConstantERKNS0_11AvatarInputERNS0_12AvatarMemoryERNS0_15AvatarWorkspaceERNS0_12AvatarOutputE
1047:__ZN7mecanim5human30HumanPoseAdjustForMissingBonesEPKNS0_5HumanEPNS0_9HumanPoseE
1048:__ZN7mecanim5human18Human2SkeletonPoseEPKNS0_5HumanEPKNS0_9HumanPoseEPNS_8skeleton13SkeletonPoseTIN4math4trsXEEE
1049:__ZN7mecanim5human26HumanComputeBoneMassCenterEPKNS0_5HumanEPKNS_8skeleton13SkeletonPoseTIN4math4trsXEEEi
1050:__ZN7mecanim5human23HumanComputeOrientationEPKNS0_5HumanEPKNS_8skeleton13SkeletonPoseTIN4math4trsXEEE
1051:__ZN7mecanim5human14RetargetToTDoFEPKNS0_5HumanEPNS0_9HumanPoseEPNS_8skeleton13SkeletonPoseTIN4math4trsXEEESB_
1052:__ZN7mecanim4hand17Hand2SkeletonPoseEPKNS0_4HandEPKNS_8skeleton8SkeletonEPKNS0_8HandPoseEPNS4_13SkeletonPoseTIN4math4trsXEEE
1053:__ZL7JobSortPKN8Animator11AnimatorJobES2_
1054:__ZNSt3__26__sortIRPFbPKN8Animator11AnimatorJobES4_EPS4_EEvT0_S9_T_
1055:__ZN13dynamic_arrayIN8Animator11AnimatorJobELj4EE9push_backERKS1_
1056:__ZNSt3__27__sort4IRPFbPKN8Animator11AnimatorJobES4_EPS4_EEjT0_S9_S9_S9_T_
1057:__ZNSt3__218__insertion_sort_3IRPFbPKN8Animator11AnimatorJobES4_EPS4_EEvT0_S9_T_
1058:__ZNSt3__227__insertion_sort_incompleteIRPFbPKN8Animator11AnimatorJobES4_EPS4_EEbT0_S9_T_
1059:__ZNK8Animator7IsHumanEv
1060:__ZN8Animator22ApplyBuiltinRootMotionEv
1061:__ZN11UnityEngine9Animation37HasGenericRootTransformPropertyValuesERKNS0_30AnimatorGenericBindingConstantEb
1062:__ZN11UnityEngine9Animation37SetGenericRootTransformPropertyValuesERKNS0_30AnimatorGenericBindingConstantERKN7mecanim10ValueArrayER9Transformbb
1063:__ZNK6Avatar7IsHumanEv
1064:__ZNK26AnimatorControllerPlayable20GetAnimatorStateInfoEi14StateInfoIndexR17AnimatorStateInfo
1065:__ZNK27StateMachineBehaviourPlayer18FireStateBehaviourER17AnimatorStateInfoiN7mecanim12statemachine19StateMachineMessageE
1066:__ZNK27StateMachineBehaviourPlayer13FireBehaviourER8StateKeyR18ScriptingArgumentsN7mecanim12statemachine19StateMachineMessageEb
1067:__ZNK26AnimatorControllerPlayable18ValidateLayerIndexEi
1068:__ZN8Animator21ProcessAnimationsStepERNS_11AnimatorJobE
1069:__ZN7mecanim5human12FullBodyMaskEv
1070:__ZN7mecanim9animation23ClearAnimationNodeStateEPNS0_18AnimationNodeStateEb
1071:__ZN17AnimationPlayable28UpdateInternalStateRecursiveILi3ELb1EEEvPK35AnimationPlayableEvaluationConstant
1072:__Z30AnimationPlayableEvaluateBeginP35AnimationPlayableEvaluationConstantP32AnimationPlayableEvaluationInputP33AnimationPlayableEvaluationOutput
1073:__Z28AnimationPlayableEvaluateEndP35AnimationPlayableEvaluationConstantP32AnimationPlayableEvaluationInputP33AnimationPlayableEvaluationOutput
1074:__ZN7mecanim9animation16EvaluateAvatarDXEPKNS0_14AvatarConstantEPKNS0_11AvatarInputEPNS0_12AvatarMemoryEPNS0_15AvatarWorkspaceEPNS0_12AvatarOutputE
1075:__ZN7mecanim12SetValueMaskEPNS_14ValueArrayMaskEb
1076:__ZN27AnimationLayerMixerPlayable10MixOutputsEP35AnimationPlayableEvaluationConstantP32AnimationPlayableEvaluationInputP33AnimationPlayableEvaluationOutputS5_fbbPKN7mecanim6bitsetILj70EEE
1077:__ZN7mecanim15InvertValueMaskEPNS_14ValueArrayMaskE
1078:__ZN8Animator11TargetMatchEv
1079:__ZN7mecanim9animation28MotionOutputGetDeltaPositionEPKNS0_12MotionOutputE
1080:__ZN7mecanim9animation28MotionOutputGetDeltaRotationEPKNS0_12MotionOutputE
1081:__ZN7mecanim9animation15EvaluateAvatarXEPKNS0_14AvatarConstantEPKNS0_11AvatarInputEPNS0_12AvatarOutputEPNS0_12AvatarMemoryEPNS0_15AvatarWorkspaceE
1082:__ZNK26AnimatorControllerPlayable22IsInTransitionInternalEi
1083:__ZNK8Animator20IsInMatchTargetStateEv
1084:__ZN7mecanim9animation29MotionOutputGetDeltaTransformEPKNS0_12MotionOutputE
1085:__ZN7mecanim5human29HumanGetGoalOrientationOffsetENS0_4GoalE
1086:__ZN7mecanim9animation29MotionOutputSetDeltaTransformEPNS0_12MotionOutputERKN4math4trsXE
1087:__ZNK26AnimatorControllerPlayable21GetStateMachineMemoryEi
1088:__ZN7mecanim13ValueArrayAddEPKNS_10ValueArrayES2_PKNS_14ValueArrayMaskEfbPS0_PS3_
1089:__ZN7mecanim9animation22MotionAddOverrideLayerEPNS0_12MotionOutputEPKS1_fbbRKNS_6bitsetILj70EEE
1090:__ZN7mecanim5human25HumanPoseAddAdditiveLayerERNS0_9HumanPoseERKS1_fRKNS_6bitsetILj70EEE
1091:__ZN7mecanim5human25HumanPoseAddOverrideLayerERNS0_9HumanPoseERKS1_fRKNS_6bitsetILj70EEE
1092:__ZN7mecanim5human19MaskHasLeftFootGoalERKNS_6bitsetILj70EEE
1093:__ZN7mecanim5human20MaskHasRightFootGoalERKNS_6bitsetILj70EEE
1094:__ZN7mecanim9animation16MotionOutputCopyEPNS0_12MotionOutputEPKS1_bbRKNS_6bitsetILj70EEE
1095:__ZN7mecanim14ValueArrayCopyEPKNS_10ValueArrayEPS0_PKNS_14ValueArrayMaskE
1096:__ZNK17AnimationPlayable27GetNextCompatibleDescendantEi
1097:__ZN7mecanim5human14HumanPoseClearERNS0_9HumanPoseE
1098:__ZN7mecanim12statemachine20EvaluateStateMachineERKNS0_20StateMachineConstantERKNS0_17StateMachineInputERNS0_18StateMachineOutputERNS0_18StateMachineMemoryERNS0_21StateMachineWorkspaceE
1099:__ZN7mecanim12statemachine10IsDisabledEPKNS0_17StateMachineInputE
1100:__ZN26AnimatorControllerPlayable18SetLayerAutoWeightEv
1101:__ZNK27StateMachineBehaviourPlayer15IsSenderEnabledEv
1102:__ZNK34AnimationStateMachineMixerPlayable21GetStateMixerPlayableEb
1103:__ZN34AnimationStateMachineMixerPlayable13EndTransitionEv
1104:__ZN7mecanim12statemachine10StartStateERKNS0_20StateMachineConstantERKNS0_17StateMachineInputERNS0_18StateMachineOutputERNS0_18StateMachineMemoryEb
1105:__ZN7mecanim12statemachine13EvaluateStateERKNS_18ValueArrayConstantERKNS0_13StateConstantERKNS0_17StateMachineInputERNS0_18StateMachineOutputERNS0_18StateMachineMemoryERNS0_11StateOutputERNS0_14StateWorkspaceEbb
1106:__ZN7mecanim12statemachine19EvaluateTransitionsERK9OffsetPtrIS1_INS0_18TransitionConstantEEEjRNS0_15TransitionInputERNS0_16TransitionOutputERNS0_16TransitionMemoryEPKNS0_20StateMachineConstantEPKNS0_17StateMachineInputEPNS0_18StateMachineOutputEPNS0_18StateMachineMemoryEPNS0_21StateMachineWorkspaceEi
1107:__ZN34AnimationStateMachineMixerPlayable26StartInterruptedTransitionEv
1108:__ZNK34AnimationStateMachineMixerPlayable26GetInterruptedPosePlayableEv
1109:__ZN7mecanim12statemachine18EvaluateTransitionEPKNS0_18TransitionConstantEPKNS0_15TransitionInputEPNS0_16TransitionOutputEPKNS0_16TransitionMemoryEPNS0_21StateMachineWorkspaceE
1110:__ZN7mecanim14FindValueIndexEPKNS_18ValueArrayConstantEj
1111:__ZN7mecanim12statemachine17EvaluateSelectorsEPKNS0_20StateMachineConstantEPKNS_18ValueArrayConstantEPNS_10ValueArrayEjPKNS0_17StateMachineInputEPNS0_18StateMachineMemoryEPNS0_21StateMachineWorkspaceE
1112:__ZNK27StateMachineBehaviourPlayer25FireStateMachineBehaviourEiiN7mecanim12statemachine19StateMachineMessageE
1113:__ZN7mecanim12statemachine17EvaluateConditionEPKNS0_17ConditionConstantEPKNS_18ValueArrayConstantEPKNS_10ValueArrayE
1114:__ZN7mecanim12statemachine21DoBlendTreeEvaluationERKNS0_13StateConstantERNS0_11StateOutputERNS0_14StateWorkspaceERKNS_18ValueArrayConstantERKNS0_17StateMachineInputEb
1115:__ZN7mecanim9animation17EvaluateBlendTreeERKNS0_17BlendTreeConstantERKNS0_14BlendTreeInputERNS0_15BlendTreeOutputERNS0_18BlendTreeWorkspaceERKNS0_12AnimationSetE
1116:__ZN13AnimationClip15GetRuntimeAssetEv
1117:__ZN7mecanim9animation10GetWeightsERKNS0_21BlendTreeNodeConstantERNS0_18BlendTreeWorkspaceEPfff
1118:__ZN7mecanim9animation27GetWeightsSimpleDirectionalERKNS0_19Blend2dDataConstantEPfPiP8Vector2fffb
1119:__ZN7mecanim9animation29GetWeightsFreeformDirectionalERKNS0_19Blend2dDataConstantEPfPiP8Vector2fffb
1120:__ZN7mecanim9animation27GetWeightsFreeformCartesianERKNS0_19Blend2dDataConstantEPfPiP8Vector2fffb
1121:__ZN21AnimationClipPlayable7SetClipEP13AnimationClip
1122:__ZN14AvatarPlayback9PlayFrameEfRPN7mecanim9animation12AvatarMemoryERPNS1_16ControllerMemoryE
1123:__Z8CopyBlobIN7mecanim9animation12AvatarMemoryEEPT_RKS3_RNS0_6memory9AllocatorERj
1124:__ZN7mecanim9animation19DestroyAvatarMemoryEPNS0_12AvatarMemoryERNS_6memory9AllocatorE
1125:__ZN26AnimatorControllerPlayable18PrepareForPlaybackERN7mecanim6memory9AllocatorE
1126:__ZN26AnimatorControllerPlayable15SetRecorderDataEPN7mecanim9animation16ControllerMemoryERNS0_6memory9AllocatorE
1127:__Z8CopyBlobIN7mecanim9animation16ControllerMemoryEEPT_RKS3_RNS0_6memory9AllocatorERj
1128:__ZN7mecanim9animation23DestroyControllerMemoryEPNS0_16ControllerMemoryERNS_6memory9AllocatorE
1129:__ZN34AnimationStateMachineMixerPlayable16ArrangePlayablesEb
1130:__ZN7mecanim12statemachine25DestroyStateMachineMemoryEPNS0_18StateMachineMemoryERNS_6memory9AllocatorE
1131:__ZN8Animator11AnimatorJob11AddPlayableEP17AnimationPlayablef
1132:__ZN8Animator16InitializeAvatarEv
1133:__ZN8Animator19CreatePlayableGraphEv
1134:__ZN8Animator32CreateInternalControllerPlayableEv
1135:__ZN8Animator14CreateBindingsEv
1136:__ZN8Animator20CreatePlayableMemoryEv
1137:__ZN8Animator24CollectAnimatedRenderersERKNS_15BindingsDataSetE
1138:__ZN8Animator21SetupPlayableConstantEv
1139:__ZN17AnimationPlayable28UpdateInternalStateRecursiveILi3ELb0EEEvPK35AnimationPlayableEvaluationConstant
1140:__ZN11UnityEngine9Animation26CreateAnimationSetBindingsERK13dynamic_arrayIP13AnimationClipLj4EERN7mecanim6memory9AllocatorE
1141:__ZN11UnityEngine9Animation27DestroyAnimationSetBindingsEPNS0_20AnimationSetBindingsERN7mecanim6memory9AllocatorE
1142:__ZN11UnityEngine9Animation30DestroyAnimatorGenericBindingsEPNS0_30AnimatorGenericBindingConstantERN7mecanim6memory9AllocatorE
1143:__ZN7mecanim9animation32DeallocateAvatarOuputForBindingsEPNS0_12AvatarOutputERNS_6memory9AllocatorE
1144:__ZN8Animator20SetupBindingsDataSetEN4core8AllocPtrIN11UnityEngine9Animation20AnimationSetBindingsE20MecanimDestroyPolicyIS4_EEERNS_15BindingsDataSetERNS_13AvatarDataSetE
1145:__ZN7mecanim9animation24CreateAnimationNodeStateERKNS_18ValueArrayConstantEbbbRNS_6memory9AllocatorE
1146:i32u-rem
1147:__ZN7mecanim16CreateValueArrayEPKNS_18ValueArrayConstantERNS_6memory9AllocatorE
1148:__ZN7mecanim20CreateValueArrayMaskEPKNS_18ValueArrayConstantERNS_6memory9AllocatorE
1149:__ZN8Animator13GetAvatarRootEv
1150:__ZN11UnityEngine9Animation29CreateAnimatorGenericBindingsERKNS0_20AnimationSetBindingsER9TransformPKN7mecanim9animation14AvatarConstantEbRNS6_6memory9AllocatorER8Animator
1151:__ZN11UnityEngine9Animation32CreateAnimatorGenericBindingsOptERKNS0_20AnimationSetBindingsER9TransformPKN7mecanim9animation14AvatarConstantEPKNS0_21AvatarBindingConstantEbRNS6_6memory9AllocatorER8Animator
1152:__ZN7mecanim9animation30AllocateAvatarOuputForBindingsEPNS0_12AvatarOutputEbPKNS_18ValueArrayConstantERNS_6memory9AllocatorE
1153:__ZN7mecanim14ValueArrayCopyEPKNS_10ValueArrayEPS0_
1154:__ZN11UnityEngine9Animation36GenerateTransformBindingMapRecursiveER9TransformRKN7mecanim5crc32ER13dynamic_arrayINS0_14BoundTransformELj4EEPKNS3_9animation14AvatarConstantEb
1155:__ZN11UnityEngine9AnimationL56CalculateTransformBindingSizeBasedOnConstantOptimizationERKNS0_20AnimationSetBindingsERK13dynamic_arrayINS0_14BoundTransformELj4EEPKiPKN7mecanim9animation14AvatarConstantEb
1156:__ZN7mecanim8skeleton16SkeletonFindNodeEPKNS0_8SkeletonEj
1157:__ZN7mecanim28CreateValueArrayConstantCopyEPKNS_18ValueArrayConstantEjRNS_6memory9AllocatorE
1158:__ZN11UnityEngine9AnimationL22GenericBindingCallbackEPvS1_i
1159:__ZN11UnityEngine9AnimationL23InitializeDefaultValuesERKNS0_30AnimatorGenericBindingConstantEPKN7mecanim9animation14AvatarConstantEb
1160:__ZN7mecanim9animation21ValueFromSkeletonPoseERKNS_8skeleton8SkeletonERKNS1_13SkeletonPoseTIN4math4trsXEEEPKNS0_14SkeletonTQSMapERNS_10ValueArrayE
1161:__ZN11UnityEngine9Animation27GetCurveCountForBindingTypeEj
1162:__ZN4mathL11quatToEulerERKNS_7_float4ENS_13RotationOrderE
1163:__Z16AppendPathToHashRKN7mecanim5crc32EPKc
1164:__ZN6Avatar8GetAssetEv
1165:__Z14FindAvatarRootPKN7mecanim8skeleton8SkeletonEPKjR9Transformb
1166:__Z18BuildTransformListR9TransformR13dynamic_arrayIPS_Lj4EE
1167:__Z15HiearchyMatchesP9TransformPKN7mecanim8skeleton8SkeletonEiRKNS1_5crc32E
1168:__ZN7mecanim6memory16MecanimAllocator8AllocateEjj
1169:__ZN7mecanim6memory16MecanimAllocator10DeallocateEPv
1170:__ZN11UnityEngine9Animation31UnregisterGenericBindingObjectsEPNS0_30AnimatorGenericBindingConstantE
1171:__ZN7mecanim9animation19DestroyAnimationSetEPNS0_12AnimationSetERNS_6memory9AllocatorE
1172:__ZN7mecanim9animation18CreateAnimationSetEjRNS_6memory9AllocatorE
1173:__ZN15dense_hashtableINSt3__24pairIKN11UnityEngine9Animation14GenericBindingENS3_10BoundIndexEEES4_NS3_25GenericBindingHashFunctorEN14dense_hash_mapIS4_S6_S8_NS3_30GenericBindingValueArrayUniqueE13stl_allocatorIS7_L18MemLabelIdentifier1ELi16EEE9SelectKeyESA_SD_E12resize_deltaEjj
1174:__ZN15dense_hashtableINSt3__24pairIKN11UnityEngine9Animation14GenericBindingENS3_10BoundIndexEEES4_NS3_25GenericBindingHashFunctorEN14dense_hash_mapIS4_S6_S8_NS3_30GenericBindingValueArrayUniqueE13stl_allocatorIS7_L18MemLabelIdentifier1ELi16EEE9SelectKeyESA_SD_E15insert_noresizeERKS7_
1175:__ZN24dense_hashtable_iteratorINSt3__24pairIKN11UnityEngine9Animation14GenericBindingENS3_10BoundIndexEEES4_NS3_25GenericBindingHashFunctorEN14dense_hash_mapIS4_S6_S8_NS3_30GenericBindingValueArrayUniqueE13stl_allocatorIS7_L18MemLabelIdentifier1ELi16EEE9SelectKeyESA_SD_E30advance_past_empty_and_deletedEv
1176:i32u-div
1177:__ZNSt3__26__sortIRN11UnityEngine9Animation11BindingSortEPNS_4pairINS2_14GenericBindingEPNS2_10BoundIndexEEEEEvT0_SB_T_
1178:__ZN11UnityEngine9Animation15IsMuscleBindingERKNS0_14GenericBindingE
1179:__ZNK15dense_hashtableINSt3__24pairIKN11UnityEngine9Animation14GenericBindingENS3_10BoundIndexEEES4_NS3_25GenericBindingHashFunctorEN14dense_hash_mapIS4_S6_S8_NS3_30GenericBindingValueArrayUniqueE13stl_allocatorIS7_L18MemLabelIdentifier1ELi16EEE9SelectKeyESA_SD_E23find_position_with_hashERS5_j
1180:__ZN7mecanim24CreateValueArrayConstantENS_9ValueTypeEjRNS_6memory9AllocatorE
1181:__ZN7mecanim6CRCKeyENS_7eStringE
1182:__ZN7mecanim9animation15HasMotionCurvesERKNS0_18ClipMuscleConstantE
1183:__ZN7mecanim9animation13HasRootCurvesERKNS0_18ClipMuscleConstantE
1184:__ZN12_GLOBAL__N_19InitTableEv
1185:__ZN11UnityEngine9AnimationltERKNS0_14GenericBindingES3_
1186:__ZNSt3__27__sort3IRN11UnityEngine9Animation11BindingSortEPNS_4pairINS2_14GenericBindingEPNS2_10BoundIndexEEEEEjT0_SB_SB_T_
1187:__ZNSt3__27__sort4IRN11UnityEngine9Animation11BindingSortEPNS_4pairINS2_14GenericBindingEPNS2_10BoundIndexEEEEEjT0_SB_SB_SB_T_
1188:__ZNSt3__27__sort5IRN11UnityEngine9Animation11BindingSortEPNS_4pairINS2_14GenericBindingEPNS2_10BoundIndexEEEEEjT0_SB_SB_SB_SB_T_
1189:__ZNSt3__218__insertion_sort_3IRN11UnityEngine9Animation11BindingSortEPNS_4pairINS2_14GenericBindingEPNS2_10BoundIndexEEEEEvT0_SB_T_
1190:__ZNSt3__227__insertion_sort_incompleteIRN11UnityEngine9Animation11BindingSortEPNS_4pairINS2_14GenericBindingEPNS2_10BoundIndexEEEEEbT0_SB_T_
1191:__ZN15dense_hashtableINSt3__24pairIKN11UnityEngine9Animation14GenericBindingENS3_10BoundIndexEEES4_NS3_25GenericBindingHashFunctorEN14dense_hash_mapIS4_S6_S8_NS3_30GenericBindingValueArrayUniqueE13stl_allocatorIS7_L18MemLabelIdentifier1ELi16EEE9SelectKeyESA_SD_E12maybe_shrinkEv
1192:__ZN15dense_hashtableINSt3__24pairIKN11UnityEngine9Animation14GenericBindingENS3_10BoundIndexEEES4_NS3_25GenericBindingHashFunctorEN14dense_hash_mapIS4_S6_S8_NS3_30GenericBindingValueArrayUniqueE13stl_allocatorIS7_L18MemLabelIdentifier1ELi16EEE9SelectKeyESA_SD_E9copy_fromERKSG_j
1193:__ZN26AnimatorControllerPlayable21SetAnimatorControllerEP25RuntimeAnimatorController
1194:__ZN26AnimatorControllerPlayable14AllocateMemoryEv
1195:__ZN26AnimatorControllerPlayable13GenerateGraphEv
1196:__ZN7mecanim12statemachine29SetStateMachineInInitialStateERKNS0_20StateMachineConstantERKNS0_17StateMachineInputERNS0_18StateMachineOutputERNS0_18StateMachineMemoryERNS0_21StateMachineWorkspaceE
1197:__ZN21AnimationClipPlayable6MemoryD0Ev
1198:__ZN21AnimationClipPlayableD2Ev
1199:__ZN21AnimationClipPlayableD0Ev
1200:__ZN8Playable17IsMultithreadableEv
1201:__ZN8Playable11SetDurationEd
1202:__ZNK8Playable11GetDurationEv
1203:__ZN21AnimationClipPlayable7SetTimeEd
1204:__ZNK8Playable7GetTimeEv
1205:__ZN21AnimationClipPlayable7GetTypeEv
1206:__ZN21AnimationClipPlayable11DerivesFromE17ScriptingClassPtr
1207:__ZN17AnimationPlayable19DeallocateResourcesEv
1208:__ZN21AnimationClipPlayable13OnAdvanceTimeEd
1209:__ZN17AnimationPlayable18SetInputConnectionEP8Playablei
1210:__ZN17AnimationPlayable25AnimationPlayableAllocateEP35AnimationPlayableEvaluationConstant
1211:__ZN21AnimationClipPlayable16ProcessAnimationEP35AnimationPlayableEvaluationConstantP32AnimationPlayableEvaluationInputP33AnimationPlayableEvaluationOutput
1212:__ZN21AnimationClipPlayable17GetAnimationClipsER13dynamic_arrayIP13AnimationClipLj4EE
1213:__ZN17AnimationPlayable19PreProcessAnimationEPK35AnimationPlayableEvaluationConstantPKN7mecanim9animation18AnimationNodeStateE
1214:__ZN21AnimationClipPlayable22PrepareAnimationEventsEfR13dynamic_arrayI22AnimationClipEventInfoLj4EE
1215:__ZN17AnimationPlayable34CollectAnimatorControllerPlayablesER13dynamic_arrayIP26AnimatorControllerPlayableLj4EE
1216:__ZN21AnimationClipPlayable29CollectAnimationClipPlayablesER13dynamic_arrayIPS_Lj4EE
1217:__ZN17AnimationPlayable13AddObjectUserER8UserList
1218:__ZN21AnimationClipPlayable16AllocateBindingsEPK35AnimationPlayableEvaluationConstant
1219:__ZN21AnimationClipPlayable18DeallocateBindingsEv
1220:__ZN17AnimationPlayable28ComputeNeedsBindingRebuildedEv
1221:__ZNK17AnimationPlayable15GetApplyMotionXEv
1222:__ZNK21AnimationClipPlayable8GetAssetEv
1223:__ZN21AnimationClipPlayable22SetStateMachineMessageEN7mecanim12statemachine19StateMachineMessageE
1224:__ZN7mecanim9animation17DestroyClipMemoryEPNS0_10ClipMemoryERNS_6memory9AllocatorE
1225:__ZNK13AnimationClip18IsMecanimDataValidEv
1226:__ZN7mecanim9animation17GetClipCurveCountERKNS0_18ClipMuscleConstantE
1227:__ZN7mecanim9animation16CreateClipMemoryEPKNS0_4ClipEiRNS_6memory9AllocatorE
1228:__ZN7mecanim9animation15ComputeClipTimeEffffbfRfS1_b
1229:__ZN7mecanim9animation16CreateClipOutputEPKNS0_4ClipERNS_6memory9AllocatorE
1230:__ZN7mecanim9animation12EvaluateClipEPKNS0_4ClipEPKNS0_9ClipInputEPNS0_10ClipMemoryEPNS0_10ClipOutputE
1231:__ZN7mecanim9animation18EvaluateRootMotionERKNS0_18ClipMuscleConstantERKNS0_15ClipMuscleInputEPKfS8_RNS0_12MotionOutputEb
1232:__ZN7mecanim9animation14ValuesFromClipERKNS_10ValueArrayERKNS0_18ClipMuscleConstantERKNS0_10ClipOutputERKNS0_12ClipBindingsEiRS1_RNS_14ValueArrayMaskEb
1233:__ZN7mecanim9animation14DeltasFromClipERKNS0_18ClipMuscleConstantERKNS0_12ClipBindingsERKNS_14ValueArrayMaskERNS_10ValueArrayESB_SB_
1234:__ZN7mecanim9animation17EvaluateHumanPoseERKNS0_18ClipMuscleConstantERKNS0_15ClipMuscleInputEPKfRKNS0_12MotionOutputERNS_5human9HumanPoseE
1235:__ZN7mecanim9animation12GetHumanPoseERKNS0_18ClipMuscleConstantEPKfRNS_5human9HumanPoseE
1236:__ZN7mecanim9animation12GetHumanPoseERKNS0_18ClipMuscleConstantEPKNS0_10ValueDeltaERNS_5human9HumanPoseE
1237:__ZN7mecanim5human15HumanPoseMirrorERNS0_9HumanPoseERKS1_
1238:__ZN7mecanim5human12HumanPoseSubERNS0_9HumanPoseERKS1_S4_
1239:__ZN7mecanim9animation17MotionOutputClearEPNS0_12MotionOutputE
1240:__ZN7mecanim8skeleton18CreateSkeletonPoseIN4math4trsXEEEPNS0_13SkeletonPoseTIT_EEPKNS0_8SkeletonERNS_6memory9AllocatorE
1241:__ZN7mecanim9animation19AdjustPoseForMotionERKNS0_14AvatarConstantERKNS0_14SkeletonTQSMapERKN4math4trsXERNS_10ValueArrayERNS_8skeleton13SkeletonPoseTIS8_EESG_
1242:__ZN7mecanim13ValueArraySubERKNS_10ValueArrayERS0_PKNS_14ValueArrayMaskE
1243:__ZN7mecanim14ValueArrayLoopERKNS_10ValueArrayES2_RS0_fRKNS_14ValueArrayMaskE
1244:__ZN7mecanim9animation30SkeletonPoseFromValueRecursiveERKNS_8skeleton8SkeletonERKNS1_13SkeletonPoseTIN4math4trsXEEERKNS_10ValueArrayEPKNS0_14SkeletonTQSMapEPKiRS8_ii
1245:__ZN7mecanim9animation30ValueFromSkeletonPoseRecursiveERKNS_8skeleton8SkeletonERKNS1_13SkeletonPoseTIN4math4trsXEEEPKNS0_14SkeletonTQSMapEPKiRNS_10ValueArrayEii
1246:__ZN7mecanim9animation12GetHumanPoseINS0_10ValueDeltaEEEvRKNS0_18ClipMuscleConstantEPKT_RNS_5human9HumanPoseE
1247:__ZN7mecanim9animation12GetHumanPoseIfEEvRKNS0_18ClipMuscleConstantEPKT_RNS_5human9HumanPoseE
1248:__ZN7mecanim5human15HumanPoseWeightERNS0_9HumanPoseERKS1_f
1249:__ZN7mecanim5human12HumanPoseAddERNS0_9HumanPoseERKS1_S4_
1250:__ZN7mecanim9animation13GetClipStartXERKNS0_18ClipMuscleConstantEi
1251:__ZN7mecanim9animation12GetClipStopXERKNS0_18ClipMuscleConstantEi
1252:__ZN7mecanim9animation9GetCycleXERKN4math4trsXES4_S4_if
1253:__ZN7mecanim9animation11xformPrePowERKN4math4trsXEi
1254:__ZN7mecanim9animation10SampleClipERKNS0_12StreamedClipERNS0_18StreamedClipMemoryEfPf
1255:__ZN7mecanim9animation8SeekClipERKNS0_12StreamedClipERNS0_18StreamedClipMemoryEf
1256:__ZN17AnimationPlayable7GetTypeEv
1257:__ZN17AnimationPlayable11DerivesFromE17ScriptingClassPtr
1258:__ZN21AnimationPosePlayable16ProcessAnimationEP35AnimationPlayableEvaluationConstantP32AnimationPlayableEvaluationInputP33AnimationPlayableEvaluationOutput
1259:__ZN17AnimationPlayable17GetAnimationClipsER13dynamic_arrayIP13AnimationClipLj4EE
1260:__ZN21AnimationPosePlayable19PreProcessAnimationEPK35AnimationPlayableEvaluationConstantPKN7mecanim9animation18AnimationNodeStateE
1261:__ZN17AnimationPlayable22PrepareAnimationEventsEfR13dynamic_arrayI22AnimationClipEventInfoLj4EE
1262:__ZN17AnimationPlayable29CollectAnimationClipPlayablesER13dynamic_arrayIP21AnimationClipPlayableLj4EE
1263:__ZN21AnimationPosePlayable16AllocateBindingsEPK35AnimationPlayableEvaluationConstant
1264:__ZN21AnimationPosePlayable18DeallocateBindingsEv
1265:__ZN7mecanim9animation25DestroyAnimationNodeStateEPNS0_18AnimationNodeStateERNS_6memory9AllocatorE
1266:__ZN7mecanim9animation22CopyAnimationNodeStateEPKNS0_18AnimationNodeStateEPS1_bbRKNS_6bitsetILj70EEE
1267:__ZN7mecanim13CopyValueMaskEPNS_14ValueArrayMaskEPKS0_
1268:__ZN7mecanim5human13HumanPoseCopyERNS0_9HumanPoseERKS1_RKNS_6bitsetILj70EEE
1269:__ZN22AnimationMixerPlayable7GetTypeEv
1270:__ZN22AnimationMixerPlayable11DerivesFromE17ScriptingClassPtr
1271:__ZN22AnimationMixerPlayable16ProcessAnimationEP35AnimationPlayableEvaluationConstantP32AnimationPlayableEvaluationInputP33AnimationPlayableEvaluationOutput
1272:__ZN17AnimationPlayable16AllocateBindingsEPK35AnimationPlayableEvaluationConstant
1273:__ZN17AnimationPlayable18DeallocateBindingsEv
1274:__ZN7mecanim20ValueArrayBlendBeginERNS_14ValueArrayMaskE
1275:__ZN7mecanim9animation22MotionOutputBlendBeginEPNS0_12MotionOutputEbb
1276:__ZN7mecanim5human19HumanPoseBlendBeginERNS0_9HumanPoseE
1277:__ZN7mecanim22CreateValueArrayWeightEPKNS_18ValueArrayConstantERNS_6memory9AllocatorE
1278:__ZN7mecanim19ValueArrayBlendNodeERNS_10ValueArrayERNS_16ValueArrayWeightERNS_14ValueArrayMaskERKS0_RKS4_f
1279:__ZN7mecanim9animation21MotionOutputBlendNodeEPNS0_12MotionOutputES2_fbbRKNS_6bitsetILj70EEE
1280:__ZN7mecanim5human18HumanPoseBlendNodeERNS0_9HumanPoseEPS1_f
1281:__ZN7mecanim18ValueArrayBlendEndERNS_10ValueArrayERKNS_14ValueArrayMaskERKNS_16ValueArrayWeightEPKS0_
1282:__ZN7mecanim9animation20MotionOutputBlendEndEPNS0_12MotionOutputEbbRKNS_6bitsetILj70EEERf
1283:__ZN7mecanim5human17HumanPoseBlendEndERNS0_9HumanPoseERf
1284:__ZN34AnimationStateMachineMixerPlayable11DerivesFromE17ScriptingClassPtr
1285:__ZN27AnimationLayerMixerPlayableD2Ev
1286:__ZN27AnimationLayerMixerPlayableD0Ev
1287:__ZN27AnimationLayerMixerPlayable14SetInputWeightEif
1288:__ZN27AnimationLayerMixerPlayable7GetTypeEv
1289:__ZN27AnimationLayerMixerPlayable11DerivesFromE17ScriptingClassPtr
1290:__ZN27AnimationLayerMixerPlayable18SetInputConnectionEP8Playablei
1291:__ZN27AnimationLayerMixerPlayable16ProcessAnimationEP35AnimationPlayableEvaluationConstantP32AnimationPlayableEvaluationInputP33AnimationPlayableEvaluationOutput
1292:__ZN27AnimationLayerMixerPlayable22PrepareAnimationEventsEfR13dynamic_arrayI22AnimationClipEventInfoLj4EE
1293:__ZN27AnimationLayerMixerPlayable16AllocateBindingsEPK35AnimationPlayableEvaluationConstant
1294:__ZN27AnimationLayerMixerPlayable18DeallocateBindingsEv
1295:__ZN27AnimationLayerMixerPlayable13ClearBindingsEv
1296:__ZN27AnimationLayerMixerPlayable13GetParametersEj
1297:__ZN27AnimationLayerMixerPlayable6Memory20CreateNodeStateArrayEiRKN7mecanim18ValueArrayConstantEbbbRNS1_6memory9AllocatorE
1298:__ZN7mecanim12AndValueMaskEPNS_14ValueArrayMaskEPKS0_
1299:__ZN7mecanim5human14HumanPoseClearERNS0_9HumanPoseERKNS_6bitsetILj70EEE
1300:__ZN17AnimationPlayable16ProcessAnimationEP35AnimationPlayableEvaluationConstantP32AnimationPlayableEvaluationInputP33AnimationPlayableEvaluationOutput
1301:__ZN7mecanim9animation21CreateControllerInputEPKNS0_18ControllerConstantERNS_6memory9AllocatorE
1302:__ZN7mecanim9animation22CreateControllerMemoryEPKNS0_18ControllerConstantERNS_6memory9AllocatorE
1303:__ZN7mecanim9animation25CreateControllerWorkspaceEPKNS0_18ControllerConstantERNS_6memory9AllocatorE
1304:__ZN7mecanim12statemachine24CreateStateMachineOutputEPKNS0_20StateMachineConstantEjRNS_6memory9AllocatorE
1305:__ZN7mecanim12statemachine27CreateStateMachineWorkspaceEPKNS0_20StateMachineConstantEjRNS_6memory9AllocatorE
1306:__ZN7mecanim12statemachine20GetBlendTreeConstantERKNS0_13StateConstantEi
1307:__ZN7mecanim12statemachine20CreateStateWorkspaceEjjjRNS_6memory9AllocatorE
1308:__ZN7mecanim9animation20CreateBlendTreeInputERNS_6memory9AllocatorE
1309:__ZN7mecanim9animation21CreateBlendTreeOutputEjRNS_6memory9AllocatorE
1310:__ZN7mecanim9animation24CreateBlendTreeWorkspaceEjRNS_6memory9AllocatorE
1311:__ZN7mecanim12statemachine24CreateStateMachineMemoryEPKNS0_20StateMachineConstantERNS_6memory9AllocatorE
1312:__ZN26AnimatorControllerPlayableC2E18DirectorPlayerType
1313:__ZN27StateMachineBehaviourPlayerC2EP28IStateMachineBehaviourSender
1314:__ZN26AnimatorControllerPlayableD2Ev
1315:__ZN26AnimatorControllerPlayableD0Ev
1316:__ZN26AnimatorControllerPlayable17IsMultithreadableEv
1317:__ZN26AnimatorControllerPlayable12PrepareFrameERK19DirectorVisitorInfo
1318:__ZN26AnimatorControllerPlayable12SetPlayStateE9PlayState
1319:__ZN26AnimatorControllerPlayable7GetTypeEv
1320:__ZN26AnimatorControllerPlayable11DerivesFromE17ScriptingClassPtr
1321:__ZN26AnimatorControllerPlayable19DeallocateResourcesEv
1322:__ZN26AnimatorControllerPlayable16ProcessAnimationEP35AnimationPlayableEvaluationConstantP32AnimationPlayableEvaluationInputP33AnimationPlayableEvaluationOutput
1323:__ZN26AnimatorControllerPlayable17GetAnimationClipsER13dynamic_arrayIP13AnimationClipLj4EE
1324:__ZN26AnimatorControllerPlayable19PreProcessAnimationEPK35AnimationPlayableEvaluationConstantPKN7mecanim9animation18AnimationNodeStateE
1325:__ZN26AnimatorControllerPlayable34CollectAnimatorControllerPlayablesER13dynamic_arrayIPS_Lj4EE
1326:__ZN26AnimatorControllerPlayable13AddObjectUserER8UserList
1327:__ZN26AnimatorControllerPlayable16AllocateBindingsEPK35AnimationPlayableEvaluationConstant
1328:__ZN26AnimatorControllerPlayable18DeallocateBindingsEv
1329:__ZNK26AnimatorControllerPlayable8GetAssetEv
1330:__ZN26AnimatorControllerPlayable27SetupStateMachineBehavioursEv
1331:__ZN26AnimatorControllerPlayable29CleanupStateMachineBehavioursEv
1332:__ZN26AnimatorControllerPlayable8GetFloatEiRf
1333:__ZN26AnimatorControllerPlayable8SetFloatEiRKf
1334:__ZN26AnimatorControllerPlayable10GetIntegerEiRi
1335:__ZN26AnimatorControllerPlayable10SetIntegerEiRKi
1336:__ZN26AnimatorControllerPlayable7GetBoolEiRb
1337:__ZN26AnimatorControllerPlayable7SetBoolEiRKb
1338:__ZN26AnimatorControllerPlayable12ResetTriggerEi
1339:__ZN26AnimatorControllerPlayable10SetTriggerEi
1340:__ZNK26AnimatorControllerPlayable24HasStateMachineBehaviourEv
1341:__ZNK26AnimatorControllerPlayable25GetStateMachineBehavioursEv
1342:__ZNK26AnimatorControllerPlayable41GetStateMachineBehaviourVectorDescriptionEv
1343:__ZNK26AnimatorControllerPlayable13IsInitializedEv
1344:__ZThn144_NK26AnimatorControllerPlayable13IsInitializedEv
1345:__ZThn144_NK26AnimatorControllerPlayable24HasStateMachineBehaviourEv
1346:__ZThn144_NK26AnimatorControllerPlayable25GetStateMachineBehavioursEv
1347:__ZThn144_NK26AnimatorControllerPlayable41GetStateMachineBehaviourVectorDescriptionEv
1348:__ZN7mecanim21ValueArrayReverseCopyEPKNS_18ValueArrayConstantEPKNS_10ValueArrayES2_PS3_PKi
1349:__ZN7mecanim14ValueArrayCopyEPKNS_18ValueArrayConstantEPKNS_10ValueArrayES2_PS3_PKi
1350:__ZN7mecanim9animation22DestroyControllerInputEPNS0_15ControllerInputERNS_6memory9AllocatorE
1351:__ZN7mecanim9animation26DestroyControllerWorkspaceEPNS0_19ControllerWorkspaceERNS_6memory9AllocatorE
1352:__ZN7mecanim12statemachine28DestroyStateMachineWorkspaceEPNS0_21StateMachineWorkspaceERNS_6memory9AllocatorE
1353:__ZN7mecanim12statemachine21DestroyStateWorkspaceEPNS0_14StateWorkspaceERNS_6memory9AllocatorE
1354:__ZN7mecanim9animation25DestroyBlendTreeWorkspaceEPNS0_18BlendTreeWorkspaceERNS_6memory9AllocatorE
1355:__ZN26AnimatorControllerPlayable12PrepareFrameERK9FrameDataP8Playableb
1356:__ZN13PlayableGraph12CreateOutputI23AnimationPlayableOutputEEPT_PKcR15HPlayableOutput
1357:__ZN23AnimationPlayableOutput17SetTargetAnimatorEP8Animator
1358:__ZN8Animator16OnPlayableUnbindEP8Playablei
1359:__ZN8Animator14OnPlayableBindEP8Playablei
1360:__ZN8Animator13ClearBindingsEv
1361:__ZN8Animator28BuildControllerPlayableCacheEv
1362:__ZN17AnimationPlayable28UpdateInternalStateRecursiveILi1ELb0EEEvPK35AnimationPlayableEvaluationConstant
1363:__ZN23AnimationPlayableOutputC2EjP13PlayableGraph
1364:__ZN14PlayableOutputD2Ev
1365:__ZN23AnimationPlayableOutput7DestroyEv
1366:__ZNK23AnimationPlayableOutput9GetStagesER13dynamic_arrayI16StageDescriptionLj4EE
1367:__ZN23AnimationPlayableOutput17SetSourcePlayableEP8Playable
1368:__ZN23AnimationPlayableOutput17OnPlayerDestroyedEP6Object
1369:__ZN23AnimationPlayableOutput22OnConnectionHashChangeEv
1370:__ZN8Animator22OnGraphTopologyChangedEP8Playablei
1371:__ZN8Animator25WriteDefaultValuesNoDirtyEv
1372:__ZN8Animator13BatchedFKPassERK13dynamic_arrayIP14PlayableOutputLj4EE
1373:__ZN8Animator13BatchedIKPassERK13dynamic_arrayIP14PlayableOutputLj4EE
1374:__ZN8Animator18SetupAvatarDataSetEPKN7mecanim9animation14AvatarConstantERNS_13AvatarDataSetEb
1375:__ZN7mecanim9animation20CreateAvatarConstantEPNS_8skeleton8SkeletonEPNS1_13SkeletonPoseTIN4math4trsXEEES8_PNS_5human5HumanES3_iRKS6_RNS_6memory9AllocatorE
1376:__ZN7mecanim9animation18CreateAvatarMemoryEPKNS0_14AvatarConstantERNS_6memory9AllocatorE
1377:__ZN7mecanim9animation17CreateAvatarInputEPKNS0_14AvatarConstantERNS_6memory9AllocatorE
1378:__ZN7mecanim9animation21CreateAvatarWorkspaceEPKNS0_14AvatarConstantERNS_6memory9AllocatorE
1379:__ZN7mecanim9animation18CreateAvatarOutputEPKNS0_14AvatarConstantEbbRNS_6memory9AllocatorE
1380:__ZN11UnityEngine9Animation27CreateAvatarBindingConstantER9TransformPKN7mecanim9animation14AvatarConstantERNS3_6memory9AllocatorE
1381:__ZN11UnityEngine9Animation30CreateAvatarBindingConstantOptER9TransformPKN7mecanim9animation14AvatarConstantERNS3_6memory9AllocatorE
1382:__ZN11UnityEngine9Animation28RegisterAvatarBindingObjectsEPNS0_21AvatarBindingConstantE
1383:__ZN11UnityEngine9Animation21AvatarBindingCallbackEPvS1_i
1384:__ZN7mecanim8skeleton18CreateSkeletonPoseIN4math7affineXEEEPNS0_13SkeletonPoseTIT_EEPKNS0_8SkeletonERNS_6memory9AllocatorE
1385:__ZN7mecanim8skeleton23SkeletonBuildIndexArrayEPiPKNS0_8SkeletonES4_
1386:__ZN7mecanim8skeleton30SkeletonBuildReverseIndexArrayEPiPKiPKNS0_8SkeletonES6_
1387:__ZN8Animator13AvatarDataSet5ResetEv
1388:__ZN7mecanim9animation21DestroyAvatarConstantEPNS0_14AvatarConstantERNS_6memory9AllocatorE
1389:__ZN7mecanim9animation19DestroyAvatarOutputEPNS0_12AvatarOutputERNS_6memory9AllocatorE
1390:__ZN7mecanim9animation22DestroyAvatarWorkspaceEPNS0_15AvatarWorkspaceERNS_6memory9AllocatorE
1391:__ZN11UnityEngine9Animation28DestroyAvatarBindingConstantEPNS0_21AvatarBindingConstantERN7mecanim6memory9AllocatorE
1392:__ZN8Animator8TransferI14SafeBinaryReadEEvRT_
1393:__ZN8Animator8TransferI24GenerateTypeTreeTransferEEvRT_
1394:__ZN8Animator8TransferI18StreamedBinaryReadILb0EEEEvRT_
1395:__ZN8Animator8TransferI19StreamedBinaryWriteILb0EEEEvRT_
1396:__ZN8Animator6RebindEb
1397:__ZN8Animator34RecomputeContainedRenderersRecurseER9Transform
1398:__ZN8Animator31ClearInternalControllerPlayableEv
1399:__ZN25RuntimeAnimatorController23DestroyCustomControllerEPN7mecanim9animation18ControllerConstantERNS0_6memory9AllocatorE
1400:__ZN7mecanim9animation24DestroyBlendTreeConstantEPNS0_17BlendTreeConstantERNS_6memory9AllocatorE
1401:__ZN7mecanim12statemachine20DestroyStateConstantEPNS0_13StateConstantERNS_6memory9AllocatorE
1402:__ZN7mecanim9animation25DestroyControllerConstantEPNS0_18ControllerConstantERNS_6memory9AllocatorE
1403:__ZN7mecanim9animation28DestroyBlendTreeNodeConstantEPNS0_21BlendTreeNodeConstantERNS_6memory9AllocatorE
1404:__ZN14AvatarPlaybackD2Ev
1405:__ZN14AvatarPlaybackD0Ev
1406:__ZN18AnimatorControllerD2Ev
1407:__ZN18AnimatorControllerD0Ev
1408:__ZN18AnimatorController17MainThreadCleanupEv
1409:__ZN18AnimatorController13AwakeFromLoadE17AwakeFromLoadMode
1410:__ZNK18AnimatorController26GetTypeInfoVirtualInternalEv
1411:__ZN18AnimatorController23VirtualRedirectTransferER19StreamedBinaryWriteILb0EE
1412:__ZN18AnimatorController23VirtualRedirectTransferER18StreamedBinaryReadILb0EE
1413:__ZN18AnimatorController23VirtualRedirectTransferER17RemapPPtrTransfer
1414:__ZN18AnimatorController23VirtualRedirectTransferER24GenerateTypeTreeTransfer
1415:__ZN18AnimatorController23VirtualRedirectTransferER14SafeBinaryRead
1416:__ZN18AnimatorController8GetAssetEb
1417:__ZN18AnimatorController23GetAnimationSetBindingsEv
1418:__ZNK18AnimatorController17GetAnimationClipsEv
1419:__ZNK18AnimatorController12StringFromIDEj
1420:__ZNK18AnimatorController41GetStateMachineBehaviourVectorDescriptionEv
1421:__ZNK18AnimatorController28HasMultiThreadedStateMachineEv
1422:__ZN25RuntimeAnimatorController22RegisterAnimationClipsEv
1423:__ZNK18AnimatorController27GetAnimationClipsToRegisterEv
1424:__ZN25RuntimeAnimatorController8TransferI14SafeBinaryReadEEvRT_
1425:__ZN18AnimatorController19TransferRuntimeDataI14SafeBinaryReadEEvRT_
1426:__Z21TransferBlobSerializeIN7mecanim9animation18ControllerConstantE14SafeBinaryReadEvRPT_PKcRjS8_RT0_
1427:__ZN14SafeBinaryRead19TransferSTLStyleMapINSt3__23mapIjN4core12basic_stringIcNS3_20StringStorageDefaultIcEEEENS1_4lessIjEENS1_9allocatorINS1_4pairIKjS7_EEEEEEEEvRT_17TransferMetaFlags
1428:__ZN14SafeBinaryRead21TransferSTLStyleArrayI13dynamic_arrayI4PPtrI13AnimationClipELj4EEEEvRT_17TransferMetaFlags
1429:__ZN38StateMachineBehaviourVectorDescription8TransferI14SafeBinaryReadEEvRT_
1430:__ZN14SafeBinaryRead21TransferSTLStyleArrayI13dynamic_arrayI4PPtrI13MonoBehaviourELj4EEEEvRT_17TransferMetaFlags
1431:__ZN14SafeBinaryRead21TransferSTLStyleArrayI10vector_mapI8StateKey10StateRangeNSt3__24lessIS2_EENS4_9allocatorINS4_4pairIS2_S3_EEEEEEEvRT_17TransferMetaFlags
1432:__ZN14SafeBinaryRead21TransferSTLStyleArrayI13dynamic_arrayIjLj4EEEEvRT_17TransferMetaFlags
1433:__ZNSt3__26vectorINS_4pairI8StateKey10StateRangeEENS_9allocatorIS4_EEE8__appendEj
1434:__ZN15SerializeTraitsINSt3__24pairI8StateKey10StateRangeEEE8TransferI14SafeBinaryReadEEvRS4_RT_
1435:__ZN8StateKey8TransferI14SafeBinaryReadEEvRT_
1436:__ZN10StateRange8TransferI14SafeBinaryReadEEvRT_
1437:__ZNSt3__26__treeINS_12__value_typeIjN4core12basic_stringIcNS2_20StringStorageDefaultIcEEEEEENS_19__map_value_compareIjS7_NS_4lessIjEELb1EEENS_9allocatorIS7_EEE7destroyEPNS_11__tree_nodeIS7_PvEE
1438:__ZN15SerializeTraitsINSt3__24pairIjN4core12basic_stringIcNS2_20StringStorageDefaultIcEEEEEEE8TransferI14SafeBinaryReadEEvRS7_RT_
1439:__ZN7mecanim9animation18ControllerConstant8TransferI14SafeBinaryReadEEvRT_
1440:__ZN14SafeBinaryRead21TransferSTLStyleArrayI22OffsetPtrArrayTransferI9OffsetPtrIN7mecanim9animation13LayerConstantEEEEEvRT_17TransferMetaFlags
1441:__ZN14SafeBinaryRead21TransferSTLStyleArrayI22OffsetPtrArrayTransferI9OffsetPtrIN7mecanim12statemachine20StateMachineConstantEEEEEvRT_17TransferMetaFlags
1442:__ZN7mecanim10ValueArray8TransferI14SafeBinaryReadEEvRT_
1443:__ZN14SafeBinaryRead21TransferSTLStyleArrayI22OffsetPtrArrayTransferIKN4math7_float3EEEEvRT_17TransferMetaFlags
1444:__ZN14SafeBinaryRead21TransferSTLStyleArrayI22OffsetPtrArrayTransferIKN4math7_float4EEEEvRT_17TransferMetaFlags
1445:__ZN14SafeBinaryRead21TransferSTLStyleArrayI22OffsetPtrArrayTransferIiEEEvRT_17TransferMetaFlags
1446:__ZN14SafeBinaryRead21TransferSTLStyleArrayI22OffsetPtrArrayTransferIbEEEvRT_17TransferMetaFlags
1447:__ZN7mecanim12statemachine20StateMachineConstant8TransferI14SafeBinaryReadEEvRT_
1448:__ZN14SafeBinaryRead21TransferSTLStyleArrayI22OffsetPtrArrayTransferI9OffsetPtrIN7mecanim12statemachine13StateConstantEEEEEvRT_17TransferMetaFlags
1449:__ZN14SafeBinaryRead21TransferSTLStyleArrayI22OffsetPtrArrayTransferI9OffsetPtrIN7mecanim12statemachine18TransitionConstantEEEEEvRT_17TransferMetaFlags
1450:__ZN14SafeBinaryRead21TransferSTLStyleArrayI22OffsetPtrArrayTransferI9OffsetPtrIN7mecanim12statemachine21SelectorStateConstantEEEEEvRT_17TransferMetaFlags
1451:__ZN7mecanim12statemachine21SelectorStateConstant8TransferI14SafeBinaryReadEEvRT_
1452:__ZN14SafeBinaryRead21TransferSTLStyleArrayI22OffsetPtrArrayTransferI9OffsetPtrIN7mecanim12statemachine26SelectorTransitionConstantEEEEEvRT_17TransferMetaFlags
1453:__ZN7mecanim12statemachine26SelectorTransitionConstant8TransferI14SafeBinaryReadEEvRT_
1454:__ZN14SafeBinaryRead21TransferSTLStyleArrayI22OffsetPtrArrayTransferI9OffsetPtrIN7mecanim12statemachine17ConditionConstantEEEEEvRT_17TransferMetaFlags
1455:__ZN7mecanim12statemachine17ConditionConstant8TransferI14SafeBinaryReadEEvRT_
1456:__ZN7mecanim12statemachine18TransitionConstant8TransferI14SafeBinaryReadEEvRT_
1457:__ZN7mecanim12statemachine13StateConstant8TransferI14SafeBinaryReadEEvRT_
1458:__ZN14SafeBinaryRead21TransferSTLStyleArrayI22OffsetPtrArrayTransferI9OffsetPtrIN7mecanim9animation17BlendTreeConstantEEEEEvRT_17TransferMetaFlags
1459:__ZN7mecanim12statemachine13StateConstant39Transfer_Pre_5_2_BackwardsCompatibilityI14SafeBinaryReadEEvRT_
1460:__ZN14SafeBinaryRead21TransferSTLStyleArrayI22OffsetPtrArrayTransferIN7mecanim12statemachine16LeafInfoConstantEEEEvRT_17TransferMetaFlags
1461:__ZN15SerializeTraitsIN7mecanim12statemachine16LeafInfoConstantEE8TransferI14SafeBinaryReadEEvRS2_RT_
1462:__ZN14SafeBinaryRead8TransferIN7mecanim9animation17BlendTreeConstantEEEvRT_PKc17TransferMetaFlags
1463:__ZN14SafeBinaryRead21TransferSTLStyleArrayI22OffsetPtrArrayTransferI9OffsetPtrIN7mecanim9animation21BlendTreeNodeConstantEEEEEvRT_17TransferMetaFlags
1464:__ZN7mecanim9animation21BlendTreeNodeConstant8TransferI14SafeBinaryReadEEvRT_
1465:__ZN14SafeBinaryRead8TransferIN7mecanim9animation19Blend1dDataConstantEEEvRT_PKc17TransferMetaFlags
1466:__ZN7mecanim9animation19Blend2dDataConstant8TransferI14SafeBinaryReadEEvRT_
1467:__ZN7mecanim9animation23BlendDirectDataConstant8TransferI14SafeBinaryReadEEvRT_
1468:__ZN7mecanim9animation21BlendTreeNodeConstant35Transfer_4_0_BackwardsCompatibilityI14SafeBinaryReadEEvRT_
1469:__ZN14SafeBinaryRead21TransferSTLStyleArrayI22OffsetPtrArrayTransferI8Vector2fEEEvRT_17TransferMetaFlags
1470:__ZN14SafeBinaryRead21TransferSTLStyleArrayI22OffsetPtrArrayTransferIN7mecanim9animation18MotionNeighborListEEEEvRT_17TransferMetaFlags
1471:__ZN8Vector2f8TransferI14SafeBinaryReadEEvRT_
1472:__ZN7mecanim9animation13LayerConstant8TransferI14SafeBinaryReadEEvRT_
1473:__ZN15SerializeTraitsIN7mecanim6bitsetILj70EEEE8TransferI14SafeBinaryReadEEvRS2_RT_
1474:__ZN14SafeBinaryRead8TransferIN7mecanim8skeleton12SkeletonMaskEEEvRT_PKc17TransferMetaFlags
1475:__ZN14SafeBinaryRead21TransferSTLStyleArrayI22OffsetPtrArrayTransferIN7mecanim8skeleton19SkeletonMaskElementEEEEvRT_17TransferMetaFlags
1476:__ZN7mecanim8skeleton19SkeletonMaskElement8TransferI14SafeBinaryReadEEvRT_
1477:__ZN25RuntimeAnimatorController8TransferI24GenerateTypeTreeTransferEEvRT_
1478:__ZN18AnimatorController19TransferRuntimeDataI24GenerateTypeTreeTransferEEvRT_
1479:__ZN7mecanim9animation18ControllerConstant8TransferI24GenerateTypeTreeTransferEEvRT_
1480:__ZN15SerializeTraitsINSt3__23mapIjN4core12basic_stringIcNS2_20StringStorageDefaultIcEEEENS0_4lessIjEENS0_9allocatorINS0_4pairIKjS6_EEEEEEE8TransferI24GenerateTypeTreeTransferEEvRSE_RT_
1481:__ZN38StateMachineBehaviourVectorDescription8TransferI24GenerateTypeTreeTransferEEvRT_
1482:__ZN15SerializeTraitsINSt3__24pairI8StateKey10StateRangeEEE8TransferI24GenerateTypeTreeTransferEEvRS4_RT_
1483:__ZN7mecanim9animation13LayerConstant8TransferI24GenerateTypeTreeTransferEEvRT_
1484:__ZN7mecanim12statemachine20StateMachineConstant8TransferI24GenerateTypeTreeTransferEEvRT_
1485:__ZN7mecanim10ValueArray8TransferI24GenerateTypeTreeTransferEEvRT_
1486:__ZN7mecanim12statemachine13StateConstant8TransferI24GenerateTypeTreeTransferEEvRT_
1487:__ZN7mecanim12statemachine18TransitionConstant8TransferI24GenerateTypeTreeTransferEEvRT_
1488:__ZN7mecanim12statemachine21SelectorStateConstant8TransferI24GenerateTypeTreeTransferEEvRT_
1489:__ZN15SerializeTraitsI9OffsetPtrIN7mecanim12statemachine26SelectorTransitionConstantEEE8TransferI24GenerateTypeTreeTransferEEvRS4_RT_
1490:__ZN15SerializeTraitsI9OffsetPtrIN7mecanim12statemachine17ConditionConstantEEE8TransferI24GenerateTypeTreeTransferEEvRS4_RT_
1491:__ZN15SerializeTraitsI9OffsetPtrIN7mecanim9animation17BlendTreeConstantEEE8TransferI24GenerateTypeTreeTransferEEvRS4_RT_
1492:__ZN7mecanim9animation21BlendTreeNodeConstant8TransferI24GenerateTypeTreeTransferEEvRT_
1493:__ZN7mecanim9animation19Blend2dDataConstant8TransferI24GenerateTypeTreeTransferEEvRT_
1494:__ZN15SerializeTraitsI9OffsetPtrIN7mecanim9animation23BlendDirectDataConstantEEE8TransferI24GenerateTypeTreeTransferEEvRS4_RT_
1495:__Z17TransferOffsetPtrI9OffsetPtrIN7mecanim9animation18MotionNeighborListEE24GenerateTypeTreeTransferEvRT_PKcRjRT0_
1496:__ZN24GenerateTypeTreeTransfer8TransferIN7mecanim8skeleton12SkeletonMaskEEEvRT_PKc17TransferMetaFlags
1497:__ZN25RuntimeAnimatorController8TransferI17RemapPPtrTransferEEvRT_
1498:__ZN25RuntimeAnimatorController8TransferI18StreamedBinaryReadILb0EEEEvRT_
1499:__ZN18AnimatorController19TransferRuntimeDataI18StreamedBinaryReadILb0EEEEvRT_
1500:__ZN7mecanim9animation18ControllerConstant8TransferI18StreamedBinaryReadILb0EEEEvRT_
1501:__ZN18StreamedBinaryReadILb0EE19TransferSTLStyleMapINSt3__23mapIjN4core12basic_stringIcNS4_20StringStorageDefaultIcEEEENS2_4lessIjEENS2_9allocatorINS2_4pairIKjS8_EEEEEEEEvRT_17TransferMetaFlags
1502:__ZN18StreamedBinaryReadILb0EE21TransferSTLStyleArrayI10vector_mapI8StateKey10StateRangeNSt3__24lessIS3_EENS5_9allocatorINS5_4pairIS3_S4_EEEEEEEvRT_17TransferMetaFlags
1503:__ZN18StreamedBinaryReadILb0EE21TransferSTLStyleArrayI22OffsetPtrArrayTransferI9OffsetPtrIN7mecanim9animation13LayerConstantEEEEEvRT_17TransferMetaFlags
1504:__ZN18StreamedBinaryReadILb0EE21TransferSTLStyleArrayI22OffsetPtrArrayTransferI9OffsetPtrIN7mecanim12statemachine20StateMachineConstantEEEEEvRT_17TransferMetaFlags
1505:__ZN7mecanim10ValueArray8TransferI18StreamedBinaryReadILb0EEEEvRT_
1506:__ZN18StreamedBinaryReadILb0EE21TransferSTLStyleArrayI22OffsetPtrArrayTransferIKN4math7_float3EEEEvRT_17TransferMetaFlags
1507:__ZN7mecanim12statemachine20StateMachineConstant8TransferI18StreamedBinaryReadILb0EEEEvRT_
1508:__ZN18StreamedBinaryReadILb0EE21TransferSTLStyleArrayI22OffsetPtrArrayTransferI9OffsetPtrIN7mecanim12statemachine13StateConstantEEEEEvRT_17TransferMetaFlags
1509:__ZN18StreamedBinaryReadILb0EE21TransferSTLStyleArrayI22OffsetPtrArrayTransferI9OffsetPtrIN7mecanim12statemachine18TransitionConstantEEEEEvRT_17TransferMetaFlags
1510:__ZN15SerializeTraitsI9OffsetPtrIN7mecanim12statemachine21SelectorStateConstantEEE8TransferI18StreamedBinaryReadILb0EEEEvRS4_RT_
1511:__ZN18StreamedBinaryReadILb0EE21TransferSTLStyleArrayI22OffsetPtrArrayTransferI9OffsetPtrIN7mecanim12statemachine26SelectorTransitionConstantEEEEEvRT_17TransferMetaFlags
1512:__ZN18StreamedBinaryReadILb0EE21TransferSTLStyleArrayI22OffsetPtrArrayTransferI9OffsetPtrIN7mecanim12statemachine17ConditionConstantEEEEEvRT_17TransferMetaFlags
1513:__ZN7mecanim12statemachine18TransitionConstant8TransferI18StreamedBinaryReadILb0EEEEvRT_
1514:__ZN7mecanim12statemachine13StateConstant8TransferI18StreamedBinaryReadILb0EEEEvRT_
1515:__ZN18StreamedBinaryReadILb0EE21TransferSTLStyleArrayI22OffsetPtrArrayTransferI9OffsetPtrIN7mecanim9animation17BlendTreeConstantEEEEEvRT_17TransferMetaFlags
1516:__ZN18StreamedBinaryReadILb0EE21TransferSTLStyleArrayI22OffsetPtrArrayTransferI9OffsetPtrIN7mecanim9animation21BlendTreeNodeConstantEEEEEvRT_17TransferMetaFlags
1517:__ZN7mecanim9animation21BlendTreeNodeConstant8TransferI18StreamedBinaryReadILb0EEEEvRT_
1518:__ZN15SerializeTraitsI9OffsetPtrIN7mecanim9animation19Blend1dDataConstantEEE8TransferI18StreamedBinaryReadILb0EEEEvRS4_RT_
1519:__ZN7mecanim9animation19Blend2dDataConstant8TransferI18StreamedBinaryReadILb0EEEEvRT_
1520:__ZN7mecanim9animation23BlendDirectDataConstant8TransferI18StreamedBinaryReadILb0EEEEvRT_
1521:__ZN18StreamedBinaryReadILb0EE21TransferSTLStyleArrayI22OffsetPtrArrayTransferIN7mecanim9animation18MotionNeighborListEEEEvRT_17TransferMetaFlags
1522:__ZN7mecanim9animation13LayerConstant8TransferI18StreamedBinaryReadILb0EEEEvRT_
1523:__ZN25RuntimeAnimatorController8TransferI19StreamedBinaryWriteILb0EEEEvRT_
1524:__ZN18AnimatorController19TransferRuntimeDataI19StreamedBinaryWriteILb0EEEEvRT_
1525:__ZN7mecanim9animation18ControllerConstant8TransferI19StreamedBinaryWriteILb0EEEEvRT_
1526:__ZN19StreamedBinaryWriteILb0EE19TransferSTLStyleMapINSt3__23mapIjN4core12basic_stringIcNS4_20StringStorageDefaultIcEEEENS2_4lessIjEENS2_9allocatorINS2_4pairIKjS8_EEEEEEEEvRT_17TransferMetaFlags
1527:__ZN38StateMachineBehaviourVectorDescription8TransferI19StreamedBinaryWriteILb0EEEEvRT_
1528:__ZN7mecanim9animation13LayerConstant8TransferI19StreamedBinaryWriteILb0EEEEvRT_
1529:__ZN7mecanim12statemachine20StateMachineConstant8TransferI19StreamedBinaryWriteILb0EEEEvRT_
1530:__ZN7mecanim10ValueArray8TransferI19StreamedBinaryWriteILb0EEEEvRT_
1531:__ZN7mecanim12statemachine13StateConstant8TransferI19StreamedBinaryWriteILb0EEEEvRT_
1532:__ZN7mecanim12statemachine18TransitionConstant8TransferI19StreamedBinaryWriteILb0EEEEvRT_
1533:__ZN7mecanim12statemachine21SelectorStateConstant8TransferI19StreamedBinaryWriteILb0EEEEvRT_
1534:__ZN15SerializeTraitsI9OffsetPtrIN7mecanim12statemachine26SelectorTransitionConstantEEE8TransferI19StreamedBinaryWriteILb0EEEEvRS4_RT_
1535:__ZN15SerializeTraitsI9OffsetPtrIN7mecanim9animation17BlendTreeConstantEEE8TransferI19StreamedBinaryWriteILb0EEEEvRS4_RT_
1536:__ZN7mecanim9animation21BlendTreeNodeConstant8TransferI19StreamedBinaryWriteILb0EEEEvRT_
1537:__ZN19StreamedBinaryWriteILb0EE8TransferI9OffsetPtrIN7mecanim9animation19Blend1dDataConstantEEEEvRT_PKc17TransferMetaFlags
1538:__ZN7mecanim9animation19Blend2dDataConstant8TransferI19StreamedBinaryWriteILb0EEEEvRT_
1539:__ZN19StreamedBinaryWriteILb0EE8TransferIN7mecanim9animation23BlendDirectDataConstantEEEvRT_PKc17TransferMetaFlags
1540:__ZN19StreamedBinaryWriteILb0EE21TransferSTLStyleArrayI22OffsetPtrArrayTransferIN7mecanim9animation18MotionNeighborListEEEEvRT_17TransferMetaFlags
1541:__ZN11UnityEngine9Animation26CreateAnimationSetBindingsERK13dynamic_arrayI4PPtrI13AnimationClipELj4EERN7mecanim6memory9AllocatorE
1542:__ZN18AnimatorController10ClearAssetEv
1543:__ZN25RuntimeAnimatorController17MainThreadCleanupEv
1544:__ZN25RuntimeAnimatorControllerD2Ev
1545:__ZN25RuntimeAnimatorControllerD0Ev
1546:__ZNK25RuntimeAnimatorController26GetTypeInfoVirtualInternalEv
1547:__ZN25RuntimeAnimatorController23VirtualRedirectTransferER24GenerateTypeTreeTransfer
1548:__ZN25RuntimeAnimatorController23VirtualRedirectTransferER14SafeBinaryRead
1549:__GLOBAL__sub_I_runtime_animation_lump_cpp
1550:__GLOBAL__sub_I_runtime_animation2_lump_cpp
1551:__GLOBAL__sub_I_runtime_animation3_lump_cpp
1552:__ZN11UnityEngine9Animation38InitializeGenericAnimationBindingCacheEPv
1553:__ZN11UnityEngine9Animation35CleanupGenericAnimationBindingCacheEPv
1554:__ZN11UnityEngine9Animation28GenericAnimationBindingCacheD2Ev
1555:__ZN11UnityEngine9Animation28GenericAnimationBindingCache15DidReloadDomainEv
1556:__ZN7mecanim13crc32_table_tILj79764919EE10init_tableEv
1557:__ZN11UnityEngine9Animation28GenericAnimationBindingCacheC2Ev
1558:__ZN7mecanim9reflectorILj8EE7reflectEh
1559:__ZN13RuntimeStaticI15AnimationBinderLb0EE16StaticInitializeEPv
1560:__ZN13RuntimeStaticI15AnimationBinderLb0EE13StaticDestroyEPv
1561:__ZN15AnimationBinderD2Ev
1562:__ZNSt3__26__treeINS_12__value_typeIPKN5Unity4TypeEPK8TypeTreeEENS_19__map_value_compareIS5_S9_NS_4lessIS5_EELb1EEENS_9allocatorIS9_EEE7destroyEPNS_11__tree_nodeIS9_PvEE
1563:__ZN6AvatarD2Ev
1564:__ZN6AvatarD0Ev
1565:__ZN6Avatar17MainThreadCleanupEv
1566:__ZN6Avatar13AwakeFromLoadE17AwakeFromLoadMode
1567:__ZN6Avatar16CheckConsistencyEv
1568:__ZNK6Avatar26GetTypeInfoVirtualInternalEv
1569:__ZN6Avatar23VirtualRedirectTransferER19StreamedBinaryWriteILb0EE
1570:__ZN6Avatar23VirtualRedirectTransferER18StreamedBinaryReadILb0EE
1571:__ZN6Avatar23VirtualRedirectTransferER17RemapPPtrTransfer
1572:__ZN6Avatar23VirtualRedirectTransferER24GenerateTypeTreeTransfer
1573:__ZN6Avatar23VirtualRedirectTransferER14SafeBinaryRead
1574:__ZN6Avatar8TransferI14SafeBinaryReadEEvRT_
1575:__Z21TransferBlobSerializeIN7mecanim9animation14AvatarConstantE14SafeBinaryReadEvRPT_PKcRjS8_RT0_
1576:__ZN7mecanim9animation14AvatarConstant8TransferI14SafeBinaryReadEEvRT_
1577:__ZN14SafeBinaryRead8TransferI9OffsetPtrIN7mecanim8skeleton8SkeletonEEEEvRT_PKc17TransferMetaFlags
1578:__ZN14SafeBinaryRead8TransferIN7mecanim8skeleton13SkeletonPoseTIN4math4trsXEEEEEvRT_PKc17TransferMetaFlags
1579:__ZN7mecanim5human5Human8TransferI14SafeBinaryReadEEvRT_
1580:__ZN7mecanim8skeleton14CreateSkeletonEiiRNS_6memory9AllocatorE
1581:__ZN7mecanim8skeleton12SkeletonCopyEPKNS0_8SkeletonEPS1_
1582:__ZN14SafeBinaryRead8TransferIN7mecanim4hand4HandEEEvRT_PKc17TransferMetaFlags
1583:__ZN14SafeBinaryRead21TransferSTLStyleArrayI22OffsetPtrArrayTransferIN7mecanim5human6HandleEEEEvRT_17TransferMetaFlags
1584:__ZN14SafeBinaryRead21TransferSTLStyleArrayI22OffsetPtrArrayTransferIN4math8ColliderEEEEvRT_17TransferMetaFlags
1585:__ZN14SafeBinaryRead21TransferSTLStyleArrayI19StaticArrayTransferIiLi25EEEEvRT_17TransferMetaFlags
1586:__ZN14SafeBinaryRead21TransferSTLStyleArrayI19StaticArrayTransferIfLi25EEEEvRT_17TransferMetaFlags
1587:__ZN4math8Collider8TransferI14SafeBinaryReadEEvRT_
1588:__ZN15SerializeTraitsIN7mecanim5human6HandleEE8TransferI14SafeBinaryReadEEvRS2_RT_
1589:__ZN14SafeBinaryRead21TransferSTLStyleArrayI19StaticArrayTransferIiLi15EEEEvRT_17TransferMetaFlags
1590:__ZN7mecanim4hand4HandC2Ev
1591:__ZN7mecanim5human5HumanC2Ev
1592:__ZN14SafeBinaryRead21TransferSTLStyleArrayI22OffsetPtrArrayTransferIN4math4trsXEEEEvRT_17TransferMetaFlags
1593:__ZN7mecanim8skeleton8Skeleton8TransferI14SafeBinaryReadEEvRT_
1594:__ZN14SafeBinaryRead21TransferSTLStyleArrayI22OffsetPtrArrayTransferIN7mecanim8skeleton4NodeEEEEvRT_17TransferMetaFlags
1595:__ZN14SafeBinaryRead21TransferSTLStyleArrayI22OffsetPtrArrayTransferIN4math4AxesEEEEvRT_17TransferMetaFlags
1596:__ZN4math4Axes8TransferI14SafeBinaryReadEEvRT_
1597:__ZN4math5Limit8TransferI14SafeBinaryReadEEvRT_
1598:__ZN7mecanim8skeleton4Node8TransferI14SafeBinaryReadEEvRT_
1599:__ZN7mecanim9animation14AvatarConstant8TransferI24GenerateTypeTreeTransferEEvRT_
1600:__ZN24GenerateTypeTreeTransfer8TransferIN7mecanim8skeleton8SkeletonEEEvRT_PKc17TransferMetaFlags
1601:__ZN24GenerateTypeTreeTransfer8TransferIN7mecanim8skeleton13SkeletonPoseTIN4math4trsXEEEEEvRT_PKc17TransferMetaFlags
1602:__ZN7mecanim5human5Human8TransferI24GenerateTypeTreeTransferEEvRT_
1603:__ZN7mecanim5human6Handle8TransferI24GenerateTypeTreeTransferEEvRT_
1604:__ZN4math8Collider8TransferI24GenerateTypeTreeTransferEEvRT_
1605:__ZN4math4Axes8TransferI24GenerateTypeTreeTransferEEvRT_
1606:__ZN7mecanim9animation14AvatarConstant8TransferI17RemapPPtrTransferEEvRT_
1607:__ZN6Avatar8TransferI18StreamedBinaryReadILb0EEEEvRT_
1608:__ZN7mecanim9animation14AvatarConstant8TransferI18StreamedBinaryReadILb0EEEEvRT_
1609:__ZN7mecanim8skeleton8Skeleton8TransferI18StreamedBinaryReadILb0EEEEvRT_
1610:__ZN18StreamedBinaryReadILb0EE8TransferI9OffsetPtrIN7mecanim8skeleton13SkeletonPoseTIN4math4trsXEEEEEEvRT_PKc17TransferMetaFlags
1611:__ZN7mecanim5human5Human8TransferI18StreamedBinaryReadILb0EEEEvRT_
1612:__ZN18StreamedBinaryReadILb0EE21TransferSTLStyleArrayI22OffsetPtrArrayTransferIN7mecanim5human6HandleEEEEvRT_17TransferMetaFlags
1613:__ZN18StreamedBinaryReadILb0EE21TransferSTLStyleArrayI22OffsetPtrArrayTransferIN4math8ColliderEEEEvRT_17TransferMetaFlags
1614:__ZN4math8Collider8TransferI18StreamedBinaryReadILb0EEEEvRT_
1615:__ZN18StreamedBinaryReadILb0EE21TransferSTLStyleArrayI22OffsetPtrArrayTransferIN7mecanim8skeleton4NodeEEEEvRT_17TransferMetaFlags
1616:__ZN18StreamedBinaryReadILb0EE21TransferSTLStyleArrayI22OffsetPtrArrayTransferIN4math4AxesEEEEvRT_17TransferMetaFlags
1617:__ZN4math4Axes8TransferI18StreamedBinaryReadILb0EEEEvRT_
1618:__ZN4math5Limit8TransferI18StreamedBinaryReadILb0EEEEvRT_
1619:__ZN6Avatar8TransferI19StreamedBinaryWriteILb0EEEEvRT_
1620:__ZN7mecanim9animation14AvatarConstant8TransferI19StreamedBinaryWriteILb0EEEEvRT_
1621:__ZN7mecanim8skeleton8Skeleton8TransferI19StreamedBinaryWriteILb0EEEEvRT_
1622:__ZN7mecanim5human5Human8TransferI19StreamedBinaryWriteILb0EEEEvRT_
1623:__ZN19StreamedBinaryWriteILb0EE21TransferSTLStyleArrayI22OffsetPtrArrayTransferIN7mecanim5human6HandleEEEEvRT_17TransferMetaFlags
1624:__ZN4math8Collider8TransferI19StreamedBinaryWriteILb0EEEEvRT_
1625:__ZN4math4Axes8TransferI19StreamedBinaryWriteILb0EEEEvRT_
1626:__ZN4math5Limit8TransferI19StreamedBinaryWriteILb0EEEEvRT_
1627:__ZN16MecanimAnimation19PathHashesToIndicesERN5Unity9ComponentEPKjjPt
1628:__ZN16MecanimAnimation25RegisterIAnimationBindingEPKN5Unity4TypeEiP17IAnimationBinding
1629:__ZN16MecanimAnimation40GetReadWriteGlobalSpaceSkeletonPoseFenceEPN5Unity9ComponentE
1630:__ZN11UnityEngine9Animation28GenericAnimationBindingCache25RegisterIAnimationBindingEPKN5Unity4TypeEiP17IAnimationBinding
1631:__ZN8Animator17GetAvatarConstantEv
1632:__ZN8Animator9GetAvatarEv
1633:__Z13RegisterClassI9AnimationEvv
1634:__ZN13ProduceHelperI9AnimationLb0EE7ProduceE18MemLabelIdentifier18ObjectCreationMode
1635:__ZN9Animation15InitializeClassEv
1636:__ZN9Animation12CleanupClassEv
1637:__ZN14AnimationState22DidModifyAnimationClipEP13AnimationClipR4ListI8ListNodeIS_EE
1638:__ZZN16AnimationManager15InitializeClassEvEN43FixedUpdateLegacyFixedAnimationUpdatestruct7ForwardEv
1639:__ZN29AnimationStateNetworkProvider29GetNetworkAnimationStateCountER9Animation
1640:__ZN29AnimationStateNetworkProvider24GetNetworkAnimationStateER9AnimationP24AnimationStateForNetworki
1641:__ZN29AnimationStateNetworkProvider24SetNetworkAnimationStateER9AnimationPK24AnimationStateForNetworki
1642:__ZN16AnimationManager6UpdateEv
1643:__ZN6MotionC2E18MemLabelIdentifier18ObjectCreationMode
1644:__ZN4coreplEPKcRKNS_12basic_stringIcNS_20StringStorageDefaultIcEEEE
1645:__Z13RegisterClassI13AnimationClipEvv
1646:__ZN13ProduceHelperI13AnimationClipLb0EE7ProduceE18MemLabelIdentifier18ObjectCreationMode
1647:__ZN13AnimationClip15InitializeClassEv
1648:__ZN13AnimationClip12CleanupClassEv
1649:__Z13RegisterClassI25RuntimeAnimatorControllerEvv
1650:__ZN13ProduceHelperI18AnimatorControllerLb0EE7ProduceE18MemLabelIdentifier18ObjectCreationMode
1651:__ZN18AnimatorController15InitializeClassEv
1652:__ZN13ProduceHelperI8AnimatorLb0EE7ProduceE18MemLabelIdentifier18ObjectCreationMode
1653:__ZN8Animator15InitializeClassEv
1654:__ZN8Animator12CleanupClassEv
1655:__Z13RegisterClassI6AvatarEvv
1656:__Z13RegisterClassI6MotionEvv
1657:__ZN25RuntimeAnimatorControllerC2E18MemLabelIdentifier18ObjectCreationMode
1658:__ZN13ProduceHelperI6MotionLb1EE7ProduceE18MemLabelIdentifier18ObjectCreationMode
1659:__ZN13ProduceHelperI6AvatarLb0EE7ProduceE18MemLabelIdentifier18ObjectCreationMode
1660:__ZN10HumanTrait12CleanupClassEv
1661:__ZN7mecanim9animation23CleanupMuscleClipTablesEv
1662:__ZN8Animator20RebindOnDomainReloadEv
1663:__ZZN8Animator15InitializeClassEvEN32FunctorImpl_397kTransformChanged4CallEPviR11MessageData
1664:__ZZN8Animator15InitializeClassEvEN43FunctorImpl_398kDidModifyAnimatorController4CallEPviR11MessageData
1665:__ZZN8Animator15InitializeClassEvEN37FunctorImpl_399kDidModifyOverrideClip4CallEPviR11MessageData
1666:__ZZN8Animator15InitializeClassEvEN31FunctorImpl_401kDidModifyMotion4CallEPviR11MessageData
1667:__ZZN8Animator15InitializeClassEvEN31FunctorImpl_408kDidAddComponent4CallEPviR11MessageData
1668:__ZN7mecanim9animation18ControllerConstant15InitializeClassEv
1669:__ZN7mecanim9animation14AvatarConstant15InitializeClassEv
1670:__ZN7mecanim12statemachine13StateConstant15InitializeClassEv
1671:__ZN7mecanim9animation26InitializeMuscleClipTablesEv
1672:__ZN10HumanTrait15InitializeClassEv
1673:__Z27StateChangeValidateCallback18ScriptingMethodPtr17ScriptingClassPtrP6Object
1674:__Z28StateMachineValidateCallback18ScriptingMethodPtr17ScriptingClassPtrP6Object
1675:__ZN10HumanTrait20InitializeMuscleNameEv
1676:__ZN10HumanTrait18InitializeBoneNameEv
1677:__ZN10HumanTrait22InitializeMonoIndiciesEv
1678:__ZN7mecanim5human8BoneNameEj
1679:__ZN10HumanTrait13GetFingerNameEib
1680:__ZN7mecanim4hand10FingerNameEj
1681:__ZN7mecanim4hand12PhalangeNameEj
1682:__ZN7mecanim5human10MuscleNameEj
1683:__ZN10HumanTrait19GetFingerMuscleNameEib
1684:__ZN7mecanim4hand13FingerDoFNameEj
1685:__ZN13dynamic_arrayIN4core12basic_stringIcNS0_20StringStorageDefaultIcEEEELj4EE18resize_initializedEjRKS4_12ResizePolicy
1686:__ZN7mecanim5human12BoneFromTDoFEi
1687:__ZN7mecanim9animationL25MuscleIndexIdSortFunctionENS0_13MuscleIndexIdES1_
1688:__ZNSt3__26__sortIRPFbN7mecanim9animation13MuscleIndexIdES3_EPS3_EEvT0_S8_T_
1689:__ZNSt3__27__sort3IRPFbN7mecanim9animation13MuscleIndexIdES3_EPS3_EEjT0_S8_S8_T_
1690:__ZNSt3__27__sort5IRPFbN7mecanim9animation13MuscleIndexIdES3_EPS3_EEjT0_S8_S8_S8_S8_T_
1691:__ZNSt3__227__insertion_sort_incompleteIRPFbN7mecanim9animation13MuscleIndexIdES3_EPS3_EEbT0_S8_T_
1692:__ZN8Animator14OnAddComponentEPN5Unity9ComponentE
1693:__ZN8Animator32UpdateOverrideControllerBindingsEv
1694:__ZN26AnimatorControllerPlayable21OverrideClipPlayablesEv
1695:__ZN17AnimationPlayable28UpdateInternalStateRecursiveILi2ELb0EEEvPK35AnimationPlayableEvaluationConstant
1696:__ZN8AnimatorC2E18MemLabelIdentifier18ObjectCreationMode
1697:__ZN14AvatarPlaybackC2E18MemLabelIdentifier
1698:__ZZN18AnimatorController15InitializeClassEvEN30FunctorImpl_88kDidModifyMotion4CallEPviR11MessageData
1699:__Z13RegisterClassI18AnimatorControllerEvv
1700:__Z13RegisterClassI8AnimatorEvv
1701:__Z24RegisterModule_Animationv
1702:__ZL26InitializeModule_Animationv
1703:__ZL23CleanupModule_Animationv
1704:__Z32SetupMonoScriptCacheForAnimationP15MonoScriptCache
1705:__Z31DoCalculateAnimatorSkinMatricesP25CalculateSkinMatricesTask
1706:__ZNK8Animator26GetGlobalSpaceSkeletonPoseEPPN7mecanim8skeleton13SkeletonPoseTIN4math7affineXEEEiRKNS3_7_float4E
1707:__ZN8Animator27FreeGlobalSpaceSkeletonPoseEPN7mecanim8skeleton13SkeletonPoseTIN4math7affineXEEE
1708:__ZN8Animator22ScriptingStringToCRC32ER11ICallString
1709:__ZNK8Animator17HasBoundPlayablesEv
1710:__ZN8Animator12ResetTriggerEi
1711:__ZN8Animator10SetTriggerEi
1712:__ZN26AnimatorControllerPlayable26ParameterControlledByCurveEi
1713:__ZN26AnimatorControllerPlayable12GetLayerNameEi
1714:__ZN26AnimatorControllerPlayable13GetLayerIndexERKN4core12basic_stringIcNS0_20StringStorageDefaultIcEEEE
1715:__ZN26AnimatorControllerPlayable14GetLayerWeightEi
1716:__ZN26AnimatorControllerPlayable14SetLayerWeightEif
1717:__ZN26AnimatorControllerPlayable13GetParametersEv
1718:__ZNSt3__26vectorI27AnimatorControllerParameterNS_9allocatorIS1_EEE7reserveEj
1719:__ZNSt3__26vectorI27AnimatorControllerParameterNS_9allocatorIS1_EEE21__push_back_slow_pathIKS1_EEvRT_
1720:__ZN27AnimatorControllerParameterC2Ev
1721:__ZNK26AnimatorControllerPlayable14IsInTransitionEi
1722:__ZN26AnimatorControllerPlayable19GetAnimatorClipInfoEibR13dynamic_arrayI16AnimatorClipInfoLj4EE
1723:__ZNK26AnimatorControllerPlayable24GetAnimatorClipInfoCountEib
1724:__ZNK8Animator20GetAnimatorStateInfoEi14StateInfoIndexR17AnimatorStateInfo
1725:__ZNK26AnimatorControllerPlayable25GetAnimatorTransitionInfoEiR22AnimatorTransitionInfo
1726:__ZN7mecanim12statemachine21GetTransitionConstantEPKNS0_20StateMachineConstantEPKNS0_18StateMachineMemoryE
1727:__ZN7mecanim12statemachine27IsCurrentTransitionAnyStateEPKNS0_18StateMachineMemoryE
1728:__ZNK26AnimatorControllerPlayable8HasStateEii
1729:__ZN26AnimatorControllerPlayable11ResolveHashEi
1730:__ZN26AnimatorControllerPlayable20GotoStateInFixedTimeEiifff
1731:__ZN26AnimatorControllerPlayable17GotoStateInternalEiifffb
1732:__ZNK26AnimatorControllerPlayable17ValidateGoToStateERiS0_
1733:__ZN7mecanim12statemachine13GetStateIndexEPKNS0_20StateMachineConstantEj
1734:__ZN8Animator9GotoStateEiifff
1735:__ZN26AnimatorControllerPlayable9GotoStateEiifff
1736:__ZN8Animator23ValidateParameterStringE17GetSetValueResultRKN4core12basic_stringIcNS1_20StringStorageDefaultIcEEEE
1737:__Z33AnimatorControllerParameterToMonoRK27AnimatorControllerParameterR31MonoAnimatorControllerParameter
1738:__ZNSt3__26vectorIN4core12basic_stringIcNS1_20StringStorageDefaultIcEEEENS_9allocatorIS5_EEEC2ERKS8_
1739:__ZN4coreplERKNS_12basic_stringIcNS_20StringStorageDefaultIcEEEES5_
1740:__Z23CalculateGlobalPosition23TransformAccessReadOnly
1741:__Z23CalculateGlobalRotation23TransformAccessReadOnly
1742:__Z17CalculateGlobalSM23TransformAccessReadOnlyRKN4math7_float4E
1743:__Z20SetGlobalMatrixLossy15TransformAccessRKN4math7_float3ERKNS0_7_float4ERKNS0_8float3x3E
1744:__Z35InverseTransformPositionAndRotationRK23TransformAccessReadOnlyRKN4math7_float3ERKNS2_7_float4E
1745:__Z10SetLocalTR15TransformAccessRKN4math7_float3ERKNS0_7_float4E
1746:__Z24CalculateGlobalRSInverse23TransformAccessReadOnly
1747:__Z17CalculateGlobalRS23TransformAccessReadOnly
1748:__ZNSt3__26vectorIN4core12basic_stringIcNS1_20StringStorageDefaultIcEEEE13stl_allocatorIS5_L18MemLabelIdentifier1ELi16EEE21__push_back_slow_pathIKS5_EEvRT_
1749:__ZN23AnimationOffsetPlayable11GetPositionEv
1750:__ZN23AnimationOffsetPlayable11SetPositionE8Vector3f
1751:__ZN23AnimationOffsetPlayable11GetRotationEv
1752:__ZN23AnimationOffsetPlayable11SetRotationE11Quaternionf
1753:__ZN26AnimatorControllerPlayable19ValidateParameterIDE17GetSetValueResulti
1754:__ZN26AnimatorControllerPlayable23ValidateParameterStringE17GetSetValueResultRKN4core12basic_stringIcNS1_20StringStorageDefaultIcEEEE
1755:__Z59AnimationClipPlayable_CUSTOM_INTERNAL_CALL_GetAnimationClipR9HPlayable
1756:__Z51AnimationClipPlayable_CUSTOM_INTERNAL_CALL_GetSpeedR9HPlayable
1757:__Z51AnimationClipPlayable_CUSTOM_INTERNAL_CALL_SetSpeedR9HPlayablef
1758:__Z57AnimationClipPlayable_CUSTOM_INTERNAL_CALL_GetApplyFootIKR9HPlayable
1759:__Z57AnimationClipPlayable_CUSTOM_INTERNAL_CALL_SetApplyFootIKR9HPlayableh
1760:__Z63AnimationClipPlayable_CUSTOM_INTERNAL_CALL_GetRemoveStartOffsetR9HPlayable
1761:__Z63AnimationClipPlayable_CUSTOM_INTERNAL_CALL_SetRemoveStartOffsetR9HPlayableh
1762:__Z95Register_UnityEngine_Experimental_Director_AnimationClipPlayable_INTERNAL_CALL_GetAnimationClipv
1763:__Z87Register_UnityEngine_Experimental_Director_AnimationClipPlayable_INTERNAL_CALL_GetSpeedv
1764:__Z87Register_UnityEngine_Experimental_Director_AnimationClipPlayable_INTERNAL_CALL_SetSpeedv
1765:__Z93Register_UnityEngine_Experimental_Director_AnimationClipPlayable_INTERNAL_CALL_GetApplyFootIKv
1766:__Z93Register_UnityEngine_Experimental_Director_AnimationClipPlayable_INTERNAL_CALL_SetApplyFootIKv
1767:__Z99Register_UnityEngine_Experimental_Director_AnimationClipPlayable_INTERNAL_CALL_GetRemoveStartOffsetv
1768:__Z99Register_UnityEngine_Experimental_Director_AnimationClipPlayable_INTERNAL_CALL_SetRemoveStartOffsetv
1769:__Z56AnimationOffsetPlayable_CUSTOM_INTERNAL_CALL_GetPositionR9HPlayableR8Vector3f
1770:__Z56AnimationOffsetPlayable_CUSTOM_INTERNAL_CALL_SetPositionR9HPlayableRK8Vector3f
1771:__Z56AnimationOffsetPlayable_CUSTOM_INTERNAL_CALL_GetRotationR9HPlayableR11Quaternionf
1772:__Z56AnimationOffsetPlayable_CUSTOM_INTERNAL_CALL_SetRotationR9HPlayableRK11Quaternionf
1773:__Z92Register_UnityEngine_Experimental_Director_AnimationOffsetPlayable_INTERNAL_CALL_GetPositionv
1774:__Z92Register_UnityEngine_Experimental_Director_AnimationOffsetPlayable_INTERNAL_CALL_SetPositionv
1775:__Z92Register_UnityEngine_Experimental_Director_AnimationOffsetPlayable_INTERNAL_CALL_GetRotationv
1776:__Z92Register_UnityEngine_Experimental_Director_AnimationOffsetPlayable_INTERNAL_CALL_SetRotationv
1777:__ZNSt3__26vectorIiNS_9allocatorIiEEE6insertENS_11__wrap_iterIPKiEERS5_
1778:__Z32Animation_CUSTOM_GetStateAtIndexP12Il2CppObjecti
1779:__Z30Animation_CUSTOM_GetStateCountP12Il2CppObject
1780:__Z46Register_UnityEngine_Animation_GetStateAtIndexv
1781:__Z44Register_UnityEngine_Animation_GetStateCountv
1782:__Z43Animator_CUSTOM_GetCurrentAnimatorStateInfoP12Il2CppObjecti
1783:__Z20Animator_CUSTOM_PlayP12Il2CppObjectiif
1784:__Z41Animator_Get_Custom_PropHasBoundPlayablesP12Il2CppObject
1785:__Z28Animator_CUSTOM_StringToHashP12Il2CppString
1786:__Z32Animator_CUSTOM_SetTriggerStringP12Il2CppObjectP12Il2CppString
1787:__Z34Animator_CUSTOM_ResetTriggerStringP12Il2CppObjectP12Il2CppString
1788:__Z57Register_UnityEngine_Animator_GetCurrentAnimatorStateInfov
1789:__Z34Register_UnityEngine_Animator_Playv
1790:__Z51Register_UnityEngine_Animator_get_hasBoundPlayablesv
1791:__Z42Register_UnityEngine_Animator_StringToHashv
1792:__Z46Register_UnityEngine_Animator_SetTriggerStringv
1793:__Z48Register_UnityEngine_Animator_ResetTriggerStringv
1794:__Z77AnimatorControllerPlayable_CUSTOM_INTERNAL_CALL_GetAnimatorControllerInternalR9HPlayable
1795:__Z69AnimatorControllerPlayable_CUSTOM_INTERNAL_CALL_GetLayerCountInternalR9HPlayable
1796:__Z68AnimatorControllerPlayable_CUSTOM_INTERNAL_CALL_GetLayerNameInternalR9HPlayablei
1797:__Z69AnimatorControllerPlayable_CUSTOM_INTERNAL_CALL_GetLayerIndexInternalR9HPlayableP12Il2CppString
1798:__Z70AnimatorControllerPlayable_CUSTOM_INTERNAL_CALL_GetLayerWeightInternalR9HPlayablei
1799:__Z70AnimatorControllerPlayable_CUSTOM_INTERNAL_CALL_SetLayerWeightInternalR9HPlayableif
1800:__Z83AnimatorControllerPlayable_CUSTOM_INTERNAL_CALL_GetCurrentAnimatorStateInfoInternalR9HPlayablei
1801:__Z80AnimatorControllerPlayable_CUSTOM_INTERNAL_CALL_GetNextAnimatorStateInfoInternalR9HPlayablei
1802:__Z81AnimatorControllerPlayable_CUSTOM_INTERNAL_CALL_GetAnimatorTransitionInfoInternalR9HPlayablei
1803:__Z82AnimatorControllerPlayable_CUSTOM_INTERNAL_CALL_GetCurrentAnimatorClipInfoInternalR9HPlayablei
1804:__Z75AnimatorControllerPlayable_CUSTOM_INTERNAL_CALL_GetAnimatorClipInfoInternalP12Il2CppObjectR9HPlayableihS0_
1805:__Z80AnimatorControllerPlayable_CUSTOM_INTERNAL_CALL_GetAnimatorClipInfoCountInternalR9HPlayableih
1806:__Z79AnimatorControllerPlayable_CUSTOM_INTERNAL_CALL_GetNextAnimatorClipInfoInternalR9HPlayablei
1807:__Z67AnimatorControllerPlayable_CUSTOM_INTERNAL_CALL_ResolveHashInternalR9HPlayablei
1808:__Z70AnimatorControllerPlayable_CUSTOM_INTERNAL_CALL_IsInTransitionInternalR9HPlayablei
1809:__Z73AnimatorControllerPlayable_CUSTOM_INTERNAL_CALL_GetParameterCountInternalR9HPlayable
1810:__Z74AnimatorControllerPlayable_CUSTOM_INTERNAL_CALL_GetParametersArrayInternalR9HPlayable
1811:__Z76AnimatorControllerPlayable_CUSTOM_INTERNAL_CALL_CrossFadeInFixedTimeInternalR9HPlayableifif
1812:__Z65AnimatorControllerPlayable_CUSTOM_INTERNAL_CALL_CrossFadeInternalR9HPlayableifif
1813:__Z71AnimatorControllerPlayable_CUSTOM_INTERNAL_CALL_PlayInFixedTimeInternalR9HPlayableiif
1814:__Z60AnimatorControllerPlayable_CUSTOM_INTERNAL_CALL_PlayInternalR9HPlayableiif
1815:__Z64AnimatorControllerPlayable_CUSTOM_INTERNAL_CALL_HasStateInternalR9HPlayableii
1816:__Z62AnimatorControllerPlayable_CUSTOM_INTERNAL_CALL_SetFloatStringR9HPlayableP12Il2CppStringf
1817:__Z58AnimatorControllerPlayable_CUSTOM_INTERNAL_CALL_SetFloatIDR9HPlayableif
1818:__Z62AnimatorControllerPlayable_CUSTOM_INTERNAL_CALL_GetFloatStringR9HPlayableP12Il2CppString
1819:__Z58AnimatorControllerPlayable_CUSTOM_INTERNAL_CALL_GetFloatIDR9HPlayablei
1820:__Z61AnimatorControllerPlayable_CUSTOM_INTERNAL_CALL_SetBoolStringR9HPlayableP12Il2CppStringh
1821:__Z57AnimatorControllerPlayable_CUSTOM_INTERNAL_CALL_SetBoolIDR9HPlayableih
1822:__Z61AnimatorControllerPlayable_CUSTOM_INTERNAL_CALL_GetBoolStringR9HPlayableP12Il2CppString
1823:__Z57AnimatorControllerPlayable_CUSTOM_INTERNAL_CALL_GetBoolIDR9HPlayablei
1824:__Z64AnimatorControllerPlayable_CUSTOM_INTERNAL_CALL_SetIntegerStringR9HPlayableP12Il2CppStringi
1825:__Z60AnimatorControllerPlayable_CUSTOM_INTERNAL_CALL_SetIntegerIDR9HPlayableii
1826:__Z64AnimatorControllerPlayable_CUSTOM_INTERNAL_CALL_GetIntegerStringR9HPlayableP12Il2CppString
1827:__Z60AnimatorControllerPlayable_CUSTOM_INTERNAL_CALL_GetIntegerIDR9HPlayablei
1828:__Z64AnimatorControllerPlayable_CUSTOM_INTERNAL_CALL_SetTriggerStringR9HPlayableP12Il2CppString
1829:__Z60AnimatorControllerPlayable_CUSTOM_INTERNAL_CALL_SetTriggerIDR9HPlayablei
1830:__Z66AnimatorControllerPlayable_CUSTOM_INTERNAL_CALL_ResetTriggerStringR9HPlayableP12Il2CppString
1831:__Z62AnimatorControllerPlayable_CUSTOM_INTERNAL_CALL_ResetTriggerIDR9HPlayablei
1832:__Z82AnimatorControllerPlayable_CUSTOM_INTERNAL_CALL_IsParameterControlledByCurveStringR9HPlayableP12Il2CppString
1833:__Z78AnimatorControllerPlayable_CUSTOM_INTERNAL_CALL_IsParameterControlledByCurveIDR9HPlayablei
1834:__Z113Register_UnityEngine_Experimental_Director_AnimatorControllerPlayable_INTERNAL_CALL_GetAnimatorControllerInternalv
1835:__Z105Register_UnityEngine_Experimental_Director_AnimatorControllerPlayable_INTERNAL_CALL_GetLayerCountInternalv
1836:__Z104Register_UnityEngine_Experimental_Director_AnimatorControllerPlayable_INTERNAL_CALL_GetLayerNameInternalv
1837:__Z105Register_UnityEngine_Experimental_Director_AnimatorControllerPlayable_INTERNAL_CALL_GetLayerIndexInternalv
1838:__Z106Register_UnityEngine_Experimental_Director_AnimatorControllerPlayable_INTERNAL_CALL_GetLayerWeightInternalv
1839:__Z106Register_UnityEngine_Experimental_Director_AnimatorControllerPlayable_INTERNAL_CALL_SetLayerWeightInternalv
1840:__Z119Register_UnityEngine_Experimental_Director_AnimatorControllerPlayable_INTERNAL_CALL_GetCurrentAnimatorStateInfoInternalv
1841:__Z116Register_UnityEngine_Experimental_Director_AnimatorControllerPlayable_INTERNAL_CALL_GetNextAnimatorStateInfoInternalv
1842:__Z117Register_UnityEngine_Experimental_Director_AnimatorControllerPlayable_INTERNAL_CALL_GetAnimatorTransitionInfoInternalv
1843:__Z118Register_UnityEngine_Experimental_Director_AnimatorControllerPlayable_INTERNAL_CALL_GetCurrentAnimatorClipInfoInternalv
1844:__Z111Register_UnityEngine_Experimental_Director_AnimatorControllerPlayable_INTERNAL_CALL_GetAnimatorClipInfoInternalv
1845:__Z116Register_UnityEngine_Experimental_Director_AnimatorControllerPlayable_INTERNAL_CALL_GetAnimatorClipInfoCountInternalv
1846:__Z115Register_UnityEngine_Experimental_Director_AnimatorControllerPlayable_INTERNAL_CALL_GetNextAnimatorClipInfoInternalv
1847:__Z103Register_UnityEngine_Experimental_Director_AnimatorControllerPlayable_INTERNAL_CALL_ResolveHashInternalv
1848:__Z106Register_UnityEngine_Experimental_Director_AnimatorControllerPlayable_INTERNAL_CALL_IsInTransitionInternalv
1849:__Z109Register_UnityEngine_Experimental_Director_AnimatorControllerPlayable_INTERNAL_CALL_GetParameterCountInternalv
1850:__Z110Register_UnityEngine_Experimental_Director_AnimatorControllerPlayable_INTERNAL_CALL_GetParametersArrayInternalv
1851:__Z82Register_UnityEngine_Experimental_Director_AnimatorControllerPlayable_StringToHashv
1852:__Z112Register_UnityEngine_Experimental_Director_AnimatorControllerPlayable_INTERNAL_CALL_CrossFadeInFixedTimeInternalv
1853:__Z101Register_UnityEngine_Experimental_Director_AnimatorControllerPlayable_INTERNAL_CALL_CrossFadeInternalv
1854:__Z107Register_UnityEngine_Experimental_Director_AnimatorControllerPlayable_INTERNAL_CALL_PlayInFixedTimeInternalv
1855:__Z96Register_UnityEngine_Experimental_Director_AnimatorControllerPlayable_INTERNAL_CALL_PlayInternalv
1856:__Z100Register_UnityEngine_Experimental_Director_AnimatorControllerPlayable_INTERNAL_CALL_HasStateInternalv
1857:__Z98Register_UnityEngine_Experimental_Director_AnimatorControllerPlayable_INTERNAL_CALL_SetFloatStringv
1858:__Z94Register_UnityEngine_Experimental_Director_AnimatorControllerPlayable_INTERNAL_CALL_SetFloatIDv
1859:__Z98Register_UnityEngine_Experimental_Director_AnimatorControllerPlayable_INTERNAL_CALL_GetFloatStringv
1860:__Z94Register_UnityEngine_Experimental_Director_AnimatorControllerPlayable_INTERNAL_CALL_GetFloatIDv
1861:__Z97Register_UnityEngine_Experimental_Director_AnimatorControllerPlayable_INTERNAL_CALL_SetBoolStringv
1862:__Z93Register_UnityEngine_Experimental_Director_AnimatorControllerPlayable_INTERNAL_CALL_SetBoolIDv
1863:__Z97Register_UnityEngine_Experimental_Director_AnimatorControllerPlayable_INTERNAL_CALL_GetBoolStringv
1864:__Z93Register_UnityEngine_Experimental_Director_AnimatorControllerPlayable_INTERNAL_CALL_GetBoolIDv
1865:__Z100Register_UnityEngine_Experimental_Director_AnimatorControllerPlayable_INTERNAL_CALL_SetIntegerStringv
1866:__Z96Register_UnityEngine_Experimental_Director_AnimatorControllerPlayable_INTERNAL_CALL_SetIntegerIDv
1867:__Z100Register_UnityEngine_Experimental_Director_AnimatorControllerPlayable_INTERNAL_CALL_GetIntegerStringv
1868:__Z96Register_UnityEngine_Experimental_Director_AnimatorControllerPlayable_INTERNAL_CALL_GetIntegerIDv
1869:__Z100Register_UnityEngine_Experimental_Director_AnimatorControllerPlayable_INTERNAL_CALL_SetTriggerStringv
1870:__Z96Register_UnityEngine_Experimental_Director_AnimatorControllerPlayable_INTERNAL_CALL_SetTriggerIDv
1871:__Z102Register_UnityEngine_Experimental_Director_AnimatorControllerPlayable_INTERNAL_CALL_ResetTriggerStringv
1872:__Z98Register_UnityEngine_Experimental_Director_AnimatorControllerPlayable_INTERNAL_CALL_ResetTriggerIDv
1873:__Z118Register_UnityEngine_Experimental_Director_AnimatorControllerPlayable_INTERNAL_CALL_IsParameterControlledByCurveStringv
1874:__Z114Register_UnityEngine_Experimental_Director_AnimatorControllerPlayable_INTERNAL_CALL_IsParameterControlledByCurveIDv
1875:__ZN4FMOD3DSP9setBypassEb
1876:__Z15GetAudioManagerv
1877:__ZN4FMOD6System15createDSPByTypeE13FMOD_DSP_TYPEPPNS_3DSPE
1878:__ZN10ObjectPoolIN4FMOD3DSPENS0_4DSPIEE7GetFreeEi
1879:__ZN4FMOD3DSP12setParameterEif
1880:__ZN4FMOD3DSP7releaseEv
1881:__ZN10SampleClipD2Ev
1882:__ZN10SampleClipD0Ev
1883:__ZN10SampleClip17MainThreadCleanupEv
1884:__ZNK10SampleClip26GetTypeInfoVirtualInternalEv
1885:__ZN10SampleClip23VirtualRedirectTransferER24GenerateTypeTreeTransfer
1886:__ZN10SampleClip23VirtualRedirectTransferER14SafeBinaryRead
1887:__ZNK10SampleClip12GetLoadStateEv
1888:__ZNK14SoundHandleAPI12GetLoadStateEv
1889:__ZN11SoundHandleD2Ev
1890:__ZN12AudioManager15GetSoundManagerEv
1891:__ZN9AudioClipD2Ev
1892:__ZN9AudioClipD0Ev
1893:__ZN9AudioClip17MainThreadCleanupEv
1894:__ZN9AudioClip13AwakeFromLoadE17AwakeFromLoadMode
1895:__ZN9AudioClip21AwakeFromLoadThreadedEv
1896:__ZNK9AudioClip26GetTypeInfoVirtualInternalEv
1897:__ZN9AudioClip23VirtualRedirectTransferER19StreamedBinaryWriteILb0EE
1898:__ZN9AudioClip23VirtualRedirectTransferER18StreamedBinaryReadILb0EE
1899:__ZN9AudioClip23VirtualRedirectTransferER17RemapPPtrTransfer
1900:__ZN9AudioClip23VirtualRedirectTransferER24GenerateTypeTreeTransfer
1901:__ZN9AudioClip23VirtualRedirectTransferER14SafeBinaryRead
1902:__ZN9AudioClip8TransferI14SafeBinaryReadEEvRT_
1903:__ZN9AudioClip8TransferI24GenerateTypeTreeTransferEEvRT_
1904:__ZN9AudioClip8TransferI18StreamedBinaryReadILb0EEEEvRT_
1905:__ZN9AudioClip8TransferI19StreamedBinaryWriteILb0EEEEvRT_
1906:__ZNK10SampleClip17CalculateFMODModeEv
1907:__Z13LoadFMODSoundPPN11SoundHandle8InstanceEPKcjP10SampleClipjjP22FMOD_CREATESOUNDEXINFO
1908:__ZN11SoundHandle8InstanceC2Ev
1909:__ZN4FMOD6System11createSoundEPKcjP22FMOD_CREATESOUNDEXINFOPPNS_5SoundE
1910:__ZL16FMOD_ErrorString11FMOD_RESULT_468
1911:__ZN11SoundHandle8InstanceD2Ev
1912:__ZN20SoundChannelInstance4StopEv
1913:__ZN4FMOD5Sound7releaseEv
1914:__ZN4FMOD6SoundI7releaseEv
1915:__ZN4FMOD8ChannelI11EndCallbackEv
1916:__ZN11AudioSource25UnbindFromChannelInstanceERK7WeakPtrI20SoundChannelInstanceE
1917:__ZN4FMOD7Channel4stopEv
1918:__ZN12AudioManager16UnScheduleSourceEP11AudioSource
1919:__ZN4FMOD7SystemI11createSoundEPKcjP22FMOD_CREATESOUNDEXINFOPPNS_5SoundE
1920:__ZN10ObjectPoolIN4FMOD5SoundENS0_6SoundIEE7GetFreeEi
1921:__ZNK7WeakPtrIN11SoundHandle8InstanceEE10SharedData9GetRawPtrEv
1922:__ZN9AudioClip9LoadSoundEv
1923:__Z15GetSoundManagerv
1924:__ZN12SoundManager18IntegrateFMODSoundEPN11SoundHandle8InstanceERK16StreamedResourcejiN17SoundHandleShared9LoadStateE
1925:__ZN11SoundHandleaSERKS_
1926:__ZN4FMOD5Sound11setUserDataEPv
1927:__ZNK10SampleClip20GetCompressionFormatEv
1928:__ZN4FMOD5Sound13setLoopPointsEjjjj
1929:__ZN11SoundHandle7ReleaseEv
1930:__ZN12SoundManager10UnloadClipEP10SampleClip
1931:__ZN9AudioClip11CreateSoundEv
1932:__ZN12AudioManager22CreateFMODSoundFromWWWEP10IWWWStream15FMOD_SOUND_TYPE17FMOD_SOUND_FORMATjjbbP10SampleClip
1933:__ZN12SoundManager22GetHandleFromFMODSoundEPN11SoundHandle8InstanceEjP10SampleClip
1934:__ZN12AudioManager24CreateFMODSoundFromMovieEP9AudioClip
1935:__ZN9AudioClip21ScriptPCMReadCallbackEP10FMOD_SOUNDPvj
1936:__ZN9AudioClip28ScriptPCMSetPositionCallbackEP10FMOD_SOUNDijj
1937:__ZN12SoundManager19CreateSoundInternalEPKcjP22FMOD_CREATESOUNDEXINFOR11SoundHandlejP10SampleClip
1938:__ZN10SampleClip13LoadBaseSoundEv
1939:__ZN11SoundHandleC2ERKS_
1940:__ZN12SoundManager9GetHandleERK16StreamedResourceijjP10SampleClipb
1941:__ZN4FMOD5Sound11getUserDataEPPv
1942:__Z31GetParentSampleClipFromInstancePN11SoundHandle8InstanceE
1943:__ZN24AudioScriptBufferManager15GetPCMReadArrayEjR17ScriptingArrayPtr
1944:__ZN24AudioScriptBufferManagerC2Ev
1945:__ZN24AudioScriptBufferManager4InitEv
1946:__ZN4FMOD6System16getDSPBufferSizeEPjPi
1947:__ZN4FMOD6System17getSoftwareFormatEPiP17FMOD_SOUND_FORMATS1_S1_P18FMOD_DSP_RESAMPLERS1_
1948:__ZN9AudioClip12moviepcmreadEP10FMOD_SOUNDPvj
1949:__ZN9AudioClip18GetQueuedAudioDataEPPvj
1950:__ZN9AudioClip7WWWOpenEPKciPjPPvS4_
1951:__ZN9AudioClip8WWWCloseEPvS0_
1952:__ZN9AudioClip7WWWReadEPvS0_jPjS0_
1953:__ZN9AudioClip7WWWSeekEPvjS0_
1954:__ZN11SoundHandleC2Ev
1955:__ZNK10SampleClip11GetResourceEv
1956:__ZN11SoundHandle8Instance7DisposeEv
1957:__ZN17AudioCustomFilterD2Ev
1958:__ZN17AudioCustomFilterD0Ev
1959:__ZN17AudioCustomFilter7CleanupEv
1960:__ZN11AudioSource4StopEb
1961:__ZN4FMOD3DSP6removeEv
1962:__ZN4FMOD3DSP11getUserDataEPPv
1963:__ZN11AudioSource16CleanAudioSourceEb
1964:__ZNK11AudioSource19GetFilterComponentsERNSt3__26vectorIPN4FMOD3DSPENS0_9allocatorIS4_EEEEb
1965:__ZN12AudioManager17RemoveAudioSourceEP11AudioSource
1966:__ZNSt3__26vectorIPN4FMOD3DSPENS_9allocatorIS3_EEE21__push_back_slow_pathIKS3_EEvRT_
1967:__ZN13AudioListenerD2Ev
1968:__ZN13AudioListenerD0Ev
1969:__ZN13AudioListener13AwakeFromLoadE17AwakeFromLoadMode
1970:__ZNK13AudioListener26GetTypeInfoVirtualInternalEv
1971:__ZN13AudioListener23VirtualRedirectTransferER19StreamedBinaryWriteILb0EE
1972:__ZN13AudioListener23VirtualRedirectTransferER18StreamedBinaryReadILb0EE
1973:__ZN13AudioListener23VirtualRedirectTransferER17RemapPPtrTransfer
1974:__ZN13AudioListener23VirtualRedirectTransferER24GenerateTypeTreeTransfer
1975:__ZN13AudioListener23VirtualRedirectTransferER14SafeBinaryRead
1976:__ZN13AudioListener6UpdateEv
1977:__ZN13AudioListener11FixedUpdateEv
1978:__ZN13AudioListener12AddToManagerEv
1979:__ZN13AudioListener17RemoveFromManagerEv
1980:__ZN13AudioListener12ApplyFiltersEv
1981:__ZN13AudioListener8DoUpdateEv
1982:__ZN4FMOD6System23set3DListenerAttributesEiPK11FMOD_VECTORS3_S3_S3_
1983:__ZN11AudioFilter6GetDSPEv
1984:__ZN4FMOD12ChannelGroup6addDSPEPNS_3DSPEPPNS_13DSPConnectionE
1985:__ZN17AnimationCurveTplIfE6AssignEPK11KeyframeTplIfES4_
1986:__ZN12AudioManagerD2Ev
1987:__ZN12AudioManagerD0Ev
1988:__ZN12AudioManager17MainThreadCleanupEv
1989:__ZN12AudioManager13AwakeFromLoadE17AwakeFromLoadMode
1990:__ZN12AudioManager16CheckConsistencyEv
1991:__ZN12AudioManager5ResetEv
1992:__ZNK12AudioManager26GetTypeInfoVirtualInternalEv
1993:__ZN12AudioManager23VirtualRedirectTransferER19StreamedBinaryWriteILb0EE
1994:__ZN12AudioManager23VirtualRedirectTransferER18StreamedBinaryReadILb0EE
1995:__ZN12AudioManager23VirtualRedirectTransferER17RemapPPtrTransfer
1996:__ZN12AudioManager23VirtualRedirectTransferER24GenerateTypeTreeTransfer
1997:__ZN12AudioManager23VirtualRedirectTransferER14SafeBinaryRead
1998:__ZN12AudioManager8TransferI14SafeBinaryReadEEvRT_
1999:__ZN12AudioManager8TransferI24GenerateTypeTreeTransferEEvRT_
2000:__ZN12AudioManager8TransferI18StreamedBinaryReadILb0EEEEvRT_
2001:__ZN12AudioManager8TransferI19StreamedBinaryWriteILb0EEEEvRT_
2002:__ZN12AudioManager8InitFMODEv
2003:__ZN12AudioManager29ShutdownReinitializeAndReloadEv
2004:__ZN11AudioSource31UpdateEffectVirtualizationStateEb
2005:__ZN4FMOD12ChannelGroup9setVolumeEf
2006:__ZN4FMOD6System13set3DSettingsEfff
2007:__ZNK11AudioSource21AreAllChannelsVirtualEv
2008:__ZN4FMOD3DSP9setActiveEb
2009:__ZN20SoundChannelInstance9isVirtualEPb
2010:__ZN4FMOD7Channel9isVirtualEPb
2011:__ZN12AudioManager9CloseFMODEv
2012:__ZN15AudioReverbZone4InitEv
2013:__ZN12AudioManager39HandlePendingAudioConfigurationCallbackEv
2014:__Z24GetAudioScriptingClassesv
2015:__Z27GetAudioScriptingClassesPtrv
2016:__ZL31InitializeAudioScriptingClassesv
2017:__ZL28CleanupAudioScriptingClassesv
2018:__ZN4FMOD6System12createReverbEPPNS_6ReverbE
2019:__ZN4FMOD6Reverb9setActiveEb
2020:__ZN12AudioManager21FixMasterGroupRoutingEv
2021:__ZN15AudioReverbZone13SetFMODValuesEv
2022:__ZN4FMOD6System6updateEv
2023:__ZN4FMOD6Reverb15set3DAttributesEPK11FMOD_VECTORff
2024:__ZN4FMOD6Reverb13setPropertiesEPK22FMOD_REVERB_PROPERTIES
2025:__ZN4FMOD12ChannelGroup10getDSPHeadEPPNS_3DSPE
2026:__ZN4FMOD3DSP9getOutputEiPPS0_PPNS_13DSPConnectionE
2027:__ZN4FMOD3DSP8getInputEiPPS0_PPNS_13DSPConnectionE
2028:__ZN4FMOD3DSP12getNumInputsEPi
2029:__ZN4FMOD3DSP7getInfoEPcPjPiS3_S3_
2030:__ZN4FMOD3DSP13disconnectAllEbb
2031:__ZN4FMOD3DSP8addInputEPS0_PPNS_13DSPConnectionE
2032:__ZN4FMOD3DSP9getBypassEPb
2033:__ZN11AudioSource7CleanupEv
2034:__ZN11AudioFilter7CleanupEv
2035:__ZN15AudioReverbZone7CleanupEv
2036:__ZN5audio5mixer23DestroyAudioMixerMemoryEPNS0_16AudioMixerMemoryERKNS0_18AudioMixerConstantEPN4FMOD6SystemERN7mecanim6memory9AllocatorE
2037:__ZN4FMOD12ChannelGroup7releaseEv
2038:__ZN4FMOD6System5closeEv
2039:__ZN12SoundManagerD2Ev
2040:__ZN12SoundManager20OnExitPlayModeStaticEv
2041:__ZN12SoundManager6UpdateEv
2042:__ZN4FMOD7Channel11setPositionEjj
2043:__ZN11SoundHandle8Instance15UpdateLoadStateEv
2044:__ZN4FMOD6System9playSoundE17FMOD_CHANNELINDEXPNS_5SoundEbPPNS_7ChannelE
2045:__ZN20SoundChannelInstance14SetFMODChannelEPN4FMOD7ChannelE
2046:__ZN20SoundChannelInstance15ParameterBuffer5ApplyEPN4FMOD7ChannelE
2047:__ZN20SoundChannelInstance12UpdateVolumeEv
2048:__ZN20SoundChannelInstance11UpdatePitchEv
2049:__ZN20SoundChannelInstance16UpdatePauseStateEv
2050:__ZN4FMOD7Channel9setPausedEb
2051:__ZN4FMOD7Channel12setFrequencyEf
2052:__ZN4FMOD7Channel9setVolumeEf
2053:__ZN4FMOD8ChannelI9setVolumeEf
2054:__ZN4FMOD7Channel7setMuteEb
2055:__ZN4FMOD7Channel11setCallbackEPF11FMOD_RESULTP12FMOD_CHANNEL25FMOD_CHANNEL_CALLBACKTYPEPvS5_E
2056:__ZN4FMOD7Channel7setModeEj
2057:__ZN4FMOD7Channel15setChannelGroupEPNS_12ChannelGroupE
2058:__ZN4FMOD7Channel11setPriorityEi
2059:__ZN4FMOD7Channel19setReverbPropertiesEPK29FMOD_REVERB_CHANNELPROPERTIES
2060:__ZN4FMOD7Channel8setDelayE14FMOD_DELAYTYPEjj
2061:__ZN4FMOD7Channel6setPanEf
2062:__ZN4FMOD7Channel15set3DAttributesEPK11FMOD_VECTORS3_
2063:__ZN4FMOD7Channel20set3DConeOrientationEP11FMOD_VECTOR
2064:__ZN4FMOD7Channel17set3DConeSettingsEfff
2065:__ZN4FMOD7Channel17set3DDopplerLevelEf
2066:__ZN4FMOD7Channel19set3DMinMaxDistanceEff
2067:__ZN4FMOD7Channel13set3DPanLevelEf
2068:__ZN4FMOD7Channel11set3DSpreadEf
2069:__ZN4FMOD8ChannelI15set3DAttributesEPK11FMOD_VECTORS3_
2070:__ZN4FMOD8ChannelI18UpdateDopplerPitchEv
2071:__ZN4FMOD8ChannelI8setDelayE14FMOD_DELAYTYPEjj
2072:__ZN4FMOD7Channel11setUserDataEPv
2073:__ZN20SoundChannelInstance19FMODChannelCallbackEP12FMOD_CHANNEL25FMOD_CHANNEL_CALLBACKTYPEPvS3_
2074:__ZN4FMOD7Channel12getFrequencyEPf
2075:__ZN4FMOD7Channel11getUserDataEPPv
2076:__ZN10SampleClip14ReleaseIfEqualE11SoundHandle
2077:__ZN4FMOD7SystemI9playSoundE17FMOD_CHANNELINDEXPNS_5SoundEbPPNS_7ChannelE
2078:__ZN10ObjectPoolIN4FMOD7ChannelENS0_8ChannelIEE7GetFreeEi
2079:__ZN4FMOD22FakeModChannelCallbackEPv
2080:__ZN4FMOD5Sound12getOpenStateEP14FMOD_OPENSTATEPjPbS4_
2081:__ZN4FMOD5Sound15getNumSubSoundsEPi
2082:__ZN4FMOD5Sound11getSubSoundEiPPS0_
2083:__ZN4FMOD8ChannelI11setPositionEjj
2084:__ZN10SampleClip15UnloadAudioDataEv
2085:__ZN9AudioClip6ReloadEv
2086:__ZN12SoundManager20RegisterModifiedClipEP10SampleClip
2087:__ZN4FMOD6Reverb7releaseEv
2088:_FMOD_Memory_Initialize
2089:_FMOD_System_Create
2090:__ZN12AudioManager18ValidateFMODResultE11FMOD_RESULTPKc
2091:__Z14FMOD_FILE_OpenPKciPjPPvS3_
2092:__Z15FMOD_FILE_ClosePvS_
2093:__Z14FMOD_FILE_ReadPvS_jPjS_
2094:__Z14FMOD_FILE_SeekPvjS_
2095:__ZN4FMOD6System13setFileSystemEPF11FMOD_RESULTPKciPjPPvS6_EPFS1_S5_S5_EPFS1_S5_S5_jS4_S5_EPFS1_S5_jS5_EPFS1_P18FMOD_ASYNCREADINFOS5_ESA_i
2096:__ZN4FMOD6System10getVersionEPj
2097:__ZN4FMOD6System19setStreamBufferSizeEjj
2098:__ZN12AudioManager14systemCallbackEP11FMOD_SYSTEM24FMOD_SYSTEM_CALLBACKTYPEPvS3_
2099:__ZN4FMOD6System11setCallbackEPF11FMOD_RESULTP11FMOD_SYSTEM24FMOD_SYSTEM_CALLBACKTYPEPvS5_E
2100:__ZN11AudioSource15rolloffCallbackEP12FMOD_CHANNELf
2101:__ZN4FMOD6System20set3DRolloffCallbackEPFfP12FMOD_CHANNELfE
2102:__ZN12AudioManager10InitNormalEv
2103:__ZN4FMOD6System7releaseEv
2104:__ZN4FMOD6System21getMasterChannelGroupEPPNS_12ChannelGroupE
2105:__ZN4FMOD6System11getDSPClockEPjS1_
2106:__Z29AudioMasterDSPProcessCallbackP21UnityAudioEffectStatePfS1_jii
2107:__ZN29AudioEffectInternalDefinitionC2EP26UnityAudioEffectDefinitionb
2108:__ZN29AudioEffectInternalDefinition9CreateDSPEPN4FMOD6SystemEPvPfPP25UnityAudioSpatializerData
2109:__ZN4FMOD6System18createChannelGroupEPKcPPNS_12ChannelGroupE
2110:__ZN4FMOD12ChannelGroup8addGroupEPS0_
2111:__ZN12SoundManagerC2Ev
2112:__ZN10ObjectPoolIN4FMOD12ChannelGroupENS0_13ChannelGroupIEE7GetFreeEi
2113:__ZN4FMOD6System9createDSPEP20FMOD_DSP_DESCRIPTIONPPNS_3DSPE
2114:__ZN30AudioEffectInternalDescriptionC2EP26UnityAudioEffectDefinition
2115:__ZL39UnityAudioEffect_InternalCreateCallbackP14FMOD_DSP_STATE
2116:__ZL40UnityAudioEffect_InternalReleaseCallbackP14FMOD_DSP_STATE
2117:__ZL38UnityAudioEffect_InternalResetCallbackP14FMOD_DSP_STATE
2118:__ZL37UnityAudioEffect_InternalReadCallbackP14FMOD_DSP_STATEPfS1_jii
2119:__ZL44UnityAudioEffect_InternalSetPositionCallbackP14FMOD_DSP_STATEj
2120:__ZL50UnityAudioEffect_InternalSetFloatParameterCallbackP14FMOD_DSP_STATEif
2121:__ZL50UnityAudioEffect_InternalGetFloatParameterCallbackP14FMOD_DSP_STATEiPfPc
2122:__ZN4FMOD3DSP11setUserDataEPv
2123:__ZN4FMOD6System13getNumDriversEPi
2124:__ZN4FMOD6System9setOutputE15FMOD_OUTPUTTYPE
2125:__ZN4FMOD6System9getDriverEPi
2126:__ZN4FMOD6System13getDriverCapsEiPjPiP16FMOD_SPEAKERMODE
2127:__ZN4FMOD6System14setSpeakerModeE16FMOD_SPEAKERMODE
2128:__ZN4FMOD6System16setDSPBufferSizeEji
2129:__ZN4FMOD6System17setSoftwareFormatEi17FMOD_SOUND_FORMATii18FMOD_DSP_RESAMPLER
2130:__ZN4FMOD6System19setSoftwareChannelsEi
2131:__ZN4FMOD6System4initEijPv
2132:__ZN10ObjectPoolIN4FMOD7ChannelENS0_8ChannelIEE7SetSizeEi
2133:__ZNK11AudioSource28CalculateDistanceAttenuationEv
2134:__ZNK12AudioManager16GetAudioListenerEv
2135:__ZN12AudioManager21SetActiveOutputDriverEP9FMOD_GUID
2136:__ZN12SoundManager26OnCreateSoundPopAllocationEv
2137:__ZN12SoundManager27OnCreateSoundPushAllocationEPv
2138:__ZN4FMOD6System9setDriverEi
2139:__ZN4FMOD6System13getDriverInfoEiPciP9FMOD_GUID
2140:__ZN4FMOD7SystemIC2Ei
2141:__ZN10ObjectPoolIN4FMOD12ChannelGroupENS0_13ChannelGroupIEE7SetSizeEi
2142:__ZN10ObjectPoolIN4FMOD5SoundENS0_6SoundIEE7SetSizeEi
2143:__ZN10ObjectPoolIN4FMOD3DSPENS0_4DSPIEE7SetSizeEi
2144:__ZN29AudioEffectInternalDefinitionD2Ev
2145:__ZN10AudioMixer18EnsureValidRuntimeEv
2146:__ZN5audio5mixer22CreateAudioMixerMemoryERKNS0_18AudioMixerConstantEPN4FMOD6SystemERN7mecanim6memory9AllocatorEib
2147:__ZN10AudioMixer14UpdateMuteSoloEv
2148:__ZN5audio5mixer12UpdateBypassERNS0_18AudioMixerConstantERNS0_16AudioMixerMemoryE
2149:__ZN5audio5mixer21SetResultingMuteStateERKNS0_18AudioMixerConstantERKNS0_16AudioMixerMemoryEib
2150:__ZN10AudioMixer24ReassignAllChannelGroupsEv
2151:__ZN10AudioMixer11SetupGroupsEv
2152:__ZN5audio5mixer16FindChannelGroupERKNS0_18AudioMixerConstantERKNS0_16AudioMixerMemoryERK9UnityGUID
2153:__ZN5audio5mixer17AssignOutputGroupERKNS0_18AudioMixerConstantERKNS0_16AudioMixerMemoryEPN4FMOD12ChannelGroupE
2154:__ZN12AudioManager25RebindAudioSourcesToMixerEP10AudioMixer
2155:__ZN11AudioSource19ConfigureFMODGroupsEv
2156:__ZN10AudioMixer19GetFMODChannelGroupERK9UnityGUID
2157:__ZN4FMOD12ChannelGroup14getParentGroupEPPS0_
2158:__ZN11AudioSource12ApplyFiltersEv
2159:__ZN4FMOD12ChannelGroup7setMuteEb
2160:__Z32AudioMeasurement_GetTimeConstantff
2161:__Z25GetAudioEffectDefinitionsPi
2162:__Z29AudioMixerSendProcessCallbackP21UnityAudioEffectStatePfS1_jii
2163:__Z32AudioMixerReceiveProcessCallbackP21UnityAudioEffectStatePfS1_jii
2164:__Z31AudioMixerDuckingCreateCallbackP21UnityAudioEffectState
2165:__Z32AudioMixerDuckingDestroyCallbackP21UnityAudioEffectState
2166:__Z37AudioMixerDuckingSetParameterCallbackP21UnityAudioEffectStateif
2167:__Z39AudioMixerDuckingGetFloatBufferCallbackP21UnityAudioEffectStatePKcPfi
2168:__Z32AudioMixerDuckingProcessCallbackP21UnityAudioEffectStatePfS1_jii
2169:__Z30AudioMixerFaderProcessCallbackP21UnityAudioEffectStatePfS1_jii
2170:__ZN5audio5mixer22UpdateAudioMixerMemoryERKNS0_18AudioMixerConstantERNS0_16AudioMixerMemoryEfPN4FMOD6SystemEf
2171:__ZN4FMOD12ChannelGroup19setAudibilityFactorEf
2172:__ZN4FMOD12ChannelGroup8setPitchEf
2173:__ZN5audio5mixerL19IsAnyChannelPlayingEPN4FMOD12ChannelGroupE
2174:__ZN5audio5mixer12SetSuspendedERNS0_16AudioMixerMemoryEb
2175:__ZN4FMOD3DSP9getActiveEPb
2176:__ZN4FMOD3DSP15getSystemObjectEPPNS_6SystemE
2177:__ZN4FMOD12ChannelGroup14getNumChannelsEPi
2178:__ZN4FMOD12ChannelGroup10getChannelEiPPNS_7ChannelE
2179:__ZN4FMOD7Channel9isPlayingEPb
2180:__ZN4FMOD12ChannelGroup12getNumGroupsEPi
2181:__ZN4FMOD12ChannelGroup8getGroupEiPPS0_
2182:__ZN15SerializeTraitsI9UnityGUIDE8TransferI14SafeBinaryReadEEvRS0_RT_
2183:__ZN9UnityGUID8TransferI24GenerateTypeTreeTransferEEvRT_
2184:__GLOBAL__sub_I_runtime_video_lump_cpp
2185:__ZL37StaticInitializeAudioSourceFilterRootPv
2186:__ZL34StaticDestroyAudioSourceFilterRootPv
2187:__ZL37StaticInitializeAudioCustomFilterRootPv
2188:__ZL34StaticDestroyAudioCustomFilterRootPv
2189:__ZN9UnityGUID8TransferI18StreamedBinaryReadILb0EEEEvRT_
2190:__ZN11AudioSource16UpdateParametersE12SoundChannel
2191:__ZN20SoundChannelInstance9isPlayingEPb
2192:__ZN20SoundChannelInstance15set3DAttributesEPK11FMOD_VECTORS2_
2193:__ZNK18AudioLowPassFilter26GetCustomLowpassLevelCurveEv
2194:__ZN18AudioLowPassFilter26SetCutoffFrequencyInternalEf
2195:__ZN11AudioSource21Update3DPanParametersE12SoundChannelf
2196:__ZN11AudioSource19UpdateReverbZoneMixE12SoundChannelf
2197:__ZN11AudioSource13UpdateDopplerE12SoundChannelfR8Vector3fS2_
2198:__ZN11AudioSource17UpdateSpatializerE12SoundChannelf
2199:__ZN11AudioSource9SetVolumeEf
2200:__ZN11AudioSource28SetSpatializePostEffectsGainEf
2201:__ZN20SoundChannelInstance19getReverbPropertiesEP29FMOD_REVERB_CHANNELPROPERTIES
2202:__ZN20SoundChannelInstance19setReverbPropertiesEP29FMOD_REVERB_CHANNELPROPERTIES
2203:__ZN4FMOD7Channel19getReverbPropertiesEP29FMOD_REVERB_CHANNELPROPERTIES
2204:__ZN20SoundChannelInstance13set3DPanLevelEf
2205:__ZN20SoundChannelInstance11set3DSpreadEf
2206:__ZN20SoundChannelInstance6setPanEf
2207:__ZN11AudioSource16UpdateParametersEv
2208:__ZN11AudioSource16UpdatePauseStateEv
2209:__ZN20SoundChannelInstance8setDelayE14FMOD_DELAYTYPEjj
2210:__ZN12AudioManager17ShouldSourcePauseEb
2211:__ZNK12AudioManager14GetRealDSPTimeEv
2212:__ZN11AudioSource32CorrectScheduledTimeAfterUnpauseEy
2213:__ZN20SoundChannelInstance8getDelayE14FMOD_DELAYTYPEPjS1_
2214:__ZN7Texture7SetNameEPKc
2215:__ZNK7Texture20GetUnscaledTextureIDEv
2216:__ZNK7Texture11GetGPUWidthEv
2217:__ZNK7Texture12GetGPUHeightEv
2218:__ZNK7Texture16GetNpotTexelSizeEv
2219:__ZNK7Texture9HasMipMapEv
2220:__ZNK7Texture14GetMipmapCountEv
2221:__ZNK7Texture21GetShadowSamplingModeEv
2222:__ZN7Texture34UpdateFileTextureUploadInstructionEP28FileTextureUploadInstructionj
2223:__Z13RegisterClassI14AudioBehaviourEvv
2224:__ZN10SampleClipC2E18MemLabelIdentifier18ObjectCreationMode
2225:__Z13RegisterClassI10SampleClipEvv
2226:__ZN13ProduceHelperI10SampleClipLb0EE7ProduceE18MemLabelIdentifier18ObjectCreationMode
2227:__ZN9AudioClipC2E18MemLabelIdentifier18ObjectCreationMode
2228:__ZN9AudioClip16EnableLegacyModeEv
2229:__ZN9AudioClip10InitStreamEP10IWWWStreamPKcP13MoviePlaybackbb15FMOD_SOUND_TYPE
2230:__Z7ToLowerIN4core12basic_stringIcNS0_20StringStorageDefaultIcEEEEET_RKS5_
2231:__ZN9AudioClip22GetFormatFromExtensionERKN4core12basic_stringIcNS0_20StringStorageDefaultIcEEEE
2232:__ZN9AudioClip16SetMoviePlaybackEP13MoviePlayback
2233:__ZN9AudioClip27IsFormatSupportedByPlatformERKN4core12basic_stringIcNS0_20StringStorageDefaultIcEEEE
2234:__Z13RegisterClassI9AudioClipEvv
2235:__ZN13ProduceHelperI9AudioClipLb0EE7ProduceE18MemLabelIdentifier18ObjectCreationMode
2236:__ZN17AudioCustomFilterC2EP13MonoBehaviour
2237:__ZN17AudioCustomFilter4InitEv
2238:__ZN17AudioCustomFilter14GetOrCreateDSPEv
2239:__ZN17AudioCustomFilter6GetDSPEv
2240:__ZN13AudioListener15InitializeClassEv
2241:__ZZN13AudioListener15InitializeClassEvEN31FunctorImpl_178kDidAddComponent4CallEPviR11MessageData
2242:__Z13RegisterClassI13AudioListenerEvv
2243:__ZN13ProduceHelperI13AudioListenerLb0EE7ProduceE18MemLabelIdentifier18ObjectCreationMode
2244:__ZN12AudioManagerC2E18MemLabelIdentifier18ObjectCreationMode
2245:__ZN12AudioManager15DidReloadDomainEv
2246:__ZN24AudioScriptBufferManager15DidReloadDomainEv
2247:__ZNK12AudioManager13GetNumDevicesEv
2248:__ZN12AudioManager26SetDefaultMicrophoneDriverEP9FMOD_GUID
2249:__ZN12AudioManager19SetApplicationPauseEb
2250:__ZN12AudioManager16SetListenerPauseEb
2251:__ZN12AudioManager23ProcessScheduledSourcesEv
2252:__ZN12AudioManager6UpdateEv
2253:__ZN10AudioMixer6UpdateEf
2254:__ZN12AudioManager11FixedUpdateEv
2255:__Z13RegisterClassI12AudioManagerEvv
2256:__ZN13ProduceHelperI12AudioManagerLb0EE7ProduceE18MemLabelIdentifier18ObjectCreationMode
2257:__ZZL31InitializeAudioManagerCallbacksvEN33FixedUpdateAudioFixedUpdatestruct7ForwardEv
2258:__ZZL31InitializeAudioManagerCallbacksvEN31PostLateUpdateUpdateAudiostruct7ForwardEv
2259:__ZZL31InitializeAudioManagerCallbacksvEN39PostLateUpdateUpdateVideoTexturesstruct7ForwardEv
2260:__ZN11AudioModule16SetListenerPauseEb
2261:__ZN11AudioModule19SetApplicationPauseEb
2262:__ZN11AudioModule11FixedUpdateEv
2263:__ZN11AudioModule6UpdateEv
2264:__ZN11AudioModule17StopVideoTexturesEv
2265:__ZN11AudioModule19UpdateVideoTexturesEv
2266:__ZN11AudioModule18PauseVideoTexturesEv
2267:__ZN11AudioModule20SuspendVideoTexturesEv
2268:__ZN11AudioModule19ResumeVideoTexturesEv
2269:__ZN11AudioModule22CreateAudioClipFromWWWEP10IWWWStreamPKcbbi
2270:__ZN11AudioModule27IsFormatSupportedByPlatformEPKc
2271:__ZN11AudioModule30GetOrCreateDSPFromCustomFilterEP17AudioCustomFilter
2272:__ZN11AudioModule23CreateAudioCustomFilterEP13MonoBehaviour
2273:__ZN11AudioModule23DeleteAudioCustomFilterEP17AudioCustomFilter
2274:__ZN11AudioModule27GetDSPFromAudioCustomFilterEP17AudioCustomFilter
2275:__ZN11AudioModule14SetBypassOnDSPEPN4FMOD3DSPEb
2276:__ZN11AudioModule25AudioManagerAwakeFromLoadE17AwakeFromLoadMode
2277:__ZN11AudioModule21SetActiveOutputDriverEPv
2278:__ZN11AudioModule26SetDefaultMicrophoneDriverEPv
2279:__ZN11AudioModule13GetNumDevicesEv
2280:__ZN11AudioModule15IsAudioDisabledEv
2281:__ZN16BaseVideoTexture19ResumeVideoTexturesEv
2282:__ZN16BaseVideoTexture20SuspendVideoTexturesEv
2283:__ZN16BaseVideoTexture18PauseVideoTexturesEv
2284:__ZN16BaseVideoTexture19UpdateVideoTexturesEv
2285:__ZN16BaseVideoTexture17StopVideoTexturesEv
2286:__Z20RegisterModule_Audiov
2287:__ZL22InitializeModule_Audiov
2288:__ZL19CleanupModule_Audiov
2289:___cxx_global_var_init13
2290:__GLOBAL__sub_I_SwCollision_cpp
2291:__GLOBAL__sub_I_SwInterCollision_cpp
2292:__GLOBAL__sub_I_SwSelfCollision_cpp
2293:__GLOBAL__sub_I_SwSolverKernel_cpp
2294:__GLOBAL__sub_I_runtime_cloth_lump_cpp
2295:__ZN5physx14PxLightCpuTaskD2Ev
2296:__ZN5physx14PxLightCpuTask12addReferenceEv
2297:__ZN5physx14PxLightCpuTask15removeReferenceEv
2298:__ZNK5physx14PxLightCpuTask12getReferenceEv
2299:__ZN5physx14PxLightCpuTask7releaseEv
2300:___cxx_global_var_init
2301:___cxx_global_var_init1
2302:___cxx_global_var_init2
2303:___cxx_global_var_init3
2304:___cxx_global_var_init4
2305:___cxx_global_var_init5
2306:___cxx_global_var_init6
2307:___cxx_global_var_init7
2308:___cxx_global_var_init8
2309:___cxx_global_var_init9
2310:___cxx_global_var_init10
2311:___cxx_global_var_init11
2312:___cxx_global_var_init12
2313:__Z6simd4fffff
2314:__ZN13Simd4fFactoryIN6detail9FourTupleEEC2Effff
2315:__Z6simd4fRKf
2316:__ZN13Simd4fFactoryIN6detail9FourTupleEEC2ERKS_IRKfE
2317:__ZN13Simd4fFactoryIRKfEC2ES1_
2318:__Z6simd4iiiii
2319:__Z6simd4fIN6detail9FourTupleEE13Simd4fFactoryIT_ERK13Simd4iFactoryIS3_E
2320:__ZN13Simd4iFactoryIN6detail9FourTupleEEC2Eiiii
2321:__ZNK13Simd4fFactoryIRKfEcv8Scalar4fEv
2322:__ZN5physx5cloth11PhaseConfigC2Et
2323:__ZN5physx2Cm4Task3runEv
2324:__ZN5physx9PxBounds313transformFastERKNS_11PxTransformERKS0_
2325:__ZN11UnityEngine15CloudWebService17CloudJobScheduler10InitializeEv
2326:__ZN11UnityEngine15CloudWebService17CloudJobScheduler5CloseEv
2327:__ZN11UnityEngine15CloudWebService17CloudJobScheduler11ScheduleJobEPFvPvES2_
2328:__ZN11UnityEngine15CloudWebService17CloudJobSchedulerD2Ev
2329:__ZN11UnityEngine15CloudWebService17CloudJobSchedulerD0Ev
2330:__ZN23CloudWebServicesManagerD2Ev
2331:__ZN23CloudWebServicesManagerD0Ev
2332:__ZNK23CloudWebServicesManager26GetTypeInfoVirtualInternalEv
2333:__ZN23CloudWebServicesManager23VirtualRedirectTransferER24GenerateTypeTreeTransfer
2334:__ZN23CloudWebServicesManager23VirtualRedirectTransferER14SafeBinaryRead
2335:__ZN23CloudWebServicesManager15ThreadedCleanupEv
2336:__ZNSt3__26__treeINS_12__value_typeIN19CloudServiceHandler11ServiceTypeEPS2_EENS_19__map_value_compareIS3_S5_NS_4lessIS3_EELb1EEE13stl_allocatorIS5_L18MemLabelIdentifier85ELi16EEE7destroyEPNS_11__tree_nodeIS5_PvEE
2337:__ZNSt3__26__treeINS_12__value_typeIN19CloudServiceHandler11ServiceTypeEPS2_EENS_19__map_value_compareIS3_S5_NS_4lessIS3_EELb1EEE13stl_allocatorIS5_L18MemLabelIdentifier85ELi16EEE12__find_equalIS3_EERPNS_16__tree_node_baseIPvEENS_21__tree_const_iteratorIS5_PNS_11__tree_nodeIS5_SG_EEiEESJ_RKT_
2338:__ZN19CloudServiceHandler12CloseServiceEv
2339:__ZN19CloudServiceHandlerD2Ev
2340:__ZN11UnityEngine15CloudWebService18CloudServiceConfigD2Ev
2341:__ZN11UnityEngine15CloudWebService19SessionEventManagerD2Ev
2342:__ZN11UnityEngine15CloudWebService16SessionContainerD2Ev
2343:__ZN11UnityEngine15CloudWebService17SessionEventQueueD2Ev
2344:__ZN11UnityEngine15CloudWebService17SessionEventQueue10PurgeQueueEv
2345:__ZN11UnityEngine15CloudWebService14DataDispatcherD2Ev
2346:__ZNSt3__26__treeINS_12__value_typeIN4core12basic_stringIcNS2_20StringStorageDefaultIcEEEEjEENS_19__map_value_compareIS6_S7_NS_4lessIS6_EELb1EEE13stl_allocatorIS7_L18MemLabelIdentifier85ELi16EEE7destroyEPNS_11__tree_nodeIS7_PvEE
2347:__ZN11UnityEngine15CloudWebService14DataDispatcher26OnSessionContainerArchivedERNS0_16SessionContainerE
2348:__ZN11UnityEngine15CloudWebService14DataDispatcher34OnSessionContainerArchivedAndReadyERNS0_16SessionContainerE
2349:__ZN11UnityEngine15CloudWebService14DataDispatcherD0Ev
2350:__ZN11UnityEngine15CloudWebService14DataDispatcher20OnRestDownloaderDoneERNS0_14RestDownloaderE
2351:__ZThn4_N11UnityEngine15CloudWebService14DataDispatcher20OnRestDownloaderDoneERNS0_14RestDownloaderE
2352:__ZThn4_N11UnityEngine15CloudWebService14DataDispatcherD1Ev
2353:__ZThn4_N11UnityEngine15CloudWebService14DataDispatcherD0Ev
2354:__ZN11UnityEngine15CloudWebService14DataDispatcher25OnDataBlockConsumedStaticEPv
2355:__ZN11UnityEngine15CloudWebService14DataDispatcher19OnDataBlockConsumedEv
2356:__ZN11UnityEngine15CloudWebService16SessionContainer11PurgeEventsEj
2357:__ZN11UnityEngine15CloudWebService16SessionContainer22ArchiveDirtyEventQueueEv
2358:__ZN11UnityEngine15CloudWebService16SessionContainer9ResetDataEv
2359:__ZN11UnityEngine15CloudWebService16SessionContainer13DeleteArchiveERKN4core12basic_stringIcNS2_20StringStorageDefaultIcEEEE
2360:__ZN11UnityEngine15CloudWebService14DataDispatcher16PrepareDataBlockERNS0_16SessionContainerE
2361:__ZN11UnityEngine15CloudWebService16SessionContainer16MarkAsDispatchedERKN4core12basic_stringIcNS2_20StringStorageDefaultIcEEEE
2362:__ZN11UnityEngine15CloudWebService14DataDispatcher19HandleDeleteFailureERNS0_16SessionContainerE
2363:__ZN11UnityEngine15CloudWebService14DataDispatcher31SetupSessionContainerToDispatchEv
2364:__ZN11UnityEngine15CloudWebService14DataDispatcher30FindSessionContainerToDispatchEv
2365:__ZNSt3__26__treeINS_12__value_typeIN4core12basic_stringIcNS2_20StringStorageDefaultIcEEEEjEENS_19__map_value_compareIS6_S7_NS_4lessIS6_EELb1EEE13stl_allocatorIS7_L18MemLabelIdentifier85ELi16EEE4findIS6_EENS_15__tree_iteratorIS7_PNS_11__tree_nodeIS7_PvEEiEERKT_
2366:i64u-div
2367:i64u-rem
2368:__ZN11UnityEngine15CloudWebService16SessionContainer21ConvertFromFolderTimeERKN4core12basic_stringIcNS2_20StringStorageDefaultIcEEEEPjPt
2369:__ZN11UnityEngine15CloudWebService16SessionContainer12IsDispatchedERKN4core12basic_stringIcNS2_20StringStorageDefaultIcEEEE
2370:__ZN11UnityEngine15CloudWebService16SessionContainer7RestoreERKN4core12basic_stringIcNS2_20StringStorageDefaultIcEEEEPvy
2371:__ZNSt3__23mapIN4core12basic_stringIcNS1_20StringStorageDefaultIcEEEEjNS_4lessIS5_EE13stl_allocatorINS_4pairIKS5_jEEL18MemLabelIdentifier85ELi16EEEixERSA_
2372:__ZN11UnityEngine15CloudWebService16SessionContainer17RestoreEventQueueERKN4core12basic_stringIcNS2_20StringStorageDefaultIcEEEES8_Pvy
2373:__ZN11UnityEngine15CloudWebService16SessionContainer20RestoreSessionHeaderERKN4core12basic_stringIcNS2_20StringStorageDefaultIcEEEES8_RNS0_13SessionHeaderE
2374:__ZN11UnityEngine15CloudWebService17SessionEventQueue15RestoreFromFileER12FileAccessorPvy
2375:__ZN11UnityEngine15CloudWebService17SessionEventQueue16ExtractEventDataEPKcyRN4core12basic_stringIcNS4_20StringStorageDefaultIcEEEE
2376:__ZN11UnityEngine15CloudWebService17SessionEventQueue14ParseEventDataERKN4core12basic_stringIcNS2_20StringStorageDefaultIcEEEE
2377:__ZNSt3__26vectorIPN11UnityEngine15CloudWebService14CloudEventInfoE13stl_allocatorIS4_L18MemLabelIdentifier85ELi16EEE21__push_back_slow_pathIKS4_EEvRT_
2378:__ZN11UnityEngine15CloudWebService16SessionContainer38GetDeleteErrorJsonDataBlockAsJsonArrayERKN4core12basic_stringIcNS2_20StringStorageDefaultIcEEEES8_RS6_
2379:__ZN11UnityEngine15CloudWebService16SessionContainer27GetDeleteErrorJsonDataBlockERKN4core12basic_stringIcNS2_20StringStorageDefaultIcEEEERS6_
2380:__ZN11UnityEngine15CloudWebService14DataDispatcher15SetupWebRequestEv
2381:__ZN11UnityEngine15CloudWebService14DataDispatcher18PreformWebDispatchEv
2382:__ZN11UnityEngine15CloudWebService16SessionContainer21PrepareDataErrorEventERN4core12basic_stringIcNS2_20StringStorageDefaultIcEEEE
2383:__ZN11UnityEngine15CloudWebService16SessionContainer15FormatDataBlockERKN4core12basic_stringIcNS2_20StringStorageDefaultIcEEEES6_RS6_
2384:__ZN11UnityEngine15CloudWebService16SessionContainer24GetSessionHeaderJsonDataERKN4core12basic_stringIcNS2_20StringStorageDefaultIcEEEERNS2_13StringBuilderE
2385:__ZN4core13StringBuilder14UpdateWritePtrERPcb
2386:__ZN11UnityEngine15CloudWebService14DataErrorEvent12ToJsonStringERN4core12basic_stringIcNS2_20StringStorageDefaultIcEEEEjPKc
2387:__ZN11UnityEngine15CloudWebService17CloudServiceEventD2Ev
2388:__ZN11UnityEngine15CloudWebService17CloudServiceEventD0Ev
2389:__ZN11UnityEngine15CloudWebService17CloudServiceEvent12ToJsonStringER9JSONWrite
2390:__ZN9JSONWrite8TransferIyEEvRT_PKc17TransferMetaFlags
2391:__ZN24TextDOMTransferWriteBaseI9JSONWriteE12PushMetaFlagEi
2392:__ZN9rapidjson12GenericValueINS_4UTF8IcEE13JSONAllocatorED2Ev
2393:__ZN11UnityEngine15CloudWebService14DataErrorEventD2Ev
2394:__ZN11UnityEngine15CloudWebService14DataErrorEventD0Ev
2395:__ZN11UnityEngine15CloudWebService14DataErrorEvent12ToJsonStringER9JSONWrite
2396:__ZN9JSONWrite8TransferIN4core12basic_stringIcNS1_20StringStorageDefaultIcEEEEEEvRT_PKc17TransferMetaFlags
2397:__ZN9JSONWrite8TransferIN11UnityEngine15CloudWebService14DataErrorEvent17FolderErrorDetailEEEvRT_PKc17TransferMetaFlags
2398:__ZN9JSONWrite8TransferI13dynamic_arrayIN11UnityEngine15CloudWebService14DataErrorEvent15FileErrorDetailELj4EEEEvRT_PKc17TransferMetaFlags
2399:__ZN9JSONWrite8TransferIN11UnityEngine15CloudWebService14DataErrorEvent15FileErrorDetailEEEvRT_PKc17TransferMetaFlags
2400:__ZN9JSONWrite8TransferIiEEvRT_PKc17TransferMetaFlags
2401:__ZN11UnityEngine15CloudWebService14DataErrorEvent17FolderErrorDetailD2Ev
2402:__ZN11UnityEngine15CloudWebService17CloudServiceEvent12ToJsonStringERN4core12basic_stringIcNS2_20StringStorageDefaultIcEEEEjPKc
2403:__ZN9JSONWriteD2Ev
2404:__ZN11UnityEngine15CloudWebService14DataErrorEventC2Ev
2405:__ZN13dynamic_arrayIN11UnityEngine15CloudWebService14DataErrorEvent15FileErrorDetailELj4EE18resize_initializedEjRKS3_12ResizePolicy
2406:__ZN11UnityEngine15CloudWebService16SessionContainer26FormatDataBlockAsJsonArrayERKN4core12basic_stringIcNS2_20StringStorageDefaultIcEEEES8_S6_RS6_
2407:__ZN11UnityEngine15CloudWebService16SessionContainer25GetSessionHeaderJsonArrayERKN4core12basic_stringIcNS2_20StringStorageDefaultIcEEEERNS2_13StringBuilderE
2408:__ZN11UnityEngine15CloudWebService16SessionContainer17CreateAndOpenFileERKN4core12basic_stringIcNS2_20StringStorageDefaultIcEEEES8_R12FileAccessor
2409:__ZN11UnityEngine15CloudWebService16SessionContainer21GetJsonArrayDataBlockEjRKN4core12basic_stringIcNS2_20StringStorageDefaultIcEEEES8_RS6_PjSA_
2410:__ZN11UnityEngine15CloudWebService16SessionContainer16GetJsonDataBlockEjRKN4core12basic_stringIcNS2_20StringStorageDefaultIcEEEERS6_PjSA_
2411:__ZN11UnityEngine15CloudWebService17SessionEventQueue19GetEventsAsJsonDataEjRN4core12basic_stringIcNS2_20StringStorageDefaultIcEEEEPjS8_
2412:__ZN11UnityEngine15CloudWebService17SessionEventQueue20GetEventsAsJsonArrayEjRN4core12basic_stringIcNS2_20StringStorageDefaultIcEEEEPjS8_
2413:__ZN11UnityEngine15CloudWebService16SessionContainer31HandleDeleteArchivedFolderErrorERKN4core12basic_stringIcNS2_20StringStorageDefaultIcEEEE
2414:__ZN11UnityEngine15CloudWebService16SessionContainer18DeleteArchivedFileERKN4core12basic_stringIcNS2_20StringStorageDefaultIcEEEES8_Rb
2415:__ZN11UnityEngine15CloudWebService16SessionContainer17ResetArchivedFileERKN4core12basic_stringIcNS2_20StringStorageDefaultIcEEEE
2416:__ZN11UnityEngine15CloudWebService17SessionEventQueue10SaveToFileER12FileAccessor
2417:__ZN11UnityEngine15CloudWebService17SessionEventQueue10PurgeItemsEj
2418:__ZN11UnityEngine15CloudWebService13WWWRestClientD2Ev
2419:__ZNSt3__26__treeINS_12__value_typeIN4core12basic_stringIcNS2_20StringStorageDefaultIcEEEES6_EENS_19__map_value_compareIS6_S7_NS_4lessIS6_EELb1EEENS_9allocatorIS7_EEE7destroyEPNS_11__tree_nodeIS7_PvEE
2420:__ZN11UnityEngine15CloudWebService10RestClientINS0_16WWWRestHeaderMapEE6SetUrlERKN4core12basic_stringIcNS4_20StringStorageDefaultIcEEEE
2421:__ZN11UnityEngine15CloudWebService10RestClientINS0_16WWWRestHeaderMapEE7SetDataEPKhj
2422:__ZN11UnityEngine15CloudWebService10RestClientINS0_16WWWRestHeaderMapEE13SetDownloaderERNS0_14RestDownloaderE
2423:__ZN11UnityEngine15CloudWebService10RestClientINS0_16WWWRestHeaderMapEE16SetRequestHeaderERKN4core12basic_stringIcNS4_20StringStorageDefaultIcEEEESA_
2424:__ZN11UnityEngine15CloudWebService10RestClientINS0_16WWWRestHeaderMapEE16GetRequestHeaderERKN4core12basic_stringIcNS4_20StringStorageDefaultIcEEEE
2425:__ZN11UnityEngine15CloudWebService10RestClientINS0_16WWWRestHeaderMapEE17GetResponseHeaderERKN4core12basic_stringIcNS4_20StringStorageDefaultIcEEEE
2426:__ZN11UnityEngine15CloudWebService10RestClientINS0_16WWWRestHeaderMapEED2Ev
2427:__ZN11UnityEngine15CloudWebService10RestClientINS0_16WWWRestHeaderMapEED0Ev
2428:__Z7ToUpperIN4core12basic_stringIcNS0_20StringStorageDefaultIcEEEEET_RKS5_
2429:__ZNSt3__23mapIN4core12basic_stringIcNS1_20StringStorageDefaultIcEEEES5_NS_4lessIS5_EENS_9allocatorINS_4pairIKS5_S5_EEEEEixERSA_
2430:__ZN11UnityEngine15CloudWebService13WWWRestClient7CleanupEv
2431:__ZN11UnityEngine15CloudWebService13WWWRestClient10PerformGetEv
2432:__ZN11UnityEngine15CloudWebService13WWWRestClient6IsDoneEv
2433:__ZN11UnityEngine15CloudWebService13WWWRestClient17PlayerLoopHandlerEv
2434:__ZN11UnityEngine15CloudWebService13WWWRestClient17GetResponseStatusEv
2435:__ZN11UnityEngine15CloudWebService13WWWRestClientD0Ev
2436:__ZN11UnityEngine15CloudWebService13WWWRestClient18GetEditableHeadersEv
2437:__ZN11UnityEngine15CloudWebService13WWWRestClient18GetResponseHeadersEv
2438:__ZN11UnityEngine15CloudWebService13WWWRestClient21ParseHTTPHeaderStringEN4core12basic_stringIcNS2_20StringStorageDefaultIcEEEERNS0_16WWWRestHeaderMapERjPKc
2439:__ZNSt3__24listIP19CloudServiceHandler13stl_allocatorIS2_L18MemLabelIdentifier85ELi16EEE6removeERKS2_
2440:__ZN11UnityEngine15CloudWebService19SessionEventManager5CloseEv
2441:__ZN11UnityEngine15CloudWebService14DataDispatcher5CloseEv
2442:__ZN11UnityEngine15CloudWebService18RestFileDownloaderD2Ev
2443:__ZN11UnityEngine15CloudWebService18RestFileDownloaderD0Ev
2444:__ZN11UnityEngine15CloudWebService18RestFileDownloader13OnReceiveDataEPKvj
2445:__ZN11UnityEngine15CloudWebService18RestFileDownloader22OnReceiveContentLengthEj
2446:__ZN11UnityEngine15CloudWebService18RestFileDownloader17OnCompleteContentEv
2447:__ZN11UnityEngine15CloudWebService18RestFileDownloader7OnAbortEv
2448:__ZN11UnityEngine15CloudWebService14RestDownloader6IsDoneEv
2449:__ZN11UnityEngine15CloudWebService14RestDownloader9IsAbortedEv
2450:__ZN11UnityEngine15CloudWebService14RestDownloader9ClearDoneEv
2451:__ZN11UnityEngine15CloudWebService18RestFileDownloader10InitializeERKN4core12basic_stringIcNS2_20StringStorageDefaultIcEEEE
2452:__ZN11UnityEngine15CloudWebService18RestFileDownloader7OpenVFSEv
2453:__ZN19CloudServiceHandlerC2Ev
2454:__ZN11UnityEngine15CloudWebService13WWWRestClientC2Ev
2455:__ZN11UnityEngine15CloudWebService14DataDispatcherC2ERNS0_11IRestClientE
2456:__ZN11UnityEngine15CloudWebService16SessionContainerC2Ev
2457:__ZN11UnityEngine15CloudWebService14RestDownloader13OnReceiveDataEPKvj
2458:__ZN11UnityEngine15CloudWebService14RestDownloader17OnCompleteContentEv
2459:__ZN11UnityEngine15CloudWebService14RestDownloader7OnAbortEv
2460:__ZN11UnityEngine15CloudWebService19SessionEventManagerC2Ev
2461:__ZN19CloudServiceHandler31SetICloudServiceHandlerListenerEP28ICloudServiceHandlerListener
2462:__ZN19CloudServiceHandler10InitializeERKN4core12basic_stringIcNS0_20StringStorageDefaultIcEEEENS_13InitModeFlagsE
2463:__ZN19CloudServiceHandler17InitServiceFolderENS_13InitModeFlagsE
2464:__ZN11UnityEngine15CloudWebService19SessionEventManager10InitializeERKN4core12basic_stringIcNS2_20StringStorageDefaultIcEEEEPNS0_18ICloudJobSchedulerE
2465:__ZN11UnityEngine15CloudWebService14DataDispatcher10InitializeERKN4core12basic_stringIcNS2_20StringStorageDefaultIcEEEEPvjRNS0_18ICloudJobSchedulerE
2466:__Z26GetCloudWebServicesManagerv
2467:__ZN19CloudServiceHandler6RetainEv
2468:__ZN19CloudServiceHandler7ReleaseEv
2469:__ZN19CloudServiceHandler17StartEventHandlerERKN4core12basic_stringIcNS0_20StringStorageDefaultIcEEEEii
2470:__ZN11UnityEngine15CloudWebService19SessionEventManager5StartERKN4core12basic_stringIcNS2_20StringStorageDefaultIcEEEEii
2471:__ZN19CloudServiceHandler17PauseEventHandlerEb
2472:__ZN11UnityEngine15CloudWebService19SessionEventManager5PauseEb
2473:__ZN11UnityEngine15CloudWebService19SessionEventManager27ProcessFlushEventsJobStaticEPv
2474:__ZN11UnityEngine15CloudWebService16SessionContainer7ArchiveEv
2475:__ZN19CloudServiceHandler16StopEventHandlerEv
2476:__ZN11UnityEngine15CloudWebService19SessionEventManager4StopEv
2477:__ZN11UnityEngine15CloudWebService19SessionEventManager20ArchivePendingEventsEv
2478:__ZN19CloudServiceHandler20StartEventDispatcherERKN11UnityEngine15CloudWebService18CloudServiceConfigERNS1_16WWWRestHeaderMapE
2479:__ZN11UnityEngine15CloudWebService18CloudServiceConfigaSERKS1_
2480:__ZN11UnityEngine15CloudWebService16WWWRestHeaderMapaSERKS1_
2481:__ZN11UnityEngine15CloudWebService14DataDispatcher5StartERKNS0_18CloudServiceConfigE
2482:__ZN11UnityEngine15CloudWebService14DataDispatcher37SetupSessionContainerToDispatchStaticEPv
2483:__ZNSt3__26__treeINS_12__value_typeIN4core12basic_stringIcNS2_20StringStorageDefaultIcEEEES6_EENS_19__map_value_compareIS6_S7_NS_4lessIS6_EELb1EEENS_9allocatorIS7_EEE12__find_equalIS6_EERPNS_16__tree_node_baseIPvEENS_21__tree_const_iteratorIS7_PNS_11__tree_nodeIS7_SH_EEiEESK_RKT_
2484:__ZNSt3__26__treeINS_12__value_typeIN4core12basic_stringIcNS2_20StringStorageDefaultIcEEEES6_EENS_19__map_value_compareIS6_S7_NS_4lessIS6_EELb1EEENS_9allocatorIS7_EEE16__construct_nodeERKNS_4pairIKS6_S6_EE
2485:__ZN19CloudServiceHandler19StopEventDispatcherEv
2486:__ZN11UnityEngine15CloudWebService14DataDispatcher4StopEv
2487:__ZN19CloudServiceHandler22ResetNetworkRetryIndexEv
2488:__ZN11UnityEngine15CloudWebService14DataDispatcher22ResetNetworkRetryIndexEv
2489:__ZN19CloudServiceHandler10QueueEventEPN11UnityEngine15CloudWebService14CloudEventInfoE
2490:__ZN11UnityEngine15CloudWebService19SessionEventManager10QueueEventEPNS0_14CloudEventInfoE
2491:__ZN11UnityEngine15CloudWebService19SessionEventManager26ProcessEventQueueJobStaticEPv
2492:__ZN11UnityEngine15CloudWebService19SessionEventManager20ProcessEventQueueJobEPNS0_14CloudEventInfoE
2493:__ZN11UnityEngine15CloudWebService19SessionEventManager31SetupNextActiveSessionContainerEv
2494:__ZN11UnityEngine15CloudWebService16SessionContainer8AddEventEPNS0_14CloudEventInfoE
2495:__ZN19CloudServiceHandler11FlushEventsEv
2496:__ZN11UnityEngine15CloudWebService14DataDispatcher39StartJobSetupSessionContainerToDispatchEv
2497:__ZN11UnityEngine15CloudWebService19SessionEventManager11FlushEventsEv
2498:__ZN19CloudServiceHandler18SaveFileFromServerERKN4core12basic_stringIcNS0_20StringStorageDefaultIcEEEES6_PN11UnityEngine15CloudWebService16WWWRestHeaderMapE
2499:__ZN11UnityEngine15CloudWebService18RestFileDownloaderC2EPNS0_23IRestDownloaderListenerE
2500:__ZN11UnityEngine15CloudWebService17WebFileDownloaderINS0_13WWWRestClientENS0_16WWWRestHeaderMapEE10InitializeERKN4core12basic_stringIcNS5_20StringStorageDefaultIcEEEESB_SB_
2501:__ZN11UnityEngine15CloudWebService17WebFileDownloaderINS0_13WWWRestClientENS0_16WWWRestHeaderMapEED2Ev
2502:__ZN11UnityEngine15CloudWebService17WebFileDownloaderINS0_13WWWRestClientENS0_16WWWRestHeaderMapEED0Ev
2503:__ZN11UnityEngine15CloudWebService17WebFileDownloaderINS0_13WWWRestClientENS0_16WWWRestHeaderMapEE10InitializeERKN4core12basic_stringIcNS5_20StringStorageDefaultIcEEEE
2504:__ZN19CloudServiceHandler34HandleSaveFileWebRequestPlayerLoopEv
2505:__ZN11UnityEngine15CloudWebService19SessionEventManager17PlayerLoopHandlerEv
2506:__ZN11UnityEngine15CloudWebService14DataDispatcher17PlayerLoopHandlerEv
2507:__ZN11UnityEngine15CloudWebService14DataDispatcher29PreformRetryWebDispatchStaticEPv
2508:__ZN11UnityEngine15CloudWebService14DataDispatcher23PreformRetryWebDispatchEv
2509:__ZN11UnityEngine15CloudWebService16SessionContainer18GetIndexFromDataIdEy
2510:__ZN11UnityEngine15CloudWebService19SessionEventManager37OnTimerExpiredPerformArchiveJobStaticEPv
2511:__ZN11UnityEngine15CloudWebService17WebFileDownloaderINS0_13WWWRestClientENS0_16WWWRestHeaderMapEE24ExtractResponseEtagValueEv
2512:__ZN19CloudServiceHandler8SaveFileERKN4core12basic_stringIcNS0_20StringStorageDefaultIcEEEES6_
2513:__ZN19CloudServiceHandler8SaveFileERKN4core12basic_stringIcNS0_20StringStorageDefaultIcEEEEPKvj
2514:__ZN19CloudServiceHandler15RestoreDataFileERKN4core12basic_stringIcNS0_20StringStorageDefaultIcEEEERS4_
2515:__ZN19CloudServiceHandler20RestoreDataFileAsyncERKN4core12basic_stringIcNS0_20StringStorageDefaultIcEEEE
2516:__ZZN23CloudWebServicesManagerC1E18MemLabelIdentifier18ObjectCreationModeEN39EarlyUpdateCloudWebServicesUpdatestruct7ForwardEv
2517:__ZN23CloudWebServicesManager23PlayerLoopHandlerStaticEv
2518:__ZN23CloudWebServicesManager15GetCloudServiceEN19CloudServiceHandler11ServiceTypeE
2519:__ZNSt3__23mapIN19CloudServiceHandler11ServiceTypeEPS1_NS_4lessIS2_EE13stl_allocatorINS_4pairIKS2_S3_EEL18MemLabelIdentifier85ELi16EEEixERS8_
2520:__Z13RegisterClassI23CloudWebServicesManagerEvv
2521:__ZN13ProduceHelperI23CloudWebServicesManagerLb0EE7ProduceE18MemLabelIdentifier18ObjectCreationMode
2522:__Z31RegisterModule_CloudWebServicesv
2523:__ZN11UnityEngine15CloudWebService17CloudServiceEventC2EPKcNS0_15CloudEventFlagsE
2524:__ZNK13EmscriptenWWW6GetETAEv
2525:__ZNK3WWW6IsDoneEv
2526:__ZNK13EmscriptenWWW11GetProgressEv
2527:__ZNK13EmscriptenWWW17GetUploadProgressEv
2528:__ZN3WWW8GetErrorEv
2529:__ZN3WWW8SetErrorERKN4core12basic_stringIcNS0_20StringStorageDefaultIcEEEE
2530:__ZNK13EmscriptenWWW6GetUrlEv
2531:__ZN3WWW18GetResponseHeadersEv
2532:__ZN13EmscriptenWWW23HasDownloadedOrMayBlockEv
2533:__ZN13EmscriptenWWW14BlockUntilDoneEv
2534:__ZNK3WWW8IsCachedEv
2535:__ZN3WWW12SetAudioClipEP9AudioClip
2536:__ZNK13EmscriptenWWW17IsDownloadingDoneEv
2537:__ZN13EmscriptenWWWD2Ev
2538:__ZN13EmscriptenWWWD0Ev
2539:__Z19free_alloc_internalPv18MemLabelIdentifier
2540:__ZN3WWWD2Ev
2541:__ZdlPv
2542:__ZN13MemoryManagerC2Ev
2543:__ZN13MemoryManager10DeallocateEPv18MemLabelIdentifier
2544:__ZN13MemoryManager25GetAllocatorContainingPtrEPKv
2545:__ZN12TLSAllocatorI14StackAllocatorE13TryDeallocateEPv
2546:__ZN14StackAllocator13TryDeallocateEPv
2547:__Z16GetMemoryManagerv
2548:__ZN13MemoryManager12GetAllocatorE18MemLabelIdentifier
2549:__ZN20DynamicHeapAllocatorI17LowLevelAllocatorEC2EjjbP15BucketAllocatorPKc
2550:__ZN20DynamicHeapAllocatorI17LowLevelAllocatorED2Ev
2551:__ZN20DynamicHeapAllocatorI17LowLevelAllocatorED0Ev
2552:__ZN20DynamicHeapAllocatorI17LowLevelAllocatorE8AllocateEji
2553:__ZN20DynamicHeapAllocatorI17LowLevelAllocatorE10ReallocateEPvji
2554:__ZN20DynamicHeapAllocatorI17LowLevelAllocatorE10DeallocateEPv
2555:__ZN20DynamicHeapAllocatorI17LowLevelAllocatorE13TryDeallocateEPv
2556:__ZNK20DynamicHeapAllocatorI17LowLevelAllocatorE8ContainsEPKv
2557:__ZNK20DynamicHeapAllocatorI17LowLevelAllocatorE10GetPtrSizeEPKv
2558:__ZN20DynamicHeapAllocatorI17LowLevelAllocatorE14CheckIntegrityEv
2559:__ZNK13BaseAllocator21GetReservedMemorySizeEv
2560:__ZNK13BaseAllocator26GetPeakAllocatedMemorySizeEv
2561:__Z22ValidateTlsfAllocationPvjiS_
2562:_tlsf_walk_heap
2563:_default_walker
2564:_tlsf_block_size
2565:_tlsf_free
2566:__ZN13MemoryManager12LowLevelFreeEPvj
2567:_tlsf_realloc_align
2568:_tlsf_memalign
2569:_block_trim_used
2570:_block_locate_free
2571:_block_prepare_used
2572:__Z6FormatPKcz
2573:__Z17DebugStringToFilePKciS0_i15LogMessageFlagsiiPFvRK11CppLogEntryE
2574:__ZN13MemoryManager16LowLevelAllocateEj
2575:_tlsf_create
2576:_printf_console
2577:__Z17DebugStringToFileRK21DebugStringToFileData
2578:__Z40DebugStringToFilePostprocessedStacktraceRK21DebugStringToFileData
2579:__ZN15GlobalCallbacks3GetEv
2580:__Z15CleanLogHandler7LogTypePKcz
2581:__ZL20InternalErrorConsolePKcz
2582:__ZL21InternalAssertConsolePKcz
2583:__ZL18InternalLogConsolePKcz
2584:__ZL22InternalWarningConsolePKcz
2585:__ZN14UnityWebStream7ReleaseEv
2586:__ZN3WWW7ReleaseEv
2587:__ZN3WWWD0Ev
2588:__ZNK14UnityWebStream8IsCachedEv
2589:__ZN3WWW20GetCachedErrorStringEv
2590:__ZNK14UnityWebStream10IsFinishedEv
2591:__ZN13ScreenManager17RequestResolutionEiibi
2592:__ZN13ScreenManager22SetRequestedResolutionEv
2593:__ZN18ScreenManagerWebGL22SetResolutionImmediateEiibi
2594:__ZN13ScreenManager14GetResolutionsEib
2595:__ZNK13ScreenManager19GetSystemResolutionEv
2596:__ZNK18ScreenManagerWebGL20GetCurrentResolutionEv
2597:__ZNK18ScreenManagerWebGL13GetShowCursorEv
2598:__ZN18ScreenManagerWebGL13SetShowCursorEb
2599:__ZNK18ScreenManagerWebGL13GetLockCursorEv
2600:__ZN18ScreenManagerWebGL13SetLockCursorE14CursorLockMode
2601:__ZNK13ScreenManager16GetScreenTimeoutEv
2602:__ZNK13ScreenManager21GetCursorInsideWindowEv
2603:__ZN18ScreenManagerWebGL21SetCursorInsideWindowEb
2604:__ZNK18ScreenManagerWebGL8GetWidthEv
2605:__ZNK18ScreenManagerWebGL9GetHeightEv
2606:__ZN13ScreenManager26ReapplyRequestedResolutionEv
2607:__ZNK13ScreenManager6GetDPIEv
2608:__ZNK18ScreenManagerWebGL12IsFullScreenEv
2609:__ZNK13ScreenManager20GetScreenOrientationEv
2610:__ZN13ScreenManager20SetScreenOrientationE17ScreenOrientation
2611:__ZN13ScreenManager23SetIsOrientationEnabledE18EnabledOrientationb
2612:__ZN20LocalFileSystemPosixD2Ev
2613:__ZN20LocalFileSystemWebGLD0Ev
2614:__ZN20LocalFileSystemPosix4OpenER13FileEntryData14FilePermission16FileAutoBehavior
2615:__ZN20LocalFileSystemPosix4ReadER13FileEntryDatayyPvPy
2616:__ZN20LocalFileSystemPosix4ReadER13FileEntryDatayPvPy
2617:__ZN20LocalFileSystemPosix5WriteER13FileEntryDatayyPvPy
2618:__ZN20LocalFileSystemPosix5WriteER13FileEntryDatayPvPy
2619:__ZN20LocalFileSystemWebGL5CloseER13FileEntryData
2620:__ZN20LocalFileSystemPosix4SeekER13FileEntryDatax10FileOrigin
2621:__ZNK20LocalFileSystemPosix8PositionERK13FileEntryData
2622:__ZN20LocalFileSystemPosix9SetLengthER13FileEntryDatay
2623:__ZNK20LocalFileSystemPosix4SizeERK13FileEntryData
2624:__ZNK22LocalFileSystemHandler9CanHandleEPKc
2625:__ZN20LocalFileSystemPosix10ToAbsoluteEPKc
2626:__ZN22LocalFileSystemHandler18IsAbsoluteFilePathEPKc
2627:__ZN22LocalFileSystemHandler19InitializeFileEntryER13FileEntryData
2628:__ZN22LocalFileSystemHandler4NameEv
2629:__ZNK20LocalFileSystemPosix6ParentERK13FileEntryDataRN4core12basic_stringIcNS3_20StringStorageDefaultIcEEEE
2630:__ZNK20LocalFileSystemPosix8FilenameERK13FileEntryData
2631:__ZNK20LocalFileSystemPosix5IsDirERK13FileEntryData
2632:__ZNK20LocalFileSystemPosix9IsSymLinkERK13FileEntryData
2633:__ZNK20LocalFileSystemPosix12LastModifiedERK13FileEntryData
2634:__ZN20LocalFileSystemPosix8IsLockedERK13FileEntryData
2635:__ZN17FileSystemHandler11HasFastHashERK13FileEntryDataR7Hash128
2636:__ZN20LocalFileSystemPosix8SetFlagsER13FileEntryDatajj
2637:__ZN20LocalFileSystemPosix12CreateAsFileER13FileEntryData
2638:__ZN20LocalFileSystemPosix11CreateAsDirER13FileEntryData
2639:__ZN20LocalFileSystemWebGL6DeleteER13FileEntryDatab
2640:__ZN17FileSystemHandler11MoveToTrashER13FileEntryData
2641:__ZNK20LocalFileSystemPosix6TargetERK13FileEntryDataR15FileSystemEntry
2642:__ZN20LocalFileSystemPosix4LockER13FileEntryData12FileLockMode
2643:__ZN20LocalFileSystemWebGL4CopyER13FileEntryDataS1_
2644:__ZN20LocalFileSystemWebGL10AtomicMoveER13FileEntryDataS1_
2645:__ZNK17FileSystemHandler12GetAssetGUIDERK13FileEntryData
2646:__ZN22LocalFileSystemHandler9MakeLocalER13FileEntryDatab
2647:__ZNK20LocalFileSystemPosix9EnumerateEPKcP13dynamic_arrayI13FileEntryInfoLj8EEbPPv19FileEnumerationFlag
2648:__ZN20LocalFileSystemPosix5TouchER13FileEntryData
2649:__ZNK20LocalFileSystemPosix6ExistsERK13FileEntryData
2650:__ZNK17FileSystemHandler31CreateFileWithContentAtomicallyERK13FileEntryDataPKvy
2651:__ZNK20LocalFileSystemPosix18GetApplicationPathEv
2652:__ZNK20LocalFileSystemPosix20GetApplicationFolderEv
2653:__ZNK20LocalFileSystemPosix25GetApplicationManagedPathEv
2654:__ZNK20LocalFileSystemPosix26GetApplicationContentsPathEv
2655:__ZNK20LocalFileSystemPosix21GetUserAppCacheFolderEv
2656:__ZNK20LocalFileSystemPosix20GetUserAppDataFolderEv
2657:__ZNK20LocalFileSystemPosix19GetUserConfigFolderEv
2658:__ZN22LocalFileSystemHandler16LastErrorMessageEv
2659:__ZNK20LocalFileSystemPosix21GetAvailableDiskSpaceEPKcRy
2660:__Z14AppendPathNameRKN4core12basic_stringIcNS_20StringStorageDefaultIcEEEES5_
2661:__Z18IsDirectoryCreatedRKN4core12basic_stringIcNS_20StringStorageDefaultIcEEEE
2662:__Z13GetFileSystemv
2663:__ZNK10FileSystem10ToAbsoluteEPKc
2664:__ZNK15FileSystemEntry12FolderExistsEv
2665:__ZN13FileEntryDataD2Ev
2666:__ZN15FileSystemEntryC2EPKc
2667:__ZN15FileSystemEntry3SetEPKc
2668:__Z24ConvertSeparatorsToUnityPc
2669:__ZL18AppendPathNameImplRKN4core12basic_stringIcNS_20StringStorageDefaultIcEEEES5_cRS3_
2670:__Z15CreateDirectoryRKN4core12basic_stringIcNS_20StringStorageDefaultIcEEEE
2671:__ZNK15FileSystemEntry6ExistsEv
2672:__ZNK15FileSystemEntry5IsDirEv
2673:__ZN15FileSystemEntry11CreateAsDirEv
2674:__ZNK10FileSystem16LastErrorMessageEv
2675:__ZNK10FileSystem16CurrentDirectoryEv
2676:__Z27DeleteLastPathNameComponentRKN4core12basic_stringIcNS_20StringStorageDefaultIcEEEE
2677:__ZL31DeleteLastPathNameComponentImplRKN4core12basic_stringIcNS_20StringStorageDefaultIcEEEEPKc
2678:__Z16realloc_internalPvjj18MemLabelIdentifier15AllocateOptionsPKci
2679:__Z15malloc_internaljj18MemLabelIdentifier15AllocateOptionsPKci
2680:__Z19UnixTimeToUnityTimelR8DateTime
2681:__Z16FlaggedAsSkippedIA256_cEbRK13FileEntryInfoRKT_19FileEnumerationFlag
2682:__Z7StrICmpPKcS0_
2683:__Z8EndsWithPKcjS0_j
2684:__Z23EndsWithCaseInsensitivePKcjS0_j
2685:__ZN13MemoryManager8AllocateEjj18MemLabelIdentifier15AllocateOptionsPKci
2686:__ZN12TLSAllocatorI14StackAllocatorE8AllocateEji
2687:__ZL16OutOfMemoryErrorjj18MemLabelIdentifieriPKc
2688:__Z13VFormatBufferPciPKcz
2689:__ZN14StackAllocator8AllocateEji
2690:__ZN13MemoryManager10ReallocateEPvjj18MemLabelIdentifier15AllocateOptionsPKci
2691:__ZN12TLSAllocatorI14StackAllocatorE10ReallocateEPvji
2692:__ZN14StackAllocator10ReallocateEPvji
2693:__ZN20LocalFileSystemPosix10AtomicMoveER13FileEntryDataS1_
2694:__ZN20LocalFileSystemPosix4CopyER13FileEntryDataS1_
2695:__ZN12FileAccessor4OpenEPKc14FilePermission16FileAutoBehavior
2696:__ZN12FileAccessorD2Ev
2697:__ZN12FileAccessorD0Ev
2698:__ZN20LocalFileSystemPosix6DeleteER13FileEntryDatab
2699:__Z23GetFolderContentsAtPathRKN4core12basic_stringIcNS_20StringStorageDefaultIcEEEERNSt3__23setIS3_NS6_4lessIS3_EENS6_9allocatorIS3_EEEE22FolderContentsPathModeS5_
2700:__Z22IsFileOrDirectoryInUseRKN4core12basic_stringIcNS_20StringStorageDefaultIcEEEE
2701:__ZNSt3__26__treeIN4core12basic_stringIcNS1_20StringStorageDefaultIcEEEENS_4lessIS5_EENS_9allocatorIS5_EEE7destroyEPNS_11__tree_nodeIS5_PvEE
2702:__Z13IsFileCreatedRKN4core12basic_stringIcNS_20StringStorageDefaultIcEEEE
2703:__ZN15FileSystemEntry8IsLockedEv
2704:__Z23GetFolderContentsAtPathRKN4core12basic_stringIcNS_20StringStorageDefaultIcEEEE19FileEnumerationFlagRNSt3__23setIS3_NS7_4lessIS3_EENS7_9allocatorIS3_EEEE22FolderContentsPathModeS5_
2705:__ZNK15FileSystemEntry4PathEv
2706:__ZNK10FileSystem9EnumerateEPKcP13dynamic_arrayI13FileEntryInfoLj8EEb19FileEnumerationFlag
2707:__ZL33FileEntryInfoListToFolderContentsRKN4core12basic_stringIcNS_20StringStorageDefaultIcEEEERK13dynamic_arrayI13FileEntryInfoLj8EERNSt3__23setIS3_NSB_4lessIS3_EENSB_9allocatorIS3_EEEE
2708:__ZL41FileEntryInfoListToFolderContentsAbsoluteRK13dynamic_arrayI13FileEntryInfoLj8EERNSt3__23setIN4core12basic_stringIcNS6_20StringStorageDefaultIcEEEENS4_4lessISA_EENS4_9allocatorISA_EEEE
2709:__Znwj
2710:__ZN8DateTimeC2Ev
2711:__ZN20LocalFileSystemPosix5CloseER13FileEntryData
2712:__GLOBAL__sub_I_platformdependent_webgl_source_lump_cpp
2713:___cxx_global_var_init_2
2714:__GLOBAL__sub_I_runtime_assetbundles_lump_cpp
2715:__GLOBAL__sub_I_runtime_baseclasses_lump_cpp
2716:__GLOBAL__sub_I_runtime_baseclasses2_lump_cpp
2717:__GLOBAL__sub_I_runtime_camera_lump_cpp
2718:__GLOBAL__sub_I_runtime_camera2_lump_cpp
2719:__GLOBAL__sub_I_runtime_camera3_lump_cpp
2720:__GLOBAL__sub_I_runtime_camera4_lump_cpp
2721:__GLOBAL__sub_I_runtime_camera_renderlayers_lump_cpp
2722:__GLOBAL__sub_I_runtime_camera_renderloops_lump_cpp
2723:__GLOBAL__sub_I_runtime_core_callbacks_lump_cpp
2724:__GLOBAL__sub_I_runtime_geometry_lump_cpp
2725:__GLOBAL__sub_I_runtime_gfxdevice_lump_cpp
2726:__GLOBAL__sub_I_runtime_gfxdevice2_lump_cpp
2727:__GLOBAL__sub_I_runtime_graphics_lump_cpp
2728:__GLOBAL__sub_I_runtime_graphics4_lump_cpp
2729:__GLOBAL__sub_I_runtime_graphics5_lump_cpp
2730:__GLOBAL__sub_I_runtime_graphics_billboard_lump_cpp
2731:__GLOBAL__sub_I_runtime_graphics_lod_lump_cpp
2732:__GLOBAL__sub_I_runtime_graphics_mesh_lump_cpp
2733:__GLOBAL__sub_I_runtime_graphics_mesh2_lump_cpp
2734:__GLOBAL__sub_I_runtime_input_lump_cpp
2735:__GLOBAL__sub_I_runtime_interfaces_lump_cpp
2736:__GLOBAL__sub_I_runtime_math_random_lump_cpp
2737:__GLOBAL__sub_I_runtime_misc_lump_cpp
2738:__GLOBAL__sub_I_runtime_preloadmanager_lump_cpp
2739:__GLOBAL__sub_I_runtime_scenemanager_lump_cpp
2740:__GLOBAL__sub_I_runtime_scripting_lump_cpp
2741:__GLOBAL__sub_I_runtime_shaders_lump_cpp
2742:__GLOBAL__sub_I_runtime_shaders_shaderimpl_lump_cpp
2743:__GLOBAL__sub_I_runtime_terrain_lump_cpp
2744:__GLOBAL__sub_I_runtime_transform_lump_cpp
2745:__GLOBAL__sub_I_runtime_utilities_lump_cpp
2746:__GLOBAL__sub_I_runtime_utilities2_lump_cpp
2747:__GLOBAL__sub_I_runtime_utilities3_lump_cpp
2748:__GLOBAL__sub_I_half_cpp
2749:__GLOBAL__sub_I_SpriteRendererJobs_cpp
2750:__GLOBAL__sub_I_Player_cpp
2751:__GLOBAL__sub_I_GlslGpuProgramGLES_cpp
2752:__ZL25InitializeUnityWebStreamsPv
2753:__ZL22CleanupUnityWebStreamsPv
2754:__ZN35RegisterRuntimeInitializeAndCleanupC2EPFvPvES2_iS0_
2755:__ZN13RuntimeStaticINSt3__23mapIy8TFShaderNS0_4lessIyEENS0_9allocatorINS0_4pairIKyS2_EEEEEELb0EE13StaticDestroyEPv
2756:__ZN35RegisterRuntimeInitializeAndCleanup8RegisterEPFvPvES2_iS0_
2757:__ZNSt3__26__treeINS_12__value_typeIj25DeferredSkinningOperationEENS_19__map_value_compareIjS3_NS_4lessIjEELb1EEENS_9allocatorIS3_EEE7destroyEPNS_11__tree_nodeIS3_PvEE
2758:__ZNSt3__26__treeINS_12__value_typeIy8TFShaderEENS_19__map_value_compareIyS3_NS_4lessIyEELb1EEENS_9allocatorIS3_EEE7destroyEPNS_11__tree_nodeIS3_PvEE
2759:__ZL25DestroySparseTexturesGLESPv
2760:__ZNSt3__26__treeINS_12__value_typeI9TextureID21SparseTextureInfoGLESEENS_19__map_value_compareIS2_S4_NS_4lessIS2_EELb1EEENS_9allocatorIS4_EEE7destroyEPNS_11__tree_nodeIS4_PvEE
2761:__ZN12_GLOBAL__N_138ArchiveRedirectFileSystemStaticDestroyEPv
2762:__ZL19StaticCleanupPlayerPv
2763:__ZN17MessageIdentifierC2EPKcNS_7OptionsEPKN5Unity4TypeES1_
2764:__Znwj18MemLabelIdentifierjPKci
2765:__ZN13RuntimeStaticI15DirectorManagerLb0EE16StaticInitializeEPv
2766:__ZN13RuntimeStaticI15DirectorManagerLb0EE13StaticDestroyEPv
2767:__ZN15DirectorManager14ConnectionPool8DestructEv
2768:__ZN15DirectorManager14ConnectionPool11ClearUnsafeEv
2769:__Z23DestroyMutexLockedStackP16MutexLockedStack
2770:__ZN15DirectorManagerD2Ev
2771:__ZN15DirectorManager23ProcessPlayStateChangesEv
2772:__ZN15DirectorManager12CleanupClassEv
2773:__ZNSt3__26__treeINS_12__value_typeIPvsEENS_19__map_value_compareIS2_S3_NS_4lessIS2_EELb1EEE13stl_allocatorIS3_L18MemLabelIdentifier83ELi16EEE7destroyEPNS_11__tree_nodeIS3_S2_EE
2774:__Z18FlushGraphCommandsR13dynamic_arrayI16GraphCommandPairLj4EER16MutexLockedStack
2775:__ZN13PlayableGraph12PrepareFrameE16PrepareFrameTyped
2776:__ZN13PlayableGraph7DestroyEv
2777:__ZN15DirectorManager21RebuildStageCallbacksEv
2778:__ZN15DirectorManager12RegisterJobsEP13PlayableGraph
2779:__ZNSt3__26vectorI20ProcessCallbackGroupNS_9allocatorIS1_EEE21__push_back_slow_pathIKS1_EEvRT_
2780:__ZN13PlayableGraphD2Ev
2781:__Z18GetDirectorManagerv
2782:__ZN15DirectorManager13FreeGraphNodeEP10HGraphNode
2783:__ZN13PlayableGraph23DestroyPendingPlayablesEv
2784:__ZN13PlayableGraph14DestroyOutputsEv
2785:__ZN8Playable19PrepareFrameVisitorER19DirectorVisitorInfo
2786:__ZN26RecursivePlayableTraverser8TraverseER19DirectorVisitorInfo
2787:__ZN8Playable16ProcessPlayStateERK19DirectorVisitorInfo
2788:__ZN8Playable16CallOnGraphStartEv
2789:__ZN17ScriptingGCHandle28ResolveBackendNativeGCHandleEj
2790:__Z26scripting_object_get_class18ScriptingObjectPtr
2791:__ZN15DirectorManager29CacheScriptingMethodsForClassE17ScriptingClassPtr
2792:__ZNK15DirectorManager16GetScriptMethodsEs
2793:__ZN18ScriptingArguments9AddStructEPKv
2794:__ZN18ScriptingArguments7AddEnumEi
2795:__ZN19ScriptingInvocation6InvokeEP21ScriptingExceptionPtrb
2796:__ZN8Playable15CallOnGraphStopEv
2797:__Z23scripting_method_invoke18ScriptingMethodPtr18ScriptingObjectPtrR18ScriptingArgumentsP21ScriptingExceptionPtrb
2798:__ZN9Scripting12LogExceptionE21ScriptingExceptionPtriPKc
2799:__Z30scripting_stack_trace_info_for21ScriptingExceptionPtrR14StackTraceInfo
2800:__Z23GetCoreScriptingClassesv
2801:__ZN18ScriptingArguments9AddObjectE18ScriptingObjectPtr
2802:__ZN18ScriptingArguments12AddOutObjectEP18ScriptingObjectPtr
2803:__Z24scripting_cpp_string_for18ScriptingStringPtr
2804:__Z21PostprocessStacktracePKcRN4core12basic_stringIcNS1_20StringStorageDefaultIcEEEE
2805:__ZN18ScriptingArguments9AddStringEPKc
2806:__ZN18ScriptingArguments10AddBooleanEb
2807:__ZN19ScriptingInvocation6InvokeI18ScriptingStringPtrEET_P21ScriptingExceptionPtrb
2808:__ZNK18ScriptingObjectPtr17ToScriptingStringEv
2809:__Z20scripting_string_newPKc
2810:__Z18ConvertUTF16toUTF8PKtiPhRi
2811:__Z18ConvertUTF16toUTF8PPKtS0_PPhS2_15ConversionFlags
2812:__ZL30InitializeCoreScriptingClassesv
2813:__ZL27CleanupCoreScriptingClassesv
2814:__Z27SetupModuleScriptingClassesPFvvES0_
2815:__ZN17CallbackArrayBaseIPFvvEPFvPKvEE8RegisterES1_
2816:__Z12OptionalTypePKcS0_S0_
2817:__Z11RequireTypePKcS0_S0_
2818:__Z13RequireMethodPKcS0_S0_S0_
2819:__Z14OptionalMethodPKcS0_S0_S0_
2820:__Z36scripting_class_get_method_from_name17ScriptingClassPtrPKci
2821:__Z43scripting_class_get_method_from_name_filter17ScriptingClassPtrPKciN24ScriptingMethodFiltering18MethodSearchFilterE
2822:__ZN24ScriptingMethodFiltering17FilterOnSignatureENS_18MethodSearchFilterE
2823:__ZN24ScriptingMethodFiltering36MethodDescriptionMatchesSearchFilterENS_18MethodSearchFilterEbi
2824:__Z29scripting_class_from_fullnamePKcS0_S0_
2825:__Z32scripting_class_get_nested_types17ScriptingClassPtrRNSt3__26vectorIS_13stl_allocatorIS_L18MemLabelIdentifier1ELi16EEEE
2826:__Z24scripting_class_get_name17ScriptingClassPtr
2827:__ZNSt3__26vectorI17ScriptingClassPtr13stl_allocatorIS1_L18MemLabelIdentifier1ELi16EEE21__push_back_slow_pathIKS1_EEvRT_
2828:__Z14GetMonoManagerv
2829:__ZN11MonoManager17GetScriptingClassEPKcS1_S1_
2830:__ZL41AssemblyNameMatchesWithOrWithoutExtensionPKcS0_
2831:__Z24GetLastPathNameComponentRKN4core12basic_stringIcNS_20StringStorageDefaultIcEEEE
2832:__Z23DeletePathNameExtensionRKN4core12basic_stringIcNS_20StringStorageDefaultIcEEEE
2833:__Z21GetManagerFromContexti
2834:__ZNK18ScriptingArguments8GetCountEv
2835:__ZN19ScriptingInvocationC2E18ScriptingMethodPtr
2836:__Z26scripting_class_get_parent17ScriptingClassPtr
2837:__ZN9Scripting29GetFirstNonGenericParentClassE17ScriptingClassPtrS0_
2838:__ZN9Scripting21GetOverrideMethodOnlyEPKc17ScriptingClassPtrS2_
2839:__Z26scripting_class_is_generic17ScriptingClassPtr
2840:__ZN15DirectorManagerC2Ev
2841:__ZN15DirectorManager15InitializeClassEv
2842:__ZZN15DirectorManager15InitializeClassEvEN35EarlyUpdateDirectorSampleTimestruct7ForwardEv
2843:__ZZN15DirectorManager15InitializeClassEvEN40FixedUpdateDirectorFixedSampleTimestruct7ForwardEv
2844:__ZZN15DirectorManager15InitializeClassEvEN36FixedUpdateDirectorFixedUpdatestruct7ForwardEv
2845:__ZZN15DirectorManager15InitializeClassEvEN47FixedUpdateDirectorFixedUpdatePostPhysicsstruct7ForwardEv
2846:__ZZN15DirectorManager15InitializeClassEvEN26UpdateDirectorUpdatestruct7ForwardEv
2847:__ZZN15DirectorManager15InitializeClassEvEN38PostLateUpdateDirectorLateUpdatestruct7ForwardEv
2848:__ZZN15DirectorManager15InitializeClassEvEN44PostLateUpdateDirectorDeferredEvaluatestruct7ForwardEv
2849:__ZZN15DirectorManager15InitializeClassEvEN39PostLateUpdateDirectorRenderImagestruct7ForwardEv
2850:__ZZN15DirectorManager15InitializeClassEvEN47PreLateUpdateDirectorUpdateAnimationBeginstruct7ForwardEv
2851:__ZZN15DirectorManager15InitializeClassEvEN45PreLateUpdateDirectorUpdateAnimationEndstruct7ForwardEv
2852:__ZZN15DirectorManager15InitializeClassEvEN31shutdownBeforeCleanupAllObjects7ForwardEv
2853:__ZZN15DirectorManager15InitializeClassEvEN21enterPlayModePreStart7ForwardEv
2854:__ZN15DirectorManager14ConnectionPool14InitializePoolEjf
2855:__Z22CreateMutexLockedStackv
2856:__ZN17DirectorFrameTime14ResetDSPValuesEv
2857:__Z23IsWorldPlayingThisFramev
2858:__ZN15DirectorManager20ExecutePrepareFramesE13DirectorStage
2859:__ZN15DirectorManager23ExecuteProcessCallbacksE13DirectorStage
2860:__ZNSt3__26vectorI20ProcessCallbackGroupNS_9allocatorIS1_EEEC2ERKS4_
2861:__ZL19PrepareFrameJobFuncP15PrepareFrameJobj
2862:__Z26ScheduleJobForEachInternalR8JobFencePFvPvjES1_iPFvS1_E11JobPriority
2863:__Z21CompleteFenceInternalR8JobFence
2864:__ZN13PlayableGraph25FireConnectionHashChangedEv
2865:__Z22NeedToPerformRenderingv
2866:__Z12GetGfxDevicev
2867:__ZN13PlayableGraph8EvaluateEd
2868:__ZN13PlayableGraph6UpdateEv
2869:__ZN15DirectorManager17OnSampleFixedTimeEv
2870:__Z14GetTimeManagerv
2871:__ZN17DirectorFrameTime10SampleTimeEfff
2872:__ZN15DirectorManager12OnSampleTimeEv
2873:__ZN15DirectorManager14ConnectionPool16GrowEmptyBucketsEv
2874:__ZN15DirectorManager14ConnectionPool10CreateItemEi
2875:__ZN9ShaderLab16FastPropertyName4InitEPKc
2876:__ZN23DefaultMeshVertexFormatC2E17ShaderChannelMask
2877:__Z20IsVectorBuiltinParamPKcPi
2878:__Z20IsMatrixBuiltinParamPKcPi
2879:__Z20IsTexEnvBuiltinParamPKcPi
2880:__ZN11prophecysdk4half8selftestEv
2881:__ZN12UnityVersionC2EPKc
2882:__ZN13RuntimeStaticINSt3__23setI19RepeatingLogMessageNS0_4lessIS2_EE13stl_allocatorIS2_L18MemLabelIdentifier70ELi16EEEELb0EE13StaticDestroyEPv
2883:__ZN10MemoryPool16StaticInitializeEPv
2884:__ZN10MemoryPool13StaticDestroyEPv
2885:__ZNSt3__26__treeI19RepeatingLogMessageNS_4lessIS1_EE13stl_allocatorIS1_L18MemLabelIdentifier70ELi16EEE7destroyEPNS_11__tree_nodeIS1_PvEE
2886:__ZL30InitializeSpeedTreeWindManagerPv
2887:__ZL27DestroySpeedTreeWindManagerPv
2888:__ZN13RuntimeStaticI11WindManagerLb0EE16StaticInitializeEPv
2889:__ZN13RuntimeStaticI11WindManagerLb0EE13StaticDestroyEPv
2890:__ZN10MemoryPoolD2Ev
2891:__ZZN20SpeedTreeWindManagerC1EvEN25PreUpdateWindUpdatestruct7ForwardEv
2892:__ZN20SpeedTreeWindManager21PrepareWindPropertiesER19ShaderPropertySheetb
2893:__ZN19ShaderPropertySheet11ComputeHashEv
2894:_XXH32
2895:__ZN19ShaderPropertySheet5ClearEb
2896:__ZN19ShaderPropertySheet20ReservePropertyCountEj
2897:__ZN19ShaderPropertySheet8SetFloatEN9ShaderLab16FastPropertyNameEfNS_8SetFlagsE
2898:__ZN19ShaderPropertySheet9SetVectorEN9ShaderLab16FastPropertyNameERK8Vector4fNS_8SetFlagsE
2899:__ZN19ShaderPropertySheet27AddNewPropertyUninitializedEN9ShaderLab16FastPropertyNameENS_12PropertyTypeEj
2900:__Z19GetActiveColorSpacev
2901:__Z20GetPlayerSettingsPtrv
2902:__ZNK14PlayerSettings13GetColorSpaceEv
2903:__ZN19ShaderPropertySheetD2Ev
2904:__ZN19ShaderPropertySheetD0Ev
2905:__ZN20SpeedTreeWindManager6UpdateEf
2906:__ZNK8WindZone17ComputeWindVectorERK4AABBR8Vector4f
2907:__ZN13SpeedTreeWind23SetDirectionAndStrengthERK8Vector4f
2908:__ZN13SpeedTreeWind7AdvanceEbd
2909:__ZN13SpeedTreeWind4GustEdd
2910:__ZNK10GameObject20QueryComponentByTypeEPKN5Unity4TypeE
2911:__ZNK9Transform11GetPositionEv
2912:__ZNK9Transform18TransformDirectionERK8Vector3f
2913:__Z20CalculateSqrDistanceRK8Vector3fRK4AABB
2914:__Z18TransformDirection23TransformAccessReadOnlyRKN4math7_float3E
2915:__ZN10MemoryPoolC2E18MemLabelIdentifierbPKciii
2916:__ZN9ShaderLab19CommonPropertyNames16StaticInitializeEPv
2917:__ZN9ShaderLab19CommonPropertyNames13StaticCleanupEPv
2918:__ZN13RuntimeStaticIN4core12basic_stringIcNS0_20StringStorageDefaultIcEEEELb0EE16StaticInitializeEPv
2919:__ZN13RuntimeStaticIN4core12basic_stringIcNS0_20StringStorageDefaultIcEEEELb0EE13StaticDestroyEPv
2920:__ZN9ShaderLabL25StaticInitializeShaderLabEPv
2921:__ZN9ShaderLabL22StaticDestroyShaderLabEPv
2922:__ZNSt3__25stackIPN9ShaderLab21SerializedShaderStateENS_5dequeIS3_NS_9allocatorIS3_EEEEED2Ev
2923:__ZN8keywords7CleanupEv
2924:__ZN9shadertag7CleanupEv
2925:__ZNSt3__26__treeINS_12__value_typeIPKc11ShaderTagIDEENS_19__map_value_compareIS3_S5_27compare_tstring_insensitiveIS3_ELb1EEENS_9allocatorIS5_EEE7destroyEPNS_11__tree_nodeIS5_PvEE
2926:__ZNSt3__26__treeINS_12__value_typeIPKciEENS_19__map_value_compareIS3_S4_15compare_tstringIS3_ELb1EEENS_9allocatorIS4_EEE7destroyEPNS_11__tree_nodeIS4_PvEE
2927:__ZN8keywords10InitializeEv
2928:__ZN9shadertag10InitializeEv
2929:__ZN9shadertag14GetShaderTagIDERKN4core12basic_stringIcNS0_20StringStorageDefaultIcEEEE
2930:__ZN8keywords6CreateEPKc
2931:__Z6StrCmpPKcS0_
2932:__Z27LogRepeatingStringWithFlagsRKN4core12basic_stringIcNS_20StringStorageDefaultIcEEEE15LogMessageFlagsi
2933:__ZNSt3__26__treeI19RepeatingLogMessageNS_4lessIS1_EE13stl_allocatorIS1_L18MemLabelIdentifier70ELi16EEE4findIS1_EENS_15__tree_iteratorIS1_PNS_11__tree_nodeIS1_PvEEiEERKT_
2934:__ZNSt3__26__treeI19RepeatingLogMessageNS_4lessIS1_EE13stl_allocatorIS1_L18MemLabelIdentifier70ELi16EEE12__find_equalIS1_EERPNS_16__tree_node_baseIPvEESD_RKT_
2935:__ZNSt3__26__treeINS_12__value_typeIPKciEENS_19__map_value_compareIS3_S4_N9ShaderLab14CStringCompareELb1EEENS_9allocatorIS4_EEE7destroyEPNS_11__tree_nodeIS4_PvEE
2936:__Z30CleanupBuiltinShaderParamNamesv
2937:__Z33InitializeBuiltinShaderParamNamesv
2938:__ZNSt3__26__sortIRNS_6__lessIN12_GLOBAL__N_114ParamNameIndexES3_EEPS3_EEvT0_S7_T_
2939:__ZN12_GLOBAL__N_115ParamNameLookup15AddBuiltinNamesEPPKcjb
2940:__ZNSt3__27__sort3IRNS_6__lessIN12_GLOBAL__N_114ParamNameIndexES3_EEPS3_EEjT0_S7_S7_T_
2941:__ZNSt3__27__sort4IRNS_6__lessIN12_GLOBAL__N_114ParamNameIndexES3_EEPS3_EEjT0_S7_S7_S7_T_
2942:__ZNSt3__27__sort5IRNS_6__lessIN12_GLOBAL__N_114ParamNameIndexES3_EEPS3_EEjT0_S7_S7_S7_S7_T_
2943:__ZNSt3__227__insertion_sort_incompleteIRNS_6__lessIN12_GLOBAL__N_114ParamNameIndexES3_EEPS3_EEbT0_S7_T_
2944:__ZN13RuntimeStaticI12GraphicsCapsLb0EE16StaticInitializeEPv
2945:__ZN13RuntimeStaticI12GraphicsCapsLb0EE13StaticDestroyEPv
2946:__ZL19StaticDestroyShaderPv
2947:__ZN12GraphicsCapsD2Ev
2948:__ZN16GraphicsCapsGLESC2Ev
2949:__ZN13RuntimeStaticINSt3__23mapINS0_4pairIPcS3_EEPFbPvR14SafeBinaryReadE20smaller_tstring_pairIPKcENS0_9allocatorINS2_IKS4_S9_EEEEEELb0EE13StaticDestroyES5_
2950:__ZL30InitializeGlobalNameConversionPv
2951:__ZL27CleanupGlobalNameConversionPv
2952:__ZNSt3__26__treeINS_12__value_typeINS_4pairIPcS3_EENS_3setIS3_15compare_tstringIPKcENS_9allocatorIS3_EEEEEENS_19__map_value_compareIS4_SD_20smaller_tstring_pairIS8_ELb1EEENSA_ISD_EEE7destroyEPNS_11__tree_nodeISD_PvEE
2953:__ZNSt3__26__treeIPc15compare_tstringIPKcENS_9allocatorIS1_EEE7destroyEPNS_11__tree_nodeIS1_PvEE
2954:__ZNSt3__26__treeINS_12__value_typeINS_4pairIPcS3_EEPFbPvR14SafeBinaryReadEEENS_19__map_value_compareIS4_SA_20smaller_tstring_pairIPKcELb1EEENS_9allocatorISA_EEE7destroyEPNS_11__tree_nodeISA_S5_EE
2955:__ZN13RuntimeStaticINSt3__23mapIN4core12basic_stringIcNS2_20StringStorageDefaultIcEEEEPvNS0_4lessIS6_EENS0_9allocatorINS0_4pairIKS6_S7_EEEEEELb0EE13StaticDestroyES7_
2956:__ZNSt3__26__treeINS_12__value_typeIN4core12basic_stringIcNS2_20StringStorageDefaultIcEEEEPvEENS_19__map_value_compareIS6_S8_NS_4lessIS6_EELb1EEENS_9allocatorIS8_EEE7destroyEPNS_11__tree_nodeIS8_S7_EE
2957:__ZL35StaticInitializeRuntimeSceneManagerPv
2958:__ZL32StaticDestroyRuntimeSceneManagerPv
2959:__ZN19RuntimeSceneManagerC2Ev
2960:__ZL32MarkLevelGameManagerDependenciesR27GarbageCollectorThreadState
2961:__ZL16SceneWasUnloadedi
2962:__ZL18ActiveSceneChangedP10UnitySceneS0_
2963:__Z20MarkInstanceIDAsRootiR27GarbageCollectorThreadState
2964:__ZN19RuntimeSceneManagerD2Ev
2965:__ZN19RuntimeSceneManagerD0Ev
2966:__ZN19RuntimeSceneManager8GetSceneEi
2967:__ZN19RuntimeSceneManager11MergeScenesER10UnitySceneS1_
2968:__ZN19RuntimeSceneManager14CanUnloadSceneEP10UnityScene
2969:__ZN19RuntimeSceneManager19UnloadSceneInternalEP10UnityScene
2970:__ZN10UnityScene43RegisterLevelGameManagersWithManagerContextEv
2971:__Z22DestroyObjectHighLevelP6Objectb
2972:__ZN10UnityScene23UnloadLevelGameManagersEv
2973:__Z31ReadObjectFromPersistentManageri
2974:__Z20GetPersistentManagerv
2975:__ZN17PersistentManager10ReadObjectEi17AwakeFromLoadMode
2976:__ZN17PersistentManager48IntegrateObjectAndUnlockIntegrationMutexInternalEi
2977:__ZN17PersistentManager18ReadObjectThreadedEi
2978:__ZN17PersistentManager40LoadRemainingPreallocatedObjectsInternalEv
2979:__ZN17PersistentManager27IntegrateAllThreadedObjectsEv
2980:__ZN17PersistentManager32CopyToAwakeFromLoadQueueInternalER18AwakeFromLoadQueue
2981:__ZN6Object24RegisterInstanceIDNoLockEPS_
2982:__ZL20SortItemByInstanceIDRKN18AwakeFromLoadQueue4ItemES2_
2983:__ZNSt3__26__sortIRPFbRKN18AwakeFromLoadQueue4ItemES4_EPS2_EEvT0_S9_T_
2984:__Z24SetExecutionRestrictions21ExecutionRestrictions
2985:__ZN18AwakeFromLoadQueue28InvokePersistentManagerAwakeEPNS_4ItemEj17AwakeFromLoadMode
2986:__Z63ThreadAndSerializationSafeCheckGetMonoBehaviourBeingTransferredv
2987:__Z63ThreadAndSerializationSafeCheckSetMonoBehaviourBeingTransferredP13MonoBehaviour
2988:__ZNSt3__27__sort4IRPFbRKN18AwakeFromLoadQueue4ItemES4_EPS2_EEjT0_S9_S9_S9_T_
2989:__ZNSt3__218__insertion_sort_3IRPFbRKN18AwakeFromLoadQueue4ItemES4_EPS2_EEvT0_S9_T_
2990:__ZNSt3__227__insertion_sort_incompleteIRPFbRKN18AwakeFromLoadQueue4ItemES4_EPS2_EEbT0_S9_T_
2991:__ZN15dense_hashtableINSt3__24pairIKiP6ObjectEEi21InstanceIDHashFunctorN14dense_hash_mapIiS4_S6_NS0_8equal_toIiEE13stl_allocatorIS5_L18MemLabelIdentifier65ELi16EEE9SelectKeyES9_SC_E12resize_deltaEjj
2992:__ZN15dense_hashtableINSt3__24pairIKiP6ObjectEEi21InstanceIDHashFunctorN14dense_hash_mapIiS4_S6_NS0_8equal_toIiEE13stl_allocatorIS5_L18MemLabelIdentifier65ELi16EEE9SelectKeyES9_SC_E12maybe_shrinkEv
2993:__ZN15dense_hashtableINSt3__24pairIKiP6ObjectEEi21InstanceIDHashFunctorN14dense_hash_mapIiS4_S6_NS0_8equal_toIiEE13stl_allocatorIS5_L18MemLabelIdentifier65ELi16EEE9SelectKeyES9_SC_E9copy_fromERKSF_j
2994:__ZN18AwakeFromLoadQueue3AddER6ObjectPK8TypeTreeb17AwakeFromLoadMode
2995:__ZN18AwakeFromLoadQueue19DetermineQueueIndexEPKN5Unity4TypeER6Object
2996:__Z24GetExecutionOrderManagerv
2997:__ZNK21ExecutionOrderManager30GetCustomAwakeFromLoadQueueForEPKN5Unity4TypeE
2998:__ZNK15dense_hashtableINSt3__24pairIKi17ThreadedAwakeDataEEi21InstanceIDHashFunctorN14dense_hash_mapIiS3_S5_NS0_8equal_toIiEENS0_9allocatorIS4_EEE9SelectKeyES8_SA_E13find_positionERS2_
2999:__ZN17PersistentManager26GetStreamNameSpaceInternalEi
3000:__ZNK14SerializedFile11IsAvailableEx
3001:__ZN17PersistentManager32CreateThreadActivationQueueEntryER14SerializedFile26SerializedObjectIdentifierib
3002:__ZN14SerializedFile10ReadObjectEx18ObjectCreationModebPPK8TypeTreePbR6Object
3003:__Z16GenerateTypeTreeRK6ObjectR8TypeTree24TransferInstructionFlags
3004:__Z26IsStreamedBinaryCompatibleRK16TypeTreeIteratorS1_
3005:__ZN6Object15SetIsPersistentEb
3006:__ZNK6Object14GetMemoryLabelEv
3007:__ZN14SafeBinaryRead4InitERK16TypeTreeIteratorxx24TransferInstructionFlags18MemLabelIdentifier
3008:__ZN12CachedReader8InitReadER15CacheReaderBasejj
3009:__ZN12CachedReader3EndEv
3010:__ZL23OutOfBoundsReadingErrorPKN5Unity4TypeEiiR6Object
3011:__ZN12CachedReader18InitResourceImagesER18ResourceImageGroup
3012:__ZN12CachedReaderC2Ev
3013:__ZN14SafeBinaryReadD2Ev
3014:__ZNK10MonoScript22GetScriptFullClassNameEv
3015:__ZN12CachedReader16OutOfBoundsErrorEjj
3016:__ZN14SafeBinaryReadC2Ev
3017:__ZN8TypeTreeaSERKS_
3018:__Z29scripting_class_instance_size17ScriptingClassPtr
3019:__ZN24GenerateTypeTreeTransfer18SetScriptingObjectE18ScriptingObjectPtri
3020:__ZN24GenerateTypeTreeTransferC2ER8TypeTree24TransferInstructionFlagsPvi
3021:__ZN8TypeTreeC2E18MemLabelIdentifier
3022:__ZN17PersistentManager21ProduceObjectInternalER14SerializedFile26SerializedObjectIdentifierii
3023:__ZN15dense_hashtableINSt3__24pairIKi17ThreadedAwakeDataEEi21InstanceIDHashFunctorN14dense_hash_mapIiS3_S5_NS0_8equal_toIiEENS0_9allocatorIS4_EEE9SelectKeyES8_SA_E12resize_deltaEjj
3024:__ZN15dense_hashtableINSt3__24pairIKi17ThreadedAwakeDataEEi21InstanceIDHashFunctorN14dense_hash_mapIiS3_S5_NS0_8equal_toIiEENS0_9allocatorIS4_EEE9SelectKeyES8_SA_E12maybe_shrinkEv
3025:__ZN15dense_hashtableINSt3__24pairIKi17ThreadedAwakeDataEEi21InstanceIDHashFunctorN14dense_hash_mapIiS3_S5_NS0_8equal_toIiEENS0_9allocatorIS4_EEE9SelectKeyES8_SA_E9copy_fromERKSD_j
3026:__ZN14SerializedFile14GetProduceDataExRPKN5Unity4TypeER31LocalSerializedObjectIdentifierR18MemLabelIdentifier
3027:__ZN6Object7ProduceEPKN5Unity4TypeEi18MemLabelIdentifier18ObjectCreationMode
3028:__ZN8Remapper23GetOrGenerateInstanceIDERK26SerializedObjectIdentifier
3029:__Z38PreallocateObjectFromPersistentManagerib
3030:__ZN10MonoScript8GetClassEv
3031:__ZN13MonoBehaviour19RebuildMonoInstanceE17ScriptingClassPtr18ScriptingObjectPtrP10MonoScript
3032:__ZNK15MonoScriptCache7ReleaseEv
3033:__ZN13MonoBehaviour19SetupScriptingCacheE17ScriptingClassPtrP10MonoScript
3034:__Z14IsWorldPlayingv
3035:__Z17IsValidScriptType14MonoScriptType
3036:__ZN13MonoBehaviour22GetScriptFullClassNameEv
3037:__Z21FormatScriptTypeError14MonoScriptTypeRKN4core12basic_stringIcNS0_20StringStorageDefaultIcEEEE
3038:__Z64scripting_unity_engine_object_new_and_invoke_default_constructor17ScriptingClassPtrP6ObjectP21ScriptingExceptionPtr
3039:__ZN9Scripting31ConnectScriptingWrapperToObjectE18ScriptingObjectPtrP6Object
3040:__ZN9Scripting30SetCachedPtrOnScriptingWrapperE18ScriptingObjectPtrP6Object
3041:__Z29scripting_class_get_namespace17ScriptingClassPtr
3042:__Z27FindOrCreateMonoScriptCache17ScriptingClassPtr22InitScriptingCacheTypeP6Objecti
3043:__ZNK15MonoScriptCache6RetainEv
3044:__ZN16ScriptingManager19RegisterScriptCacheEP15MonoScriptCache
3045:__ZNSt3__23mapIiP15MonoScriptCacheNS_4lessIiEE13stl_allocatorINS_4pairIKiS2_EEL18MemLabelIdentifier76ELi16EEEixERS7_
3046:__ZN16ScriptingManager18GetMonoScriptCacheEi
3047:__Z18BuildScriptClassId17ScriptingClassPtr
3048:__Z21CreateMonoScriptCacheRKN4core12basic_stringIcNS_20StringStorageDefaultIcEEEE17ScriptingClassPtr22InitScriptingCacheTypeP6Objecti
3049:__Z27scripting_class_is_abstract17ScriptingClassPtr
3050:__Z27scripting_class_is_inflated17ScriptingClassPtr
3051:__Z30scripting_class_is_subclass_of17ScriptingClassPtrS_
3052:__ZN14MessageHandler3GetEv
3053:__Z27scripting_class_get_methods17ScriptingClassPtrRNSt3__26vectorI18ScriptingMethodPtr13stl_allocatorIS2_L18MemLabelIdentifier1ELi16EEEE
3054:__Z28scripting_method_is_instance18ScriptingMethodPtr
3055:__ZNSt3__23mapIPKc18ScriptingMethodPtr14CStringCompare13stl_allocatorINS_4pairIKS2_S3_EEL18MemLabelIdentifier1ELi16EEEixERS7_
3056:__Z35scripting_method_get_argument_count18ScriptingMethodPtr
3057:__Z31scripting_method_get_returntype18ScriptingMethodPtr
3058:__Z25scripting_class_from_type16ScriptingTypePtr
3059:__ZNSt3__26__treeINS_12__value_typeIPKc18ScriptingMethodPtrEENS_19__map_value_compareIS3_S5_14CStringCompareLb1EEE13stl_allocatorIS5_L18MemLabelIdentifier1ELi16EEE7destroyEPNS_11__tree_nodeIS5_PvEE
3060:__ZN14MessageHandler28MessageIDToMessageIdentifierEi
3061:__Z25GetCommonScriptingClassesv
3062:__Z37scripting_method_get_nth_argumenttype18ScriptingMethodPtri
3063:__Z25scripting_class_from_name17ScriptingImagePtrPKcS1_
3064:__ZN16ScriptingManager27NativeTypeForScriptingClassE17ScriptingClassPtr
3065:__ZN9Scripting25GetTypeFromScriptingClassE17ScriptingClassPtr
3066:__Z26GetManagedAttributeManagerv
3067:__ZN23ManagedAttributeManager24GetDefaultExecutionOrderE17ScriptingClassPtr
3068:__ZN23ManagedAttributeManager35CallManagedGetDefaultExecutionOrderE17ScriptingClassPtr
3069:__Z26scripting_class_get_object17ScriptingClassPtr
3070:__ZN5Unity4Type14FindTypeByNameEPKcNS0_22CaseSensitivityOptionsE
3071:__ZN11TypeManager19ClassNameToTypeInfoEPKcb
3072:__ZNK15dense_hashtableINSt3__24pairIKPKcPK4RTTIEES3_N11TypeManager23ConstCharPtrHashFunctorEN14dense_hash_mapIS3_S7_SA_NS9_19ConstCharPtrEqualToE13stl_allocatorIS8_L18MemLabelIdentifier6ELi16EEE9SelectKeyESC_SF_E23find_position_with_hashERS4_j
3073:__ZN14dense_hash_mapIPKcPK4RTTIN11TypeManager23ConstCharPtrHashFunctorENS5_19ConstCharPtrEqualToE13stl_allocatorINSt3__24pairIKS1_S4_EEL18MemLabelIdentifier6ELi16EEE5beginEv
3074:__Z33RenderImageFilterValidateCallback18ScriptingMethodPtr17ScriptingClassPtrP6Object
3075:__Z31AudioFilterReadValidateCallback18ScriptingMethodPtr17ScriptingClassPtrP6Object
3076:__Z21CheckMethodParameters18ScriptingMethodPtr17ScriptingClassPtrPS0_jP6ObjectR11MonoManager
3077:__ZNSt3__26vectorI18ScriptingMethodPtr13stl_allocatorIS1_L18MemLabelIdentifier1ELi16EEE21__push_back_slow_pathIKS1_EEvRT_
3078:__Z26GetScriptClassIdComponents17ScriptingClassPtrRN4core17string_with_labelILi1EEES3_S3_
3079:__Z32scripting_class_get_assemblyname17ScriptingClassPtr
3080:__ZL21AppendNestedClassName17ScriptingClassPtrRN4core17string_with_labelILi1EEE
3081:__Z34scripting_class_get_declaring_type17ScriptingClassPtr
3082:__ZN16ScriptingManager24NotifyScriptCacheReleaseEi
3083:__ZNK4PPtrI6ObjectEcvPS0_Ev
3084:__ZN17PersistentManager25PreallocateObjectThreadedEi
3085:__ZN6Object33AllocateAndAssignInstanceIDNoLockEPS_
3086:__ZN17PersistentManager19RemapToAbsolutePathERKN4core12basic_stringIcNS0_20StringStorageDefaultIcEEEE
3087:__ZN14SerializedFile14InitializeReadERKN4core12basic_stringIcNS0_20StringStorageDefaultIcEEEER18ResourceImageGroupjj24TransferInstructionFlagsjj
3088:__ZN14SerializedFile7ReleaseEv
3089:__ZN17PersistentManager23PostLoadStreamNameSpaceER15StreamNameSpacei
3090:__ZNK14SerializedFile12GetHighestIDEv
3091:__ZNSt3__26vectorINS_4pairIiiEE13stl_allocatorIS2_L18MemLabelIdentifier37ELi16EEE6insertENS_11__wrap_iterIPKS2_EERS8_
3092:__ZN14SerializedFileD2Ev
3093:__ZN18ResourceImageGroup7CleanupEv
3094:__ZN20dynamic_block_vectorI14FileIdentifierE5clearEv
3095:__ZN13ResourceImageD2Ev
3096:__ZN14SerializedFile10ReadHeaderEv
3097:__Z13ReadFileCacheR15CacheReaderBasePvjj
3098:__ZN14SerializedFile12ReadMetadataILb0EEEbijPKhjj
3099:__ZN14SerializedFile12ReadMetadataILb1EEEbijPKhjj
3100:__ZN14SerializedFile27PatchRemapDeprecatedClassesEv
3101:__ZL30FindOrCreateTypeInfoForClassIDR13dynamic_arrayIN14SerializedFile14SerializedTypeELj8EEibsi
3102:__ZN5Unity4Type26FindTypeByPersistentTypeIDEi
3103:__ZN5Unity4Type41GetDeserializationStubForPersistentTypeIDEi
3104:__ZN11TypeManager41GetDeserializationStubForPersistentTypeIDEi
3105:__ZN15dense_hashtableINSt3__24pairIKiP4RTTIEEiN11TypeManager27HashFunctorPersistentTypeIDEN14dense_hash_mapIiS4_S7_NS0_8equal_toIiEE13stl_allocatorIS5_L18MemLabelIdentifier6ELi16EEE9SelectKeyESA_SD_E12resize_deltaEjj
3106:__ZN15dense_hashtableINSt3__24pairIKiP4RTTIEEiN11TypeManager27HashFunctorPersistentTypeIDEN14dense_hash_mapIiS4_S7_NS0_8equal_toIiEE13stl_allocatorIS5_L18MemLabelIdentifier6ELi16EEE9SelectKeyESA_SD_E12maybe_shrinkEv
3107:__ZN15dense_hashtableINSt3__24pairIKiP4RTTIEEiN11TypeManager27HashFunctorPersistentTypeIDEN14dense_hash_mapIiS4_S7_NS0_8equal_toIiEE13stl_allocatorIS5_L18MemLabelIdentifier6ELi16EEE9SelectKeyESA_SD_E9copy_fromERKSG_j
3108:__ZL10ReadStringRN4core12basic_stringIcNS_20StringStorageDefaultIcEEEERPKhS6_
3109:__ZN13dynamic_arrayIN14SerializedFile14SerializedTypeELj8EE18resize_initializedEjRKS1_12ResizePolicy
3110:__ZN14SerializedFile14SerializedType8ReadTypeILb1EEEbibRPKhS3_Pi
3111:__ZL26ExtractScriptTypeReferenceRK16TypeTreeIteratorjR15CacheReaderBasebR31LocalSerializedObjectIdentifier
3112:__ZNSt3__26vectorINS_4pairIxN14SerializedFile10ObjectInfoEEENS_9allocatorIS4_EEE21__push_back_slow_pathIKS4_EEvRT_
3113:__ZN20dynamic_block_vectorI14FileIdentifierE22push_back_no_constructEv
3114:__ZNSt3__26__treeINS_12__value_typeIiiEENS_19__map_value_compareIiS2_NS_4lessIiEELb1EEENS_9allocatorIS2_EEE7destroyEPNS_11__tree_nodeIS2_PvEE
3115:__ZNK16TypeTreeIterator8ChildrenEv
3116:__ZNK16TypeTreeIterator7GetNodeEv
3117:__ZNK16TypeTreeIterator4NameEv
3118:__ZNK16TypeTreeIterator4NextEv
3119:__Z12ReadTypeTreeR8TypeTreeRPKhS2_ib
3120:__ZN8TypeTree8BlobReadERPKhS1_ib
3121:__ZL16ReadTypeTreeImplILb1EEbR8TypeTreeRK16TypeTreeIteratorRPKhS6_i
3122:__ZL16ReadTypeTreeImplILb0EEbR8TypeTreeRK16TypeTreeIteratorRPKhS6_i
3123:__ZL12CreateStringPjR13dynamic_arrayIcLj1EEPKc
3124:__ZN8TypeTree8AddChildEj
3125:__Z20GetCommonStringTablev
3126:__ZNK17CommonStringTable16FindCommonStringEPKc
3127:__ZN14SerializedFile14SerializedType8ReadTypeILb0EEEbibRPKhS3_Pi
3128:__ZN14FileCacherReadC2ERKN4core12basic_stringIcNS0_20StringStorageDefaultIcEEEEjj
3129:__Z18PathToAbsolutePathRKN4core12basic_stringIcNS_20StringStorageDefaultIcEEEE
3130:__ZNK15FileSystemEntry4SizeEv
3131:__ZN14FileCacherReadD2Ev
3132:__ZN14FileCacherReadD0Ev
3133:__ZN14FileCacherRead10DirectReadEPvjj
3134:__ZN14FileCacherRead14LockCacheBlockEjPPhS1_
3135:__ZN14FileCacherRead16UnlockCacheBlockEj
3136:__ZN14FileCacherRead11GetPathNameEv
3137:__ZN14FileCacherRead13GetFileLengthEv
3138:__ZN15CacheReaderBase18GetAddressOfMemoryEv
3139:__ZN14FileCacherRead7RequestEiR16AsyncReadCommandRNS_10CacheBlockE
3140:__Z16AsyncReadRequestP16AsyncReadCommand
3141:__ZN13OpenFileCache10OpenCachedERKN4core12basic_stringIcNS0_20StringStorageDefaultIcEEEE
3142:__ZN4File4ReadEyPvj
3143:__ZN12FileAccessor4ReadEyyPvPy
3144:__ZN4File7IsValidEv
3145:__ZN4File5CloseEv
3146:__ZN4File4OpenERKN4core12basic_stringIcNS0_20StringStorageDefaultIcEEEENS_10PermissionENS_12AutoBehaviorE
3147:__ZN4File19OpenFileSystemEntryERK15FileSystemEntryNS_10PermissionENS_12AutoBehaviorE
3148:__ZN12FileAccessor5CloseEv
3149:__ZN13FileEntryDataaSERKS_
3150:__ZN12FileAccessor4OpenER15FileSystemEntry14FilePermission16FileAutoBehavior
3151:__ZN12FileAccessorC2Ev
3152:__Z23AsyncReadForceCloseFileRKN4core12basic_stringIcNS_20StringStorageDefaultIcEEEE
3153:__ZN14SerializedFileC2E18MemLabelIdentifier
3154:__ZN6Object18RegisterInstanceIDEPS_
3155:__Z24GetExecutionRestrictionsv
3156:__Z19CanReplaceComponentRN5Unity9ComponentEPKNS_4TypeEPN4core12basic_stringIcNS5_20StringStorageDefaultIcEEEE
3157:__ZNK10GameObject8IsActiveEv
3158:__ZN10GameObject17GetComponentIndexEPN5Unity9ComponentE
3159:__ZN10GameObject22RemoveComponentAtIndexEi
3160:__Z19DestroySingleObjectP6Object
3161:__Z26DestroyGameObjectHierarchyR10GameObject
3162:__ZN10GameObject10DeactivateE19DeactivateOperation
3163:__ZL19PreDestroyRecursiveR10GameObjectPj
3164:__ZN9Transform16RemoveFromParentENS_20RemoveFromParentModeE
3165:__ZL26DestroyGameObjectRecursiveR10GameObjectR11BatchDelete
3166:__Z28delete_object_internal_step1P6Object
3167:__Z28delete_object_internal_step2P6Object
3168:__ZN10MemoryPool10DeallocateEPv
3169:__ZN17PersistentManager22MakeObjectUnpersistentEi13UnpersistMode
3170:__ZN17PersistentManager23DestroyFromFileInternalEi
3171:__ZN8Remapper6RemoveEi
3172:__ZN32TransformHierarchyChangeDispatch26DispatchSelfAndAllChildrenE15TransformAccessNS_12InterestTypeE
3173:__ZN17TransformInternal20FreeTransformHandlesER18TransformHierarchyi
3174:__ZN32TransformHierarchyChangeDispatch22DispatchSelfAndParentsE15TransformAccessNS_12InterestTypeE
3175:__ZN5Unity9Component14SendMessageAnyERK17MessageIdentifierR11MessageData
3176:__ZN16MessageForwarder13HandleMessageEPviR11MessageData
3177:__ZN10GameObject21WillDestroyGameObjectEv
3178:__ZN10GameObject32ActivateAwakeRecursivelyInternalE19DeactivateOperationR18AwakeFromLoadQueue
3179:__ZN18AwakeFromLoadQueue13AwakeFromLoadE17AwakeFromLoadModeb
3180:__ZN18AwakeFromLoadQueue22InvokeCheckConsistencyEPNS_4ItemEj
3181:__ZL53SortBehaviourItemByExecutionOrderAndReverseInstanceIDRKN18AwakeFromLoadQueue4ItemES2_
3182:__ZNK21ExecutionOrderManager23GetScriptExecutionOrderEiPKN5Unity4TypeE
3183:__ZNK13MonoBehaviour17GetExecutionOrderEv
3184:__ZN18AwakeFromLoadQueueC2E18MemLabelIdentifier
3185:__ZNK13MonoBehaviour8GetClassEv
3186:__Z34FindRequiredComponentsForComponentPKN5Unity4TypeE
3187:__Z24GetComponentOrScriptNameRN5Unity9ComponentE
3188:__ZN13MonoBehaviour18GetScriptClassNameEv
3189:__Z6AppendRKN4core12basic_stringIcNS_20StringStorageDefaultIcEEEEPKc
3190:__ZNK6Object12GetClassNameEv
3191:__Z25InitComponentRequirementsv
3192:__ZNSt3__26__treeINS_12__value_typeIPKN5Unity4TypeE10vector_setIS5_NS_4lessIS5_EENS_9allocatorIS5_EEEEENS_19__map_value_compareIS5_SC_S8_Lb1EEENS9_ISC_EEE7destroyEPNS_11__tree_nodeISC_PvEE
3193:__Z19GetEngineModuleSpecv
3194:__ZNK5Unity4Type21FindAllDerivedClassesER13dynamic_arrayIPKS0_Lj4EENS0_17TypeFilterOptionsE
3195:__ZNSt3__26vectorIPKN5Unity4TypeENS_9allocatorIS4_EEE6assignIPS4_EENS_9enable_ifIXaasr21__is_forward_iteratorIT_EE5valuesr16is_constructibleIS4_NS_15iterator_traitsISB_E9referenceEEE5valueEvE4typeESB_SB_
3196:__ZNSt3__26__sortIRNS_4lessIPKN5Unity4TypeEEEPS5_EEvT0_S9_T_
3197:__ZL23AddConflictingClassIMPLPKN5Unity4TypeES2_
3198:__ZNSt3__26vectorIPKN5Unity4TypeENS_9allocatorIS4_EEE6insertENS_11__wrap_iterIPKS4_EERS9_
3199:__ZNSt3__27__sort5IRNS_4lessIPKN5Unity4TypeEEEPS5_EEjT0_S9_S9_S9_S9_T_
3200:__ZNSt3__227__insertion_sort_incompleteIRNS_4lessIPKN5Unity4TypeEEEPS5_EEbT0_S9_T_
3201:__ZN11TypeManager21FindAllDerivedClassesEPK4RTTIR13dynamic_arrayIS2_Lj4EEb
3202:__Z22SetManagerPtrInContextiP6Object
3203:__ZL32StaticInitializeIUnityInterfacesPv
3204:__ZL29StaticCleanupIUnityInterfacesPv
3205:__ZL30StaticInitializeIUnityGraphicsPv
3206:__ZL15GetRendererImplv
3207:__Z31RegisterDeviceEventCallbackImplPFv23UnityGfxDeviceEventTypeE
3208:__Z33UnregisterDeviceEventCallbackImplPFv23UnityGfxDeviceEventTypeE
3209:__ZNSt3__26__treeINS_12__value_typeI18UnityInterfaceGUIDP15IUnityInterfaceEENS_19__map_value_compareIS2_S5_NS_4lessIS2_EELb1EEE13stl_allocatorIS5_L18MemLabelIdentifier6ELi16EEE7destroyEPNS_11__tree_nodeIS5_PvEE
3210:__ZL16GetInterfaceImpl18UnityInterfaceGUID
3211:__ZL21GetInterfaceSplitImplyy
3212:__ZL21RegisterInterfaceImpl18UnityInterfaceGUIDP15IUnityInterface
3213:__ZL26RegisterInterfaceSplitImplyyP15IUnityInterface
3214:__ZN13RuntimeStaticINSt3__23setIPFv17ScriptingClassPtrR23CachedSerializationDataRbENS0_4lessIS7_EENS0_9allocatorIS7_EEEELb0EE13StaticDestroyEPv
3215:__ZN13RuntimeStaticI13dynamic_arrayIPK31TransferFunctionScriptingTraitsLj4EELb0EE16StaticInitializeEPv
3216:__ZN13RuntimeStaticI13dynamic_arrayIPK31TransferFunctionScriptingTraitsLj4EELb0EE13StaticDestroyEPv
3217:__ZNSt3__26__treeIPFv17ScriptingClassPtrR23CachedSerializationDataRbENS_4lessIS6_EENS_9allocatorIS6_EEE7destroyEPNS_11__tree_nodeIS6_PvEE
3218:__ZN13RuntimeStaticI13ModuleManagerLb0EE13StaticDestroyEPv
3219:__ZN13RuntimeStaticI19UnityPluginRegistryLb0EE16StaticInitializeEPv
3220:__ZN13RuntimeStaticI19UnityPluginRegistryLb0EE13StaticDestroyEPv
3221:__ZN13RuntimeStaticINSt3__23mapIN4core12basic_stringIcNS2_20StringStorageDefaultIcEEEES6_NS0_4lessIS6_EE13stl_allocatorINS0_4pairIKS6_S6_EEL18MemLabelIdentifier12ELi16EEEELb0EE13StaticDestroyEPv
3222:__ZN22BuiltinResourceManager16StaticInitializeEPv
3223:__ZN22BuiltinResourceManager13StaticDestroyEPv
3224:__ZNSt3__26__treeINS_12__value_typeIN4core12basic_stringIcNS2_20StringStorageDefaultIcEEEES6_EENS_19__map_value_compareIS6_S7_NS_4lessIS6_EELb1EEE13stl_allocatorIS7_L18MemLabelIdentifier12ELi16EEE7destroyEPNS_11__tree_nodeIS7_PvEE
3225:__ZN13RuntimeStaticI21AssetReferenceStorageLb0EE16StaticInitializeEPv
3226:__ZN13RuntimeStaticI21AssetReferenceStorageLb0EE13StaticDestroyEPv
3227:__ZN21ComponentRequirements16StaticInitializeEPv
3228:__ZN21ComponentRequirements13StaticDestroyEPv
3229:__ZN21AssetReferenceStorageD2Ev
3230:__ZN21AssetReferenceStorage22GarbageCollectCallbackEPS_R27GarbageCollectorThreadState
3231:__ZN21AssetReferenceStorageC2Ev
3232:__ZN15dense_hashtableINSt3__24pairIKiiEEi21InstanceIDHashFunctorN14dense_hash_mapIiiS4_NS0_8equal_toIiEE13stl_allocatorIS3_L18MemLabelIdentifier129ELi16EEE9SelectKeyES7_SA_E14squash_deletedEv
3233:__ZN15dense_hashtableINSt3__24pairIKiiEEi21InstanceIDHashFunctorN14dense_hash_mapIiiS4_NS0_8equal_toIiEE13stl_allocatorIS3_L18MemLabelIdentifier129ELi16EEE9SelectKeyES7_SA_E9copy_fromERKSD_j
3234:__ZN20FloatToHalfConverter26InitializePrecomputeTablesEPv
3235:__ZL28InitializeAtomicSafetyHandlePv
3236:__ZL25CleanupAtomicSafetyHandlePv
3237:__ZN18ConcurrentFreeListI16AtomicSafetyNodeE7CleanUpEv
3238:__ZN13RuntimeStaticI15GUIEventManagerLb0EE16StaticInitializeEPv
3239:__ZN13RuntimeStaticI15GUIEventManagerLb0EE13StaticDestroyEPv
3240:__ZN13RuntimeStaticI22VirtualJoystickManagerLb0EE16StaticInitializeEPv
3241:__ZN13RuntimeStaticI22VirtualJoystickManagerLb0EE13StaticDestroyEPv
3242:__ZN22VirtualJoystickManagerD2Ev
3243:__ZNSt3__212__deque_baseI10InputEventNS_9allocatorIS1_EEE5clearEv
3244:__ZN10InputEventD2Ev
3245:__ZN13RuntimeStaticI23MeshVertexFormatManagerLb0EE16StaticInitializeEPv
3246:__ZN13RuntimeStaticI23MeshVertexFormatManagerLb0EE13StaticDestroyEPv
3247:__ZNSt3__26__treeINS_12__value_typeI18VertexChannelsInfo16MeshVertexFormatEENS_19__map_value_compareIS2_S4_NS_4lessIS2_EELb1EEE13stl_allocatorIS4_L18MemLabelIdentifier16ELi16EEE7destroyEPNS_11__tree_nodeIS4_PvEE
3248:__ZN13RuntimeStaticI17UniqueIDGeneratorLb0EE16StaticInitializeEPv
3249:__ZN17UniqueIDGeneratorC2E18MemLabelIdentifier
3250:__Z25InitializeLODGroupManagerPv
3251:__Z22CleanupLODGroupManagerPv
3252:__ZN15LODGroupManagerD2Ev
3253:__ZN17UniqueIDGenerator7CleanupEv
3254:__ZN17UniqueIDGenerator16DestroyPureIndexEj
3255:__ZN15LODGroupManagerC2E18MemLabelIdentifier
3256:__ZN17UniqueIDGenerator15CreatePureIndexEv
3257:__ZN17UniqueIDGenerator8CreateIDEv
3258:__ZN21BillboardBatchManager16StaticInitializeEPv
3259:__ZN21BillboardBatchManager13StaticCleanupEPv
3260:__Z28BuildSingleStreamChannelInfo17ShaderChannelMaskRK20VertexChannelsLayoutP11ChannelInfo
3261:__Z26GetMeshVertexFormatManagerv
3262:__ZN23MeshVertexFormatManager19GetMeshVertexFormatERK18VertexChannelsInfo
3263:__ZNK18VertexChannelsInfoltERKS_
3264:__ZNSt3__26vectorINS_4pairIyP17VertexDeclarationEENS_9allocatorIS4_EEE6assignIPS4_EENS_9enable_ifIXaasr21__is_forward_iteratorIT_EE5valuesr16is_constructibleIS4_NS_15iterator_traitsISB_E9referenceEEE5valueEvE4typeESB_SB_
3265:__ZNSt3__26__treeINS_12__value_typeI18VertexChannelsInfo16MeshVertexFormatEENS_19__map_value_compareIS2_S4_NS_4lessIS2_EELb1EEE13stl_allocatorIS4_L18MemLabelIdentifier16ELi16EEE12__find_equalIS2_EERPNS_16__tree_node_baseIPvEENS_21__tree_const_iteratorIS4_PNS_11__tree_nodeIS4_SF_EEiEESI_RKT_
3266:__ZL31InitializeRendererUpdateManagerPv
3267:__ZL28CleanupRendererUpdateManagerPv
3268:__ZL50StaticRegisterSceneLoadedCallback_LightmapSettingsPv
3269:__ZL52StaticUnregisterSceneLoadedCallback_LightmapSettingsPv
3270:__ZN15dense_hashtableINSt3__24pairIKiiEEi21InstanceIDHashFunctorN14dense_hash_mapIiiS4_NS0_8equal_toIiEE13stl_allocatorIS3_L18MemLabelIdentifier65ELi16EEE9SelectKeyES7_SA_E14squash_deletedEv
3271:__ZL36PostLoadSceneStatic_LightmapSettingsiR18AwakeFromLoadQueueN19RuntimeSceneManager11LoadingModeE
3272:__ZL14DidUnloadScenei
3273:__ZN16LightmapSettings20DidChangeActiveSceneEP10UnitySceneS1_
3274:__ZNK10UnityScene19GetLevelGameManagerEi
3275:__ZN21EnlightenSceneMappingaSERKS_
3276:__ZN16LightmapSettings7RebuildEv
3277:__ZN16LightmapSettings28SetDynamicGILightmapTexturesEPK22RealtimeLightmapIDDataj
3278:__Znaj
3279:__ZN26SharedLightmapSettingsDataD2Ev
3280:__ZN26SharedLightmapSettingsDataD0Ev
3281:__ZN10builtintex17GetBlackTextureIDEv
3282:__ZNSt3__26vectorINS_4pairIijEENS_9allocatorIS2_EEE6assignIPS2_EENS_9enable_ifIXaasr21__is_forward_iteratorIT_EE5valuesr16is_constructibleIS2_NS_15iterator_traitsIS9_E9referenceEEE5valueEvE4typeES9_S9_
3283:__ZNK21EnlightenSceneMapping14FindSceneIndexEi
3284:__ZN21EnlightenSceneMapping5EraseEi
3285:__ZN16LightmapSettings15RemoveLightmapsEi
3286:__Z26ExtractAllRenderersInSceneR13dynamic_arrayIP8RendererLj4EE
3287:__ZN6Object17FindObjectsOfTypeEPKN5Unity4TypeER13dynamic_arrayIPS_Lj4EEb
3288:__ZNSt3__26__sortIR17CompareInstanceIDPP6ObjectEEvT0_S6_T_
3289:__ZNSt3__27__sort5IR17CompareInstanceIDPP6ObjectEEjT0_S6_S6_S6_S6_T_
3290:__ZNSt3__227__insertion_sort_incompleteIR17CompareInstanceIDPP6ObjectEEbT0_S6_T_
3291:__Z14FindSceneIndexRK13dynamic_arrayI10SceneRangeLj4EEi
3292:__ZNSt3__26vectorINS_4pairIijEENS_9allocatorIS2_EEE21__push_back_slow_pathIKS2_EEvRT_
3293:__ZN13sorted_vectorINSt3__24pairIijEEN10vector_mapIijNS0_4lessIiEENS0_9allocatorIS2_EEE13value_compareES7_E21sort_clear_duplicatesEv
3294:__ZnwjRKSt9nothrow_t
3295:__ZNSt3__213__stable_sortIRN10vector_mapIijNS_4lessIiEENS_9allocatorINS_4pairIijEEEEE13value_compareENS_11__wrap_iterIPS6_EEEEvT0_SE_T_NS_15iterator_traitsISE_E15difference_typeEPNSH_10value_typeEi
3296:__ZNSt3__218__stable_sort_moveIRN10vector_mapIijNS_4lessIiEENS_9allocatorINS_4pairIijEEEEE13value_compareENS_11__wrap_iterIPS6_EEEEvT0_SE_T_NS_15iterator_traitsISE_E15difference_typeEPNSH_10value_typeE
3297:__ZNSt3__215__inplace_mergeIRN10vector_mapIijNS_4lessIiEENS_9allocatorINS_4pairIijEEEEE13value_compareENS_11__wrap_iterIPS6_EEEEvT0_SE_SE_T_NS_15iterator_traitsISE_E15difference_typeESI_PNSH_10value_typeEi
3298:__ZNSt3__224__buffered_inplace_mergeIRN10vector_mapIijNS_4lessIiEENS_9allocatorINS_4pairIijEEEEE13value_compareENS_11__wrap_iterIPS6_EEEEvT0_SE_SE_T_NS_15iterator_traitsISE_E15difference_typeESI_PNSH_10value_typeE
3299:__Z17MergeLightmapDataiR18AwakeFromLoadQueue
3300:__ZN21EnlightenSceneMapping14SetSceneHandleEi
3301:__Z24InitializeMainSceneRangeiiR13dynamic_arrayI10SceneRangeLj4EE
3302:__ZN16LightmapSettings15AppendLightmapsEiRK13dynamic_arrayI12LightmapDataLj4EE
3303:__ZN21EnlightenSceneMapping6AppendEiRKS_
3304:__Z16AppendSceneRangeiiiR13dynamic_arrayI10SceneRangeLj4EE
3305:__ZN13dynamic_arrayI28EnlightenRendererInformationLj8EE6insertEPS0_PKS0_S4_
3306:__ZN13dynamic_arrayI26EnlightenSystemInformationLj8EE6insertEPS0_PKS0_S4_
3307:__ZN13dynamic_arrayI31EnlightenSystemAtlasInformationLj8EE6insertEPS0_PKS0_S4_
3308:__ZN13dynamic_arrayI33EnlightenTerrainChunksInformationLj4EE6insertEPS0_PKS0_S4_
3309:__ZN10Matrix4x4f11SetIdentityEv
3310:__ZN18AsyncUploadManager16StaticInitializeEPv
3311:__ZN18AsyncUploadManager13StaticDestroyEPv
3312:__ZN18AsyncUploadManagerD2Ev
3313:__ZN18ConcurrentFreeListI28FileTextureUploadInstructionE7CleanUpEv
3314:__Z23DestroyMutexLockedQueueP16MutexLockedQueue
3315:__ZN18AsyncUploadManagerC2Ev
3316:__Z22CreateMutexLockedQueuev
3317:__ZN23InstancedPropInfoStaticL16RegisterCallbackEPv
3318:__ZN23InstancedPropInfoStaticL18UnregisterCallbackEPv
3319:__ZN33InstancedMeshIntermediateRenderer16StaticInitializeEPv
3320:__ZN33InstancedMeshIntermediateRenderer13StaticDestroyEPv
3321:__ZN32IndirectMeshIntermediateRenderer16StaticInitializeEPv
3322:__ZN32IndirectMeshIntermediateRenderer13StaticDestroyEPv
3323:__ZN17InstancedPropInfo21OnGraphicsCapsChangedEv
3324:__Z15GetGraphicsCapsv
3325:__ZN10Matrix4x4fC2EPKf
3326:__ZN15GlobalCallbacksC2Ev
3327:__ZN17CommonStringTable16StaticInitializeEPv
3328:__ZN17CommonStringTable13StaticCleanupEPv
3329:__ZN17CommonStringTableC2E18MemLabelIdentifier
3330:__ZL24CleanupPrepassRenderLoopPv
3331:__ZN19CullingGroupManager15InitializeClassEPv
3332:__ZN19CullingGroupManager12CleanupClassEPv
3333:__ZL14CleanupShadowsPv
3334:__ZN13RuntimeStaticI13RendererSceneLb0EE16StaticInitializeEPv
3335:__ZN13RuntimeStaticI13RendererSceneLb0EE13StaticDestroyEPv
3336:__ZN13RendererSceneD2Ev
3337:__ZN21IntermediateRenderers5ClearEj
3338:__Z29GetOcclusionPortalManagerListv
3339:__ZN13RendererScene14RemoveRendererEi
3340:__ZN13RendererScene28SceneAfterCullingOutputReadyEPK9IndexListPK16RendererCullData
3341:__ZN13RendererScene16UpdateVisibilityEPK9IndexList
3342:__Z9GetIUmbrav
3343:__ZN13RendererSceneC2Ev
3344:__ZN13RuntimeStaticI12FlareManagerLb0EE13StaticDestroyEPv
3345:__ZL25CleanupImageFilterGlobalsPv
3346:__ZN24MeshIntermediateRenderer16StaticInitializeEPv
3347:__ZN24MeshIntermediateRenderer13StaticDestroyEPv
3348:__ZN31CanvasBatchIntermediateRenderer16StaticInitializeEPv
3349:__ZN31CanvasBatchIntermediateRenderer13StaticDestroyEPv
3350:__ZNSt3__26__treeINS_12__value_typeIPK6CameraNS_6vectorIfNS_9allocatorIfEEEEEENS_19__map_value_compareIS4_S9_NS_4lessIS4_EELb1EEENS6_IS9_EEE7destroyEPNS_11__tree_nodeIS9_PvEE
3351:__ZL40DestroyRegisteredMessageIdentifiersArrayPv
3352:__ZN4core20StringStorageDefaultIcED2Ev
3353:__ZN17BaseObjectManager16StaticInitializeEPv
3354:__ZN17BaseObjectManager13StaticDestroyEPv
3355:__ZN13RuntimeStaticI12EventManagerLb1EE16StaticInitializeEPv
3356:__ZN13RuntimeStaticI12EventManagerLb1EE13StaticDestroyEPv
3357:__ZN11TypeManager21CleanupGlobalInstanceEv
3358:__ZNSt3__26__treeINS_12__value_typeIiN11TypeManager18TypeCallbackStructEEENS_19__map_value_compareIiS4_NS_4lessIiEELb1EEENS_9allocatorIS4_EEE7destroyEPNS_11__tree_nodeIS4_PvEE
3359:__ZN11TypeManager24InitializeGlobalInstanceEv
3360:__ZN6Object16StaticInitializeEv
3361:__ZN15dense_hashtableINSt3__24pairIKiP6ObjectEEi21InstanceIDHashFunctorN14dense_hash_mapIiS4_S6_NS0_8equal_toIiEE13stl_allocatorIS5_L18MemLabelIdentifier65ELi16EEE9SelectKeyES9_SC_E14squash_deletedEv
3362:__ZN11TypeManager12RegisterTypeERK20TypeRegistrationDesc
3363:__ZN11TypeManager27FatalErrorOnClassIDConflictEiPKc
3364:__ZN14dense_hash_mapIiP4RTTIN11TypeManager27HashFunctorPersistentTypeIDENSt3__28equal_toIiEE13stl_allocatorINS4_4pairIKiS1_EEL18MemLabelIdentifier6ELi16EEEixERS9_
3365:__ZN14dense_hash_mapIPKcPK4RTTIN11TypeManager23ConstCharPtrHashFunctorENS5_19ConstCharPtrEqualToE13stl_allocatorINSt3__24pairIKS1_S4_EEL18MemLabelIdentifier6ELi16EEEixERSB_
3366:__ZN15dense_hashtableINSt3__24pairIKPKcPK4RTTIEES3_N11TypeManager23ConstCharPtrHashFunctorEN14dense_hash_mapIS3_S7_SA_NS9_19ConstCharPtrEqualToE13stl_allocatorIS8_L18MemLabelIdentifier6ELi16EEE9SelectKeyESC_SF_E12resize_deltaEjj
3367:__ZN15dense_hashtableINSt3__24pairIKPKcPK4RTTIEES3_N11TypeManager23ConstCharPtrHashFunctorEN14dense_hash_mapIS3_S7_SA_NS9_19ConstCharPtrEqualToE13stl_allocatorIS8_L18MemLabelIdentifier6ELi16EEE9SelectKeyESC_SF_E15insert_noresizeERKS8_
3368:__ZN15dense_hashtableINSt3__24pairIKPKcPK4RTTIEES3_N11TypeManager23ConstCharPtrHashFunctorEN14dense_hash_mapIS3_S7_SA_NS9_19ConstCharPtrEqualToE13stl_allocatorIS8_L18MemLabelIdentifier6ELi16EEE9SelectKeyESC_SF_E12maybe_shrinkEv
3369:__ZN15dense_hashtableINSt3__24pairIKPKcPK4RTTIEES3_N11TypeManager23ConstCharPtrHashFunctorEN14dense_hash_mapIS3_S7_SA_NS9_19ConstCharPtrEqualToE13stl_allocatorIS8_L18MemLabelIdentifier6ELi16EEE9SelectKeyESC_SF_E9copy_fromERKSI_j
3370:__ZN11TypeManagerC2ERN4RTTI16RuntimeTypeArrayE
3371:__ZN13RuntimeStaticI18AssetBundleManagerLb0EE16StaticInitializeEPv
3372:__ZN13RuntimeStaticI18AssetBundleManagerLb0EE13StaticDestroyEPv
3373:__ZN13RuntimeStaticI18AssetBundleManagerLb0EE7DestroyEv
3374:__ZN15dense_hashtableINSt3__24pairIKN4core12basic_stringIcNS2_20StringStorageDefaultIcEEEEP11AssetBundleEES6_20StringHash32FunctionIS6_EN14dense_hash_mapIS6_S9_SC_NS0_8equal_toIS6_EENS0_9allocatorISA_EEE9SelectKeyESF_SH_ED2Ev
3375:__ZN14ConstantStringD2Ev
3376:__ZN18AssetBundleManagerC2Ev
3377:__ZN15dense_hashtableINSt3__24pairIKP29AssetBundleLoadAssetOperationbEES3_19PointerHashFunctionIS3_EN14dense_hash_mapIS3_bS7_NS0_8equal_toIS3_EENS0_9allocatorIS5_EEE9SelectKeyESA_SC_E14squash_deletedEv
3378:__ZN15dense_hashtableINSt3__24pairIKN4core12basic_stringIcNS2_20StringStorageDefaultIcEEEEP11AssetBundleEES6_20StringHash32FunctionIS6_EN14dense_hash_mapIS6_S9_SC_NS0_8equal_toIS6_EENS0_9allocatorISA_EEE9SelectKeyESF_SH_E13set_empty_keyERKSA_
3379:__ZN14dense_hash_mapIN4core12basic_stringIcNS0_20StringStorageDefaultIcEEEEP11AssetBundle20StringHash32FunctionIS4_ENSt3__28equal_toIS4_EENS9_9allocatorINS9_4pairIKS4_S6_EEEEE15set_deleted_keyERSE_
3380:__ZN15dense_hashtableINSt3__24pairIKN4core12basic_stringIcNS2_20StringStorageDefaultIcEEEEP11AssetBundleEES6_20StringHash32FunctionIS6_EN14dense_hash_mapIS6_S9_SC_NS0_8equal_toIS6_EENS0_9allocatorISA_EEE9SelectKeyESF_SH_EC2ERKSK_j
3381:__ZN15dense_hashtableINSt3__24pairIKN4core12basic_stringIcNS2_20StringStorageDefaultIcEEEEP11AssetBundleEES6_20StringHash32FunctionIS6_EN14dense_hash_mapIS6_S9_SC_NS0_8equal_toIS6_EENS0_9allocatorISA_EEE9SelectKeyESF_SH_E4swapERSK_
3382:__ZN15dense_hashtableINSt3__24pairIKN4core12basic_stringIcNS2_20StringStorageDefaultIcEEEEP11AssetBundleEES6_20StringHash32FunctionIS6_EN14dense_hash_mapIS6_S9_SC_NS0_8equal_toIS6_EENS0_9allocatorISA_EEE9SelectKeyESF_SH_E9copy_fromERKSK_j
3383:__ZN15dense_hashtableINSt3__24pairIKN4core12basic_stringIcNS2_20StringStorageDefaultIcEEEEP11AssetBundleEES6_20StringHash32FunctionIS6_EN14dense_hash_mapIS6_S9_SC_NS0_8equal_toIS6_EENS0_9allocatorISA_EEE9SelectKeyESF_SH_E5clearEv
3384:__ZN15dense_hashtableINSt3__24pairIKN4core12basic_stringIcNS2_20StringStorageDefaultIcEEEEP11AssetBundleEES6_20StringHash32FunctionIS6_EN14dense_hash_mapIS6_S9_SC_NS0_8equal_toIS6_EENS0_9allocatorISA_EEE9SelectKeyESF_SH_E12expand_arrayEjN21dense_hash_map_traits17integral_constantIbLb0EEE
3385:__ZN30dense_hashtable_const_iteratorINSt3__24pairIKN4core12basic_stringIcNS2_20StringStorageDefaultIcEEEEP11AssetBundleEES6_20StringHash32FunctionIS6_EN14dense_hash_mapIS6_S9_SC_NS0_8equal_toIS6_EENS0_9allocatorISA_EEE9SelectKeyESF_SH_EC2EPK15dense_hashtableISA_S6_SC_SJ_SF_SH_EPKSA_SQ_b
3386:__ZN30dense_hashtable_const_iteratorINSt3__24pairIKN4core12basic_stringIcNS2_20StringStorageDefaultIcEEEEP11AssetBundleEES6_20StringHash32FunctionIS6_EN14dense_hash_mapIS6_S9_SC_NS0_8equal_toIS6_EENS0_9allocatorISA_EEE9SelectKeyESF_SH_EppEv
3387:__ZN15dense_hashtableINSt3__24pairIKP29AssetBundleLoadAssetOperationbEES3_19PointerHashFunctionIS3_EN14dense_hash_mapIS3_bS7_NS0_8equal_toIS3_EENS0_9allocatorIS5_EEE9SelectKeyESA_SC_E9copy_fromERKSF_j
3388:__ZN13RuntimeStaticI12AdsIdHandlerLb0EE16StaticInitializeEPv
3389:__ZN13RuntimeStaticI12AdsIdHandlerLb0EE13StaticDestroyEPv
3390:__ZN13RuntimeStaticI15ApplicationInfoLb0EE16StaticInitializeEPv
3391:__ZN13RuntimeStaticI15ApplicationInfoLb0EE13StaticDestroyEPv
3392:__ZN13RuntimeStaticI15ApplicationInfoLb0EE7DestroyEv
3393:__ZN12AdsIdHandlerD2Ev
3394:__Z29InitializeSortingGroupManagerPv
3395:__Z26CleanupSortingGroupManagerPv
3396:__ZZ29InitializeSortingGroupManagerPvEN39PostLateUpdateSortingGroupsUpdatestruct7ForwardEv
3397:__ZN19SortingGroupManager6UpdateEv
3398:__ZN12_GLOBAL__N_116StaticInitializeEPv
3399:__ZN12_GLOBAL__N_113StaticDestroyEPv
3400:__ZN21SystemInfoStringCache16StaticInitializeEPv
3401:__ZN21SystemInfoStringCache13StaticDestroyEPv
3402:__ZNSt3__26__treeINS_12__value_typeIN4core12basic_stringIcNS2_20StringStorageDefaultIcEEEE9PrefValueEENS_19__map_value_compareIS6_S8_NS_4lessIS6_EELb1EEENS_9allocatorIS8_EEE7destroyEPNS_11__tree_nodeIS8_PvEE
3403:__ZNSt3__26__treeIiNS_4lessIiEENS_9allocatorIiEEE7destroyEPNS_11__tree_nodeIiPvEE
3404:_SendMessage
3405:_SendMessageFloat
3406:_SendMessageString
3407:_SetFullscreen
3408:_main
3409:__Z9SetupArgviPPKc
3410:__ZN13MemoryManager16StaticInitializeEv
3411:__Z9InitInputv
3412:__Z20scripting_gc_disablev
3413:__Z24InitializeIl2CppFromMainRKN4core12basic_stringIcNS_20StringStorageDefaultIcEEEES5_iPPKc
3414:__Z17RuntimeInitializev
3415:__Z33InitializeWebGLPersistentDataPathRKN4core12basic_stringIcNS_20StringStorageDefaultIcEEEE
3416:__ZL28PostprocessWebGLGraphicsCapsv
3417:__Z26PlayerInitEngineNoGraphicsRKN4core12basic_stringIcNS_20StringStorageDefaultIcEEEES5_
3418:__Z24PlayerInitEngineGraphicsb
3419:__ZN16ScriptingManager33RebuildNativeTypeToScriptingClassEv
3420:__Z20RegisterLogToConsolePFvRKN4core12basic_stringIcNS_20StringStorageDefaultIcEEEEiPKciiiiPFvRK11CppLogEntryEE
3421:__Z20PlayerLoadFirstSceneb
3422:__ZN7Cursors17InitializeCursorsEP9Texture2D8Vector2f
3423:__ZL8MainLoopv
3424:__Z19scripting_gc_enablev
3425:__Z29scripting_gc_collect_a_littlev
3426:__Z16GetScreenManagerv
3427:__ZN18ScreenManagerWebGL6UpdateEv
3428:__Z25GetShouldShowSplashScreenv
3429:__Z26IsSplashScreenFadeCompletev
3430:__Z16DrawSplashScreenb
3431:__Z11UpdateInputv
3432:__Z14GetPlayerPausev
3433:__Z14SetPlayerPause11PlayerPauseb
3434:__Z14SetIsBatchmodeb
3435:__Z25SetNeedToPerformRenderingb
3436:__Z10PlayerLoopv
3437:__Z17MainLoopKeepalivePv
3438:__Z18GetTargetFrameRatev
3439:__ZN11TimeManager13StepFixedTimeEv
3440:__Z19GetBuildSettingsPtrv
3441:__Z9GetIAudiov
3442:__ZN11TimeManager8SetPauseEb
3443:__ZN13ScreenManager18SetAllowCursorLockEb
3444:__Z20SetPlayerPauseDirect11PlayerPause
3445:__Z21SendMessageToEveryoneRK17MessageIdentifier11MessageData
3446:__ZN6Object21FindInstanceIDsOfTypeEPKN5Unity4TypeER13dynamic_arrayIiLj4EEb
3447:__ZN10GameObject14SendMessageAnyERK17MessageIdentifierR11MessageData
3448:__Z15GetInputManagerv
3449:__ZN12InputManager19SetJoystickPositionEiif
3450:__Z11StringToKeyRKN4core12basic_stringIcNS_20StringStorageDefaultIcEEEE
3451:__ZN12InputManager11SetKeyStateEib
3452:__ZL11UpdateTimerv
3453:__ZN14GraphicsHelper5ClearE13GfxClearFlagsRK10ColorRGBAffjR17ShaderPassContext
3454:__Z28SetupPixelCorrectCoordinatesv
3455:__Z19GetTimeSinceStartupv
3456:__Z30GetSplashScreenBackgroundColorv
3457:__Z25GetSplashScreenBackgroundRK5RectTIfE
3458:__ZN10builtintex15GetWhiteTextureEv
3459:__ZL8DrawQuadRK5RectTIfEfP7TextureRK10ColorRGBAfS2_
3460:__Z28GetSplashScreenBackgroundUvsRK5RectTIfE
3461:__ZNK6Sprite13GetRenderDataE20SpriteRenderDataMode
3462:__ZN22DeviceMVPMatricesStateD2Ev
3463:__Z22MultiplyMatrices4x4REFPK10Matrix4x4fS1_PS_
3464:__Z23ExtractProjectionPlanesRK10Matrix4x4fP5Plane
3465:__ZNK26PlayerSettingsSplashScreen33GetSplashScreenBackgroundPortraitEv
3466:__ZNK26PlayerSettingsSplashScreen39GetSplashScreenBackgroundPortraitAspectEv
3467:__ZNK26PlayerSettingsSplashScreen40GetSplashScreenBackgroundLandscapeAspectEv
3468:__ZN26PlayerSettingsSplashScreen37GetSplashScreenBackgroundLandscapeUvsEv
3469:__Z15GetScriptMapperv
3470:__ZN12ScriptMapper10FindShaderERKN4core12basic_stringIcNS0_20StringStorageDefaultIcEEEE
3471:__ZN8Material14CreateMaterialER6ShaderN6Object9HideFlagsEb
3472:__ZN8Material10SetTextureEN9ShaderLab16FastPropertyNameEP7Texture
3473:__ZN8Material11SetPassSlowEiR17ShaderPassContextib
3474:__Z25GetBuiltinResourceManagerv
3475:__ZNK22BuiltinResourceManager11GetResourceEPKN5Unity4TypeERKN4core12basic_stringIcNS4_20StringStorageDefaultIcEEEE
3476:__ZN8Material11SetPassFastEPN9ShaderLab4PassER17ShaderPassContextP6Shaderib
3477:__ZN8Material15BuildPropertiesEv
3478:__ZN8Material12UpdateHashesEv
3479:__Z26ApplyMaterialPassWithCacheRK18SharedMaterialDataR17ShaderPassContextP6ShaderPN9ShaderLab4PassEibPKNS6_10GrabPassesEPNS6_11SubProgramsE
3480:__ZN24MaterialDisplayListCache24GetCachedPassForMaterialERK18SharedMaterialDataPN9ShaderLab4PassE
3481:__ZN24MaterialDisplayListCache16CachedShaderPass9FindEntryERK16ShaderKeywordSet
3482:__ZN9ShaderLab4Pass9ApplyPassEjPK19ShaderPropertySheetR17ShaderPassContextP6ShaderiPKNS_10GrabPassesEPNS_11SubProgramsE
3483:__ZNK9ShaderLab11ShaderState16ApplyShaderStateEjPK19ShaderPropertySheetRK17ShaderPassContextP6ShaderPNS_4PassEPNS_11SubProgramsE
3484:__ZN9ShaderLab10GrabPasses13ApplyGrabPassERKNS_16FastPropertyNameER17ShaderPassContextRKS0_
3485:__Z16GetRenderManagerv
3486:__ZN13RenderManager19GetCurrentCameraPtrEv
3487:__ZN9ShaderLabL15GetSizedTextureEPK6CameraRKNS_16FastPropertyNameEbbRb
3488:__ZN13RenderTexture17SetGlobalPropertyERKN9ShaderLab16FastPropertyNameER17ShaderPassContext
3489:__ZN19ShaderPropertySheet23SetTextureWithPlacementEN9ShaderLab16FastPropertyNameEP7Texture8Vector2fS4_
3490:__ZN19ShaderPropertySheet18AddTextureFromInfoEN9ShaderLab16FastPropertyNameEPKNS0_25SerializedTexturePropertyE
3491:__ZN19ShaderPropertySheet17UpdateTextureInfoEiN9ShaderLab16FastPropertyNameEP7Textureb
3492:__ZN19ShaderPropertySheet37CreateTextureAuxPropertyUninitializedEN9ShaderLab16FastPropertyNameEPKc
3493:__ZNK9ShaderLab16FastPropertyName7GetNameEv
3494:__Z25GetBuiltinVectorParamNamei
3495:__Z25GetBuiltinMatrixParamNamei
3496:__Z25GetBuiltinTexEnvParamNamei
3497:__ZN9ShaderLab6TexEnv14SetTextureInfoE9TextureID16TextureDimension14VRTextureUsageRKNS_16FastPropertyNameE
3498:__Z22GetTextureDecodeValues16TextureUsageMode17TextureColorSpace
3499:__ZN9ShaderLab6TexEnvC2ERKNS_25SerializedTexturePropertyE
3500:__ZN13RenderTexture9GetActiveEi
3501:__ZNK6Camera13GetCameraRectEb
3502:__Z14RectfToRectIntRK5RectTIfE
3503:__Z22GetRenderBufferManagerv
3504:__ZN6Camera31GetRenderTextureFormatForCameraEbbb
3505:__ZN19RenderBufferManager17ReleaseTempBufferEP13RenderTexture
3506:__ZN19RenderBufferManager13GetTempBufferEii17DepthBufferFormat19RenderTextureFormatj22RenderTextureReadWrite14VRTextureUsagei
3507:__ZN13RenderTexture6CreateEv
3508:__ZN13RenderTexture24CorrectVerticalTexelSizeEb
3509:__ZN13RenderTexture10GrabPixelsEiiii
3510:__ZN7Texture13SetFilterModeEi
3511:__ZN13RenderTexture6CreateERK12ObjectHandleI17RenderSurface_TagP17RenderSurfaceBaseES6_
3512:__ZN13RenderTexture15DestroySurfacesEv
3513:__Z15IsDepthRTFormat19RenderTextureFormat
3514:__ZN9GfxDevice18AliasRenderSurfaceE9TextureIDP17RenderSurfaceBase
3515:__ZN16RenderTextureMap6UpdateEPK17RenderSurfaceBaseP13RenderTexture
3516:__ZN7Texture33SetStoredColorSpaceNoDirtyNoApplyE17TextureColorSpace
3517:__Z22CalculateMipMapCount3Diii
3518:__ZN15dense_hashtableINSt3__24pairIKPK17RenderSurfaceBaseP13RenderTextureEES4_19PointerHashFunctionIS4_EN14dense_hash_mapIS4_S7_SA_NS0_8equal_toIS4_EE13stl_allocatorIS8_L18MemLabelIdentifier65ELi16EEE9SelectKeyESD_SG_E12resize_deltaEjj
3519:__ZN15dense_hashtableINSt3__24pairIKPK17RenderSurfaceBaseP13RenderTextureEES4_19PointerHashFunctionIS4_EN14dense_hash_mapIS4_S7_SA_NS0_8equal_toIS4_EE13stl_allocatorIS8_L18MemLabelIdentifier65ELi16EEE9SelectKeyESD_SG_E15insert_noresizeERKS8_
3520:__ZN15dense_hashtableINSt3__24pairIKPK17RenderSurfaceBaseP13RenderTextureEES4_19PointerHashFunctionIS4_EN14dense_hash_mapIS4_S7_SA_NS0_8equal_toIS4_EE13stl_allocatorIS8_L18MemLabelIdentifier65ELi16EEE9SelectKeyESD_SG_E12maybe_shrinkEv
3521:__ZN15dense_hashtableINSt3__24pairIKPK17RenderSurfaceBaseP13RenderTextureEES4_19PointerHashFunctionIS4_EN14dense_hash_mapIS4_S7_SA_NS0_8equal_toIS4_EE13stl_allocatorIS8_L18MemLabelIdentifier65ELi16EEE9SelectKeyESD_SG_E9copy_fromERKSJ_j
3522:__ZN16RenderTextureMap6RemoveEPK17RenderSurfaceBase
3523:__ZN6Camera24OnRenderSurfaceDestroyedE12ObjectHandleI17RenderSurface_TagP17RenderSurfaceBaseEP13RenderTexture
3524:__ZN19RenderBufferManager13GetTempBufferE17RenderTextureDesc
3525:__ZNK6Camera24GetScreenViewportRectIntEv
3526:__ZN19RenderBufferManager24IsReusableWithParametersERKNSt3__24pairIK4PPtrI13RenderTextureE17RenderTextureDescEERKS6_
3527:__ZN7TextureC2E18MemLabelIdentifier18ObjectCreationMode
3528:__ZN13RenderTexture20SetRenderTextureDescERK17RenderTextureDesc
3529:__ZN10MemoryPool24RegisterStaticMemoryPoolEPS_
3530:__ZN10MemoryPool8AllocateEj
3531:__ZN15TextureSettings5ResetEv
3532:__ZN10MemoryPool14AllocNewBubbleEv
3533:__ZNSt3__26vectorIP10MemoryPool13stl_allocatorIS2_L18MemLabelIdentifier72ELi16EEE21__push_back_slow_pathIKS2_EEvRT_
3534:__ZN13RenderTexture14SetColorFormatE19RenderTextureFormat
3535:__ZN13RenderTexture9SetMipMapEb
3536:__ZN13RenderTexture12SetDimensionE16TextureDimension
3537:__ZN13RenderTextureD2Ev
3538:__ZN13RenderTextureD0Ev
3539:__ZN13RenderTexture17MainThreadCleanupEv
3540:__ZN13RenderTexture13AwakeFromLoadE17AwakeFromLoadMode
3541:__ZN7Texture16CheckConsistencyEv
3542:__ZN7Texture5ResetEv
3543:__ZNK13RenderTexture26GetTypeInfoVirtualInternalEv
3544:__ZNK13RenderTexture20GetRuntimeMemorySizeEv
3545:__ZN6Object24SetCachedScriptingObjectE18ScriptingObjectPtr
3546:__ZN13RenderTexture23VirtualRedirectTransferER19StreamedBinaryWriteILb0EE
3547:__ZN13RenderTexture23VirtualRedirectTransferER18StreamedBinaryReadILb0EE
3548:__ZN13RenderTexture23VirtualRedirectTransferER17RemapPPtrTransfer
3549:__ZN13RenderTexture23VirtualRedirectTransferER24GenerateTypeTreeTransfer
3550:__ZN13RenderTexture23VirtualRedirectTransferER14SafeBinaryRead
3551:__ZN13RenderTexture13ApplySettingsEv
3552:__ZNK13RenderTexture21GetShadowSamplingModeEv
3553:__ZNK13RenderTexture14IsDepthTextureEv
3554:__ZNK13RenderTexture13GetDataHeightEv
3555:__ZNK13RenderTexture20GetTextureLayerCountEv
3556:__ZNK13RenderTexture10GetVRUsageEv
3557:__ZN7Texture33VerifyFileTextureUploadCompletionEv
3558:__ZNK13RenderTexture16ExtractImageImplEP14ImageReferenceNS0_8BlitModeEbi
3559:__Z21GetAsyncUploadManagerv
3560:__ZN18AsyncUploadManager12HasCompletedE10AsyncFence
3561:__Z18GetQualitySettingsv
3562:__ZN15TextureSettings38ClearUnsupportedSettingsForColorFormatE19RenderTextureFormat
3563:__ZNK15TextureSettings5ApplyE9TextureID16TextureDimensionb17TextureColorSpace18ShadowSamplingModeb
3564:__ZN14SafeBinaryRead13BeginTransferEPKcS1_PPFbPvRS_Eb
3565:__ZN13RenderTexture8TransferI14SafeBinaryReadEEvRT_
3566:__ZN14SafeBinaryRead11EndTransferEv
3567:__ZN12CachedReader15UpdateReadCacheEPvj
3568:__ZN15SerializeTraitsI15TextureSettingsE8TransferI14SafeBinaryReadEEvRS0_RT_
3569:__ZN11NamedObject8TransferI14SafeBinaryReadEEvRT_
3570:__ZN14ConstantString6assignEPKc18MemLabelIdentifier
3571:__ZL4WalkRK16TypeTreeIteratorR12CachedReaderPxb
3572:__Z23GetAllowNameConversionsPK20AllowNameConversionsPKcS3_
3573:__ZNK16TypeTreeIterator4TypeEv
3574:__Z13FindConverterPKcS0_
3575:__ZN24GenerateTypeTreeTransfer13BeginTransferEPKcS1_Pc17TransferMetaFlags
3576:__ZN13RenderTexture8TransferI24GenerateTypeTreeTransferEEvRT_
3577:__ZN24GenerateTypeTreeTransfer11EndTransferEv
3578:__ZNK16TypeTreeIterator6FatherEv
3579:__ZN24GenerateTypeTreeTransfer5AlignEv
3580:__ZN15TextureSettings8TransferI24GenerateTypeTreeTransferEEvRT_
3581:__ZNK16TypeTreeIterator4LastEv
3582:__ZN11NamedObject8TransferI24GenerateTypeTreeTransferEEvRT_
3583:__ZN24GenerateTypeTreeTransfer18BeginArrayTransferEPKcS1_Ri17TransferMetaFlags
3584:__ZN24GenerateTypeTreeTransfer16EndArrayTransferEv
3585:__ZN8TypeTree8AddChildERK16TypeTreeIterator
3586:__ZN8TypeTree16AssignTypeStringERK16TypeTreeIteratorPKc
3587:__ZN8TypeTree16AssignNameStringERK16TypeTreeIteratorPKc
3588:__ZN8TypeTree16AssignByteOffsetERK16TypeTreeIteratorj
3589:__ZN13RenderTexture8TransferI18StreamedBinaryReadILb0EEEEvRT_
3590:__ZN18StreamedBinaryReadILb0EE5AlignEv
3591:__ZN12CachedReader10Align4ReadEv
3592:__ZN11NamedObject8TransferI18StreamedBinaryReadILb0EEEEvRT_
3593:__ZN13RenderTexture8TransferI19StreamedBinaryWriteILb0EEEEvRT_
3594:__ZN12CachedWriter16UpdateWriteCacheEPKvj
3595:__ZN19StreamedBinaryWriteILb0EE5AlignEv
3596:__ZN12CachedWriter11Align4WriteEv
3597:__ZN11NamedObject8TransferI19StreamedBinaryWriteILb0EEEEvRT_
3598:__ZN17ScriptingGCHandle13AcquireStrongE18ScriptingObjectPtr
3599:__ZN17ScriptingGCHandle15ReleaseAndClearEv
3600:__ZN15TextureSettings16CheckConsistencyEv
3601:__ZN13RenderTexture7ReleaseEv
3602:__ZN6Camera24OnRenderTextureDestroyedEP13RenderTexture
3603:__ZN7Texture17MainThreadCleanupEv
3604:__ZN6Camera23SetTargetTextureBuffersEP13RenderTextureiP12ObjectHandleI17RenderSurface_TagP17RenderSurfaceBaseES6_PS1_
3605:__ZN6Camera11ResetAspectEv
3606:__ZN13RenderManager12RemoveCameraEP6Camera
3607:__ZN13RenderManager9AddCameraEP6Camera
3608:__ZN13RenderManager26SetCurrentCameraDeprecatedEP6Camera
3609:__ZNSt3__24listI4PPtrI6CameraENS_9allocatorIS3_EEE6removeERKS3_
3610:__ZNK6Camera16GetTargetTextureEv
3611:__ZNK6Camera16GetStereoEnabledEv
3612:__ZL19GetCameraTargetRectRK6Camerabb
3613:__ZN16RenderTextureMap5QueryEPK17RenderSurfaceBase
3614:__ZN13RenderTexture9SetActiveEiP12ObjectHandleI17RenderSurface_TagP17RenderSurfaceBaseES4_PPS_i11CubemapFaceiNS_14SetActiveFlagsE
3615:__ZN13RenderTexture9SetActiveERK20GfxRenderTargetSetupPPS_NS_14SetActiveFlagsE
3616:__ZN9GfxDevice16SetRenderTargetsERK20GfxRenderTargetSetup
3617:__ZNK6Camera20IsCurrentlyRenderingEv
3618:__ZN13RenderTexture15ThreadedCleanupEv
3619:__ZN11NamedObjectD2Ev
3620:__ZN11NamedObjectD0Ev
3621:__ZNK11NamedObject26GetTypeInfoVirtualInternalEv
3622:__ZN11NamedObject7SetNameEPKc
3623:__ZN11NamedObject23VirtualRedirectTransferER24GenerateTypeTreeTransfer
3624:__ZN11NamedObject23VirtualRedirectTransferER14SafeBinaryRead
3625:__ZN7TextureD2Ev
3626:__ZN7TextureD0Ev
3627:__ZNK7Texture26GetTypeInfoVirtualInternalEv
3628:__ZN7Texture23VirtualRedirectTransferER24GenerateTypeTreeTransfer
3629:__ZN7Texture23VirtualRedirectTransferER14SafeBinaryRead
3630:__ZN7Texture13ApplySettingsEv
3631:__ZN11NamedObjectC2E18MemLabelIdentifier18ObjectCreationMode
3632:__ZN6ObjectC2E18MemLabelIdentifier18ObjectCreationMode
3633:__ZN14ConstantString12create_emptyEv
3634:__ZN17ScriptingGCHandle7AcquireE18ScriptingObjectPtr25ScriptingGCHandleWeakness
3635:__ZNK6Object26GetTypeInfoVirtualInternalEv
3636:__ZNSt3__26__treeINS_12__value_typeI4PPtrI13RenderTextureE17RenderTextureDescEENS_19__map_value_compareIS4_S6_NS_4lessIS4_EELb1EEE11memory_poolIS6_EE5eraseENS_21__tree_const_iteratorIS6_PNS_11__tree_nodeIS6_PvEEiEE
3637:__ZN13RenderTexture10GrabPixelsE12ObjectHandleI17RenderSurface_TagP17RenderSurfaceBaseES4_iiii
3638:__ZN19ShaderPropertySheet38CopyTextureWithAuxiliaryPropertiesFromERKN9ShaderLab16FastPropertyNameERKS_
3639:__ZNK9ShaderLab11ShaderState20FindSubProgramsToUseEPK6ShaderPKNS_4PassERNS_11SubProgramsERK17ShaderPassContext
3640:__ZN14GraphicsHelper28PrepareShaderParameterBufferER13dynamic_arrayIhLj4EERA6_P10GpuProgramRA6_PK20GpuProgramParametersRA6_PKhRKN9ShaderLab11SubProgramsEPK19ShaderPropertySheetSM_
3641:__ZNK9ShaderLab11ShaderState17BuildDeviceStatesER9GfxDevicePK19ShaderPropertySheetS5_RNS0_12DeviceStatesE
3642:__ZN9ShaderLab11shaderprops8GetFloatEPK19ShaderPropertySheetS3_NS_16FastPropertyNameE
3643:__Z30GetBuiltinVectorParamArraySize24BuiltinShaderVectorParam
3644:__Z30GetBuiltinMatrixParamArraySize24BuiltinShaderMatrixParam
3645:__ZNK9ShaderLab20ShaderBlendStateDesc15ToGfxBlendStateEPK19ShaderPropertySheetS3_R13GfxBlendState
3646:__ZNK9ShaderLab21ShaderRasterStateDesc16ToGfxRasterStateEPK19ShaderPropertySheetS3_R14GfxRasterState
3647:__ZNK9ShaderLab22ShaderStencilStateDesc17ToGfxStencilStateEPK19ShaderPropertySheetS3_RK14GfxRasterStateR15GfxStencilState
3648:__ZNK20GpuProgramParameters13PrepareValuesEPK19ShaderPropertySheetS2_R13dynamic_arrayIhLj4EEjP12GfxPatchInfoPb
3649:__ZL22PrepareValueParametersI21FullParameterPreparerEvRK13dynamic_arrayIN20GpuProgramParameters14ValueParameterELj4EEjjjRS1_IhLj4EERKT_
3650:__ZNK21FullParameterPreparer16OnPrepareTextureERPKN9ShaderLab6TexEnvERKN20GpuProgramParameters16TextureParameterEj
3651:__ZNK9ShaderLab6TexEnv11PrepareDataEiiP15GfxTextureParam
3652:__ZNK21FullParameterPreparer22OnPrepareComputeBufferER15ComputeBufferIDRKN20GpuProgramParameters15BufferParameterEj
3653:__ZN9ShaderLab11shaderprops16GetComputeBufferEPK19ShaderPropertySheetS3_NS_16FastPropertyNameE
3654:__ZN10builtintex17GetDefaultTextureE16TextureDimension
3655:__ZN9ShaderLab11shaderprops9GetTexEnvEPK19ShaderPropertySheetS3_NS_16FastPropertyNameE16TextureDimension
3656:__ZN10builtintex16GetDefaultTexEnvE16TextureDimension
3657:__ZNK21FullParameterPreparer13OnPrepareImplIfEEbR12PartialArrayIT_EN8GfxPatch4TypeERKN20GpuProgramParameters14ValueParameterERKN9ShaderLab11shaderprops16PropertyLocationEj
3658:__ZN9ShaderLab11shaderprops9GetVectorEPK19ShaderPropertySheetS3_NS_16FastPropertyNameE
3659:__ZN9ShaderLab11shaderprops9GetMatrixEPK19ShaderPropertySheetS3_NS_16FastPropertyNameE
3660:__ZNK9ShaderLab7Program21GetMatchingSubProgramEPK6ShaderPKNS_4PassERK16ShaderKeywordSetjPS7_R19ShaderSnippetResult
3661:__ZNK9ShaderLab7Program24MarkVariantAsUnsupportedERK16ShaderKeywordSet
3662:__ZN13dynamic_arrayI16ShaderKeywordSetLj4EE6insertEPS0_PKS0_S4_
3663:__ZN9ShaderLab11ShaderState25RemoveUnsupportedProgramsEPK6Shader
3664:__ZN6Shader10GetDefaultEv
3665:__ZN9ShaderLab10SubProgram7CompileEv
3666:__ZN6Shader27MarkShaderStateNotSupportedEPKS_
3667:__ZN6Shader19MarkShaderHasErrorsEPKS_
3668:__ZNK9ShaderLab11ShaderState34ShouldRemoveAnyUnsupportedProgramsEv
3669:__ZNK9ShaderLab7Program19HasMatchingVariantsERK13dynamic_arrayI16ShaderKeywordSetLj4EE
3670:__ZN20GpuProgramParametersaSERKS_
3671:__ZN22CreateGpuProgramOutputD2Ev
3672:__ZN20GpuProgramParametersD2Ev
3673:__ZNSt3__26vectorIN20GpuProgramParameters16TextureParameterENS_9allocatorIS2_EEE6assignIPS2_EENS_9enable_ifIXaasr21__is_forward_iteratorIT_EE5valuesr16is_constructibleIS2_NS_15iterator_traitsIS9_E9referenceEEE5valueEvE4typeES9_S9_
3674:__ZNSt3__26vectorIN20GpuProgramParameters12UAVParameterENS_9allocatorIS2_EEE6assignIPS2_EENS_9enable_ifIXaasr21__is_forward_iteratorIT_EE5valuesr16is_constructibleIS2_NS_15iterator_traitsIS9_E9referenceEEE5valueEvE4typeES9_S9_
3675:__ZNSt3__26vectorIN20GpuProgramParameters14ConstantBufferENS_9allocatorIS2_EEE6assignIPS2_EENS_9enable_ifIXaasr21__is_forward_iteratorIT_EE5valuesr16is_constructibleIS2_NS_15iterator_traitsIS9_E9referenceEEE5valueEvE4typeES9_S9_
3676:__ZN22CreateGpuProgramOutputC2Ev
3677:__ZN9ShaderLab7Program14RemoveVariantsERK13dynamic_arrayI16ShaderKeywordSetLj4EE
3678:__ZN24dense_hashtable_iteratorINSt3__24pairIKN9ShaderLab7Program23ShaderKeywordSetAndHashEPKNS2_10SubProgramEEES4_NS3_24ShaderKeywordHashFunctorEN14dense_hash_mapIS4_S8_SA_NS0_8equal_toIS4_EE13stl_allocatorIS9_L18MemLabelIdentifier65ELi16EEE9SelectKeyESD_SG_E30advance_past_empty_and_deletedEv
3679:__ZNK15dense_hashtableINSt3__24pairIKN9ShaderLab7Program23ShaderKeywordSetAndHashEPKNS2_10SubProgramEEES4_NS3_24ShaderKeywordHashFunctorEN14dense_hash_mapIS4_S8_SA_NS0_8equal_toIS4_EE13stl_allocatorIS9_L18MemLabelIdentifier65ELi16EEE9SelectKeyESD_SG_E23find_position_with_hashERS5_j
3680:__ZN9ShaderLab32FindBestMatchingShaderKeywordSetERK16ShaderKeywordSetRK13dynamic_arrayIS0_Lj4EEPS5_
3681:__ZN15dense_hashtableINSt3__24pairIKN9ShaderLab7Program23ShaderKeywordSetAndHashEPKNS2_10SubProgramEEES4_NS3_24ShaderKeywordHashFunctorEN14dense_hash_mapIS4_S8_SA_NS0_8equal_toIS4_EE13stl_allocatorIS9_L18MemLabelIdentifier65ELi16EEE9SelectKeyESD_SG_E12resize_deltaEjj
3682:__ZN15dense_hashtableINSt3__24pairIKN9ShaderLab7Program23ShaderKeywordSetAndHashEPKNS2_10SubProgramEEES4_NS3_24ShaderKeywordHashFunctorEN14dense_hash_mapIS4_S8_SA_NS0_8equal_toIS4_EE13stl_allocatorIS9_L18MemLabelIdentifier65ELi16EEE9SelectKeyESD_SG_E15insert_noresizeERKS9_
3683:__ZN15dense_hashtableINSt3__24pairIKN9ShaderLab7Program23ShaderKeywordSetAndHashEPKNS2_10SubProgramEEES4_NS3_24ShaderKeywordHashFunctorEN14dense_hash_mapIS4_S8_SA_NS0_8equal_toIS4_EE13stl_allocatorIS9_L18MemLabelIdentifier65ELi16EEE9SelectKeyESD_SG_E12maybe_shrinkEv
3684:__ZN15dense_hashtableINSt3__24pairIKN9ShaderLab7Program23ShaderKeywordSetAndHashEPKNS2_10SubProgramEEES4_NS3_24ShaderKeywordHashFunctorEN14dense_hash_mapIS4_S8_SA_NS0_8equal_toIS4_EE13stl_allocatorIS9_L18MemLabelIdentifier65ELi16EEE9SelectKeyESD_SG_E9copy_fromERKSJ_j
3685:__ZNK9ShaderLab4Pass21ComputePassValuesHashERK16ShaderKeywordSetPK19ShaderPropertySheetRK17ShaderPassContextP6Shader
3686:__ZN9ShaderLab27ComputeStateBlockValuesHashERK13dynamic_arrayIiLj4EEPK19ShaderPropertySheetS6_
3687:__ZN9ShaderLab9IntShader23CreateStateBlocksForKeyEjPK19ShaderPropertySheetS3_
3688:__ZN9ShaderLab11ShaderState15AddDeviceStatesEjPK19ShaderPropertySheetS3_
3689:__ZN19ShaderPropertySheet8CopyFromERKS_
3690:__ZN18UnityPropertySheet20AddNewShaderlabPropsERK19ShaderPropertySheet
3691:__ZN18UnityPropertySheet25AssignDefinedPropertiesToER19ShaderPropertySheet
3692:__ZNK19ShaderPropertySheet25GetVectorValueInsRGBSpaceEi
3693:__ZNSt3__23mapIN9ShaderLab16FastPropertyNameEN18UnityPropertySheet11UnityTexEnvENS_4lessIS2_EENS_9allocatorINS_4pairIKS2_S4_EEEEEixERS9_
3694:__ZNK13sorted_vectorIN22BuiltinResourceManager8ResourceENSt3__24lessIS1_EENS2_9allocatorIS1_EEE4findIS1_EENS2_11__wrap_iterIPKS1_EERKT_
3695:__ZN24MaterialDisplayListCache16CachedShaderPass10ReleaseAllEv
3696:__ZN19ShaderPropertySheet10SetTextureEN9ShaderLab16FastPropertyNameEP7Texture
3697:__ZN8Material28UpdateHashesOnPropertyChangeEN9ShaderLab16FastPropertyNameE
3698:__ZN8MaterialD2Ev
3699:__ZN8MaterialD0Ev
3700:__ZN8Material17MainThreadCleanupEv
3701:__ZN8Material13AwakeFromLoadE17AwakeFromLoadMode
3702:__ZN8Material5ResetEv
3703:__ZNK8Material26GetTypeInfoVirtualInternalEv
3704:__ZNK8Material20GetRuntimeMemorySizeEv
3705:__ZN8Material23VirtualRedirectTransferER19StreamedBinaryWriteILb0EE
3706:__ZN8Material23VirtualRedirectTransferER18StreamedBinaryReadILb0EE
3707:__ZN8Material23VirtualRedirectTransferER17RemapPPtrTransfer
3708:__ZN8Material23VirtualRedirectTransferER24GenerateTypeTreeTransfer
3709:__ZN8Material23VirtualRedirectTransferER14SafeBinaryRead
3710:__ZN8Material8TransferI14SafeBinaryReadEEvRT_
3711:__ZN14SafeBinaryRead10SetVersionEi
3712:__ZN14SafeBinaryRead19TransferSTLStyleMapINSt3__23mapIN4core12basic_stringIcNS3_20StringStorageDefaultIcEEEES7_NS1_4lessIS7_EE13stl_allocatorINS1_4pairIKS7_S7_EEL18MemLabelIdentifier1ELi16EEEEEEvRT_17TransferMetaFlags
3713:__ZN14SafeBinaryRead21TransferSTLStyleArrayINSt3__26vectorIN4core12basic_stringIcNS3_20StringStorageDefaultIcEEEE13stl_allocatorIS7_L18MemLabelIdentifier1ELi16EEEEEEvRT_17TransferMetaFlags
3714:__ZNSt3__26vectorINS_4pairI11ShaderTagIDS2_EENS_9allocatorIS3_EEE6insertENS_11__wrap_iterIPKS3_EERS8_
3715:__ZN18UnityPropertySheet8TransferI14SafeBinaryReadEEvRT_
3716:__ZNSt3__26__treeINS_12__value_typeIN4core12basic_stringIcNS2_20StringStorageDefaultIcEEEES6_EENS_19__map_value_compareIS6_S7_NS_4lessIS6_EELb1EEE13stl_allocatorIS7_L18MemLabelIdentifier1ELi16EEE7destroyEPNS_11__tree_nodeIS7_PvEE
3717:__ZN14SafeBinaryRead23IsVersionSmallerOrEqualEi
3718:__ZN14SafeBinaryRead19TransferSTLStyleMapINSt3__23mapI39DeprecatedFastPropertyNameSerializationN18UnityPropertySheet11UnityTexEnvENS1_4lessIS3_EENS1_9allocatorINS1_4pairIKS3_S5_EEEEEEEEvRT_17TransferMetaFlags
3719:__ZN14SafeBinaryRead19TransferSTLStyleMapINSt3__23mapI39DeprecatedFastPropertyNameSerializationfNS1_4lessIS3_EENS1_9allocatorINS1_4pairIKS3_fEEEEEEEEvRT_17TransferMetaFlags
3720:__ZN14SafeBinaryRead19TransferSTLStyleMapINSt3__23mapI39DeprecatedFastPropertyNameSerialization10ColorRGBAfNS1_4lessIS3_EENS1_9allocatorINS1_4pairIKS3_S4_EEEEEEEEvRT_17TransferMetaFlags
3721:__ZN14SafeBinaryRead19TransferSTLStyleMapINSt3__23mapIN9ShaderLab16FastPropertyNameEN18UnityPropertySheet11UnityTexEnvENS1_4lessIS4_EENS1_9allocatorINS1_4pairIKS4_S6_EEEEEEEEvRT_17TransferMetaFlags
3722:__ZN14SafeBinaryRead19TransferSTLStyleMapINSt3__23mapIN9ShaderLab16FastPropertyNameEfNS1_4lessIS4_EENS1_9allocatorINS1_4pairIKS4_fEEEEEEEEvRT_17TransferMetaFlags
3723:__ZN14SafeBinaryRead19TransferSTLStyleMapINSt3__23mapIN9ShaderLab16FastPropertyNameE10ColorRGBAfNS1_4lessIS4_EENS1_9allocatorINS1_4pairIKS4_S5_EEEEEEEEvRT_17TransferMetaFlags
3724:__ZN14SafeBinaryRead18BeginArrayTransferEPKcS1_Ri
3725:__ZNSt3__26__treeINS_12__value_typeIN9ShaderLab16FastPropertyNameE10ColorRGBAfEENS_19__map_value_compareIS3_S5_NS_4lessIS3_EELb1EEENS_9allocatorIS5_EEE7destroyEPNS_11__tree_nodeIS5_PvEE
3726:__ZN14SafeBinaryRead16EndArrayTransferEv
3727:__ZN14SafeBinaryRead8TransferINSt3__24pairIN9ShaderLab16FastPropertyNameE10ColorRGBAfEEEEvRT_PKc17TransferMetaFlags
3728:__ZN14SafeBinaryRead8TransferIN9ShaderLab16FastPropertyNameEEEvRT_PKc17TransferMetaFlags
3729:__ZN15SerializeTraitsI10ColorRGBAfE8TransferI14SafeBinaryReadEEvRS0_RT_
3730:__ZNSt3__26__treeINS_12__value_typeIN9ShaderLab16FastPropertyNameEfEENS_19__map_value_compareIS3_S4_NS_4lessIS3_EELb1EEENS_9allocatorIS4_EEE7destroyEPNS_11__tree_nodeIS4_PvEE
3731:__ZN15SerializeTraitsINSt3__24pairIN9ShaderLab16FastPropertyNameEfEEE8TransferI14SafeBinaryReadEEvRS4_RT_
3732:__ZNSt3__26__treeINS_12__value_typeIN9ShaderLab16FastPropertyNameEN18UnityPropertySheet11UnityTexEnvEEENS_19__map_value_compareIS3_S6_NS_4lessIS3_EELb1EEENS_9allocatorIS6_EEE7destroyEPNS_11__tree_nodeIS6_PvEE
3733:__ZN14SafeBinaryRead8TransferINSt3__24pairIN9ShaderLab16FastPropertyNameEN18UnityPropertySheet11UnityTexEnvEEEEEvRT_PKc17TransferMetaFlags
3734:__ZN18UnityPropertySheet11UnityTexEnv8TransferI14SafeBinaryReadEEvRT_
3735:__Z43LocalSerializedObjectIdentifierToInstanceIDRK31LocalSerializedObjectIdentifierRi
3736:__ZN17PersistentManager51LocalSerializedObjectIdentifierToInstanceIDInternalERK31LocalSerializedObjectIdentifierRi
3737:__ZN17PersistentManager51LocalSerializedObjectIdentifierToInstanceIDInternalEiRK31LocalSerializedObjectIdentifierRi
3738:__ZN18UnityPropertySheet11UnityTexEnvC2Ev
3739:__ZNSt3__26__treeINS_12__value_typeI39DeprecatedFastPropertyNameSerialization10ColorRGBAfEENS_19__map_value_compareIS2_S4_NS_4lessIS2_EELb1EEENS_9allocatorIS4_EEE7destroyEPNS_11__tree_nodeIS4_PvEE
3740:__ZN15SerializeTraitsINSt3__24pairI39DeprecatedFastPropertyNameSerialization10ColorRGBAfEEE8TransferI14SafeBinaryReadEEvRS4_RT_
3741:__ZN39DeprecatedFastPropertyNameSerialization8TransferI14SafeBinaryReadEEvRT_
3742:__ZNSt3__26__treeINS_12__value_typeI39DeprecatedFastPropertyNameSerializationfEENS_19__map_value_compareIS2_S3_NS_4lessIS2_EELb1EEENS_9allocatorIS3_EEE7destroyEPNS_11__tree_nodeIS3_PvEE
3743:__ZNSt3__26__treeINS_12__value_typeI39DeprecatedFastPropertyNameSerializationN18UnityPropertySheet11UnityTexEnvEEENS_19__map_value_compareIS2_S5_NS_4lessIS2_EELb1EEENS_9allocatorIS5_EEE7destroyEPNS_11__tree_nodeIS5_PvEE
3744:__ZN15SerializeTraitsINSt3__24pairI39DeprecatedFastPropertyNameSerializationN18UnityPropertySheet11UnityTexEnvEEEE8TransferI14SafeBinaryReadEEvRS5_RT_
3745:__ZN18SharedMaterialDataD2Ev
3746:__ZN18SharedMaterialDataD0Ev
3747:__Z14resize_trimmedINSt3__26vectorIN4core12basic_stringIcNS2_20StringStorageDefaultIcEEEE13stl_allocatorIS6_L18MemLabelIdentifier1ELi16EEEEEvRT_j
3748:__ZNSt3__26vectorIN4core12basic_stringIcNS1_20StringStorageDefaultIcEEEE13stl_allocatorIS5_L18MemLabelIdentifier1ELi16EEE7reserveEj
3749:__ZNSt3__26vectorIN4core12basic_stringIcNS1_20StringStorageDefaultIcEEEE13stl_allocatorIS5_L18MemLabelIdentifier1ELi16EEE6assignINS_11__wrap_iterIPS5_EEEENS_9enable_ifIXaasr21__is_forward_iteratorIT_EE5valuesr16is_constructibleIS5_NS_15iterator_traitsISF_E9referenceEEE5valueEvE4typeESF_SF_
3750:__ZNSt3__26vectorIN4core12basic_stringIcNS1_20StringStorageDefaultIcEEEE13stl_allocatorIS5_L18MemLabelIdentifier1ELi16EEE8__appendEj
3751:__ZNSt3__26vectorIN4core12basic_stringIcNS1_20StringStorageDefaultIcEEEE13stl_allocatorIS5_L18MemLabelIdentifier1ELi16EEEC2INS_11__wrap_iterIPS5_EEEET_SE_RKS8_PNS_9enable_ifIXaasr21__is_forward_iteratorISE_EE5valuesr16is_constructibleIS5_NS_15iterator_traitsISE_E9referenceEEE5valueEvE4typeE
3752:__ZN15SerializeTraitsINSt3__24pairIN4core12basic_stringIcNS2_20StringStorageDefaultIcEEEES6_EEE8TransferI14SafeBinaryReadEEvRS7_RT_
3753:__ZNSt3__26__treeINS_12__value_typeIN4core12basic_stringIcNS2_20StringStorageDefaultIcEEEES6_EENS_19__map_value_compareIS6_S7_NS_4lessIS6_EELb1EEE13stl_allocatorIS7_L18MemLabelIdentifier1ELi16EEE16__construct_nodeERKNS_4pairIKS6_S6_EE
3754:__ZN8Material8TransferI24GenerateTypeTreeTransferEEvRT_
3755:__ZN24GenerateTypeTreeTransfer10SetVersionEi
3756:__ZN24GenerateTypeTreeTransfer19TransferSTLStyleMapINSt3__23mapIN4core12basic_stringIcNS3_20StringStorageDefaultIcEEEES7_NS1_4lessIS7_EE13stl_allocatorINS1_4pairIKS7_S7_EEL18MemLabelIdentifier1ELi16EEEEEEvRT_17TransferMetaFlags
3757:__ZN18UnityPropertySheet8TransferI24GenerateTypeTreeTransferEEvRT_
3758:__ZN15SerializeTraitsIN18UnityPropertySheet11UnityTexEnvEE8TransferI24GenerateTypeTreeTransferEEvRS1_RT_
3759:__ZN10ColorRGBAf8TransferI24GenerateTypeTreeTransferEEvRT_
3760:__ZN15SerializeTraitsINSt3__24pairIN4core12basic_stringIcNS2_20StringStorageDefaultIcEEEES6_EEE8TransferI24GenerateTypeTreeTransferEEvRS7_RT_
3761:__ZN8Material8TransferI17RemapPPtrTransferEEvRT_
3762:__ZN8Material8TransferI18StreamedBinaryReadILb0EEEEvRT_
3763:__ZN18StreamedBinaryReadILb0EE19TransferSTLStyleMapINSt3__23mapIN4core12basic_stringIcNS4_20StringStorageDefaultIcEEEES8_NS2_4lessIS8_EE13stl_allocatorINS2_4pairIKS8_S8_EEL18MemLabelIdentifier1ELi16EEEEEEvRT_17TransferMetaFlags
3764:__ZN18StreamedBinaryReadILb0EE19TransferSTLStyleMapINSt3__23mapIN9ShaderLab16FastPropertyNameEN18UnityPropertySheet11UnityTexEnvENS2_4lessIS5_EENS2_9allocatorINS2_4pairIKS5_S7_EEEEEEEEvRT_17TransferMetaFlags
3765:__ZN18StreamedBinaryReadILb0EE19TransferSTLStyleMapINSt3__23mapIN9ShaderLab16FastPropertyNameEfNS2_4lessIS5_EENS2_9allocatorINS2_4pairIKS5_fEEEEEEEEvRT_17TransferMetaFlags
3766:__ZN18StreamedBinaryReadILb0EE19TransferSTLStyleMapINSt3__23mapIN9ShaderLab16FastPropertyNameE10ColorRGBAfNS2_4lessIS5_EENS2_9allocatorINS2_4pairIKS5_S6_EEEEEEEEvRT_17TransferMetaFlags
3767:__ZN18StreamedBinaryReadILb0EE8TransferINSt3__24pairIN9ShaderLab16FastPropertyNameEfEEEEvRT_PKc17TransferMetaFlags
3768:__ZN18UnityPropertySheet11UnityTexEnv8TransferI18StreamedBinaryReadILb0EEEEvRT_
3769:__ZN8Material8TransferI19StreamedBinaryWriteILb0EEEEvRT_
3770:__ZN8Material43AddDefaultShaderPropertiesToSavedPropertiesEv
3771:__ZN9shadertag16GetShaderTagNameE11ShaderTagID
3772:__ZNSt3__23mapIN4core12basic_stringIcNS1_20StringStorageDefaultIcEEEES5_NS_4lessIS5_EE13stl_allocatorINS_4pairIKS5_S5_EEL18MemLabelIdentifier1ELi16EEEixERSA_
3773:__ZN19StreamedBinaryWriteILb0EE19TransferSTLStyleMapINSt3__23mapIN4core12basic_stringIcNS4_20StringStorageDefaultIcEEEES8_NS2_4lessIS8_EE13stl_allocatorINS2_4pairIKS8_S8_EEL18MemLabelIdentifier1ELi16EEEEEEvRT_17TransferMetaFlags
3774:__ZN18UnityPropertySheet8TransferI19StreamedBinaryWriteILb0EEEEvRT_
3775:__Z36UnityPropertySheet_MakeSortedTexEnvsRKNSt3__23mapIN9ShaderLab16FastPropertyNameEN18UnityPropertySheet11UnityTexEnvENS_4lessIS2_EENS_9allocatorINS_4pairIKS2_S4_EEEEEER10vector_mapIS2_S4_S6_NS7_INS8_IS2_S4_EEEEE
3776:__ZN15SerializeTraitsIN9ShaderLab16FastPropertyNameEE8TransferI19StreamedBinaryWriteILb0EEEEvRS1_RT_
3777:__ZN18UnityPropertySheet11UnityTexEnv8TransferI19StreamedBinaryWriteILb0EEEEvRT_
3778:__Z35UnityPropertySheet_MakeSortedFloatsRKNSt3__23mapIN9ShaderLab16FastPropertyNameEfNS_4lessIS2_EENS_9allocatorINS_4pairIKS2_fEEEEEER10vector_mapIS2_fS4_NS5_INS6_IS2_fEEEEE
3779:__Z35UnityPropertySheet_MakeSortedColorsRKNSt3__23mapIN9ShaderLab16FastPropertyNameE10ColorRGBAfNS_4lessIS2_EENS_9allocatorINS_4pairIKS2_S3_EEEEEER10vector_mapIS2_S3_S5_NS6_INS7_IS2_S3_EEEEE
3780:__ZL15SortColorByNameRKNSt3__24pairIN9ShaderLab16FastPropertyNameE10ColorRGBAfEES6_
3781:__ZNSt3__26__sortIRPFbRKNS_4pairIN9ShaderLab16FastPropertyNameE10ColorRGBAfEES7_EPS5_EEvT0_SC_T_
3782:__ZNSt3__26vectorINS_4pairIN9ShaderLab16FastPropertyNameE10ColorRGBAfEENS_9allocatorIS5_EEE21__push_back_slow_pathIKS5_EEvRT_
3783:__ZNSt3__27__sort3IRPFbRKNS_4pairIN9ShaderLab16FastPropertyNameE10ColorRGBAfEES7_EPS5_EEjT0_SC_SC_T_
3784:__ZNSt3__27__sort4IRPFbRKNS_4pairIN9ShaderLab16FastPropertyNameE10ColorRGBAfEES7_EPS5_EEjT0_SC_SC_SC_T_
3785:__ZNSt3__27__sort5IRPFbRKNS_4pairIN9ShaderLab16FastPropertyNameE10ColorRGBAfEES7_EPS5_EEjT0_SC_SC_SC_SC_T_
3786:__ZNSt3__227__insertion_sort_incompleteIRPFbRKNS_4pairIN9ShaderLab16FastPropertyNameE10ColorRGBAfEES7_EPS5_EEbT0_SC_T_
3787:__ZNSt3__26__sortIRPFbRKNS_4pairIN9ShaderLab16FastPropertyNameEfEES6_EPS4_EEvT0_SB_T_
3788:__ZNSt3__27__sort3IRPFbRKNS_4pairIN9ShaderLab16FastPropertyNameEfEES6_EPS4_EEjT0_SB_SB_T_
3789:__ZNSt3__27__sort5IRPFbRKNS_4pairIN9ShaderLab16FastPropertyNameEfEES6_EPS4_EEjT0_SB_SB_SB_SB_T_
3790:__ZNSt3__227__insertion_sort_incompleteIRPFbRKNS_4pairIN9ShaderLab16FastPropertyNameEfEES6_EPS4_EEbT0_SB_T_
3791:__Z43InstanceIDToLocalSerializedObjectIdentifieriR31LocalSerializedObjectIdentifier
3792:__ZN17PersistentManager51InstanceIDToLocalSerializedObjectIdentifierInternalEiR31LocalSerializedObjectIdentifier
3793:__ZN17PersistentManager40GlobalToLocalSerializedFileIndexInternalERK26SerializedObjectIdentifier
3794:__ZN14SerializedFile14AddExternalRefERK14FileIdentifier
3795:__ZNSt3__26__sortIRPFbRKNS_4pairIN9ShaderLab16FastPropertyNameEN18UnityPropertySheet11UnityTexEnvEEES8_EPS6_EEvT0_SD_T_
3796:__ZNSt3__26vectorINS_4pairIN9ShaderLab16FastPropertyNameEN18UnityPropertySheet11UnityTexEnvEEENS_9allocatorIS6_EEE21__push_back_slow_pathIKS6_EEvRT_
3797:__ZNSt3__27__sort3IRPFbRKNS_4pairIN9ShaderLab16FastPropertyNameEN18UnityPropertySheet11UnityTexEnvEEES8_EPS6_EEjT0_SD_SD_T_
3798:__ZNSt3__27__sort4IRPFbRKNS_4pairIN9ShaderLab16FastPropertyNameEN18UnityPropertySheet11UnityTexEnvEEES8_EPS6_EEjT0_SD_SD_SD_T_
3799:__ZNSt3__27__sort5IRPFbRKNS_4pairIN9ShaderLab16FastPropertyNameEN18UnityPropertySheet11UnityTexEnvEEES8_EPS6_EEjT0_SD_SD_SD_SD_T_
3800:__ZNSt3__227__insertion_sort_incompleteIRPFbRKNS_4pairIN9ShaderLab16FastPropertyNameEN18UnityPropertySheet11UnityTexEnvEEES8_EPS6_EEbT0_SD_T_
3801:__ZNK19ShaderPropertySheet16GetSerializeSizeEv
3802:__ZN8Material15ResetWithShaderEP6Shader
3803:__ZN18UnityPropertySheetaSERKS_
3804:__ZN8Material17UpdateToNewShaderEb
3805:__ZN8Material14SetOverrideTagE11ShaderTagIDS0_
3806:__ZN8keywords18StringToKeywordSetERKN4core12basic_stringIcNS0_20StringStorageDefaultIcEEEER16ShaderKeywordSet
3807:__ZN8Material15ThreadedCleanupEv
3808:__ZN15NameToObjectMapI6ShaderNSt3__23mapI4PPtrIS0_EN4core12basic_stringIcNS5_20StringStorageDefaultIcEEEENS1_4lessIS4_EENS1_9allocatorINS1_4pairIKS4_S9_EEEEEENS1_8multimapIS9_S4_NSA_IS9_EENSC_INSD_IKS9_S4_EEEEEEE4FindERSK_
3809:__ZNSt3__26__treeINS_12__value_typeIN4core12basic_stringIcNS2_20StringStorageDefaultIcEEEE4PPtrI6ShaderEEENS_19__map_value_compareIS6_SA_NS_4lessIS6_EELb1EEENS_9allocatorISA_EEE19__equal_range_multiIS6_EENS_4pairINS_15__tree_iteratorISA_PNS_11__tree_nodeISA_PvEEiEESP_EERKT_
3810:__ZNK26PlayerSettingsSplashScreen34GetSplashScreenBackgroundLandscapeEv
3811:__ZNK26PlayerSettingsSplashScreen29GetSplashScreenOverlayOpacityEv
3812:__ZN10Matrix4x4f8SetOrthoEffffff
3813:__ZN22DeviceMVPMatricesStateC2ER9GfxDevice
3814:__Z18ClearByDrawingQuad13GfxClearFlagsRK10ColorRGBAffjR17ShaderPassContext
3815:__ZN6Shader20GetScreenClearShaderEv
3816:__Z25LoadFullScreenOrthoMatrixffR9GfxDevice
3817:__Z17BeginSplashScreenv
3818:__ZL17CreateLogoPresetsj
3819:__ZNK26PlayerSettingsSplashScreen24GetShowUnitySplashScreenEv
3820:__ZN13RenderManager22OnWindowSizeHasChangedEv
3821:__ZN6Camera20WindowSizeHasChangedEv
3822:__ZN7Cursors9SetCursorEP9Texture2D8Vector2f10CursorMode
3823:__Z13ConvertPixelsPKh13TextureFormatPhS1_j
3824:__Z25GetBytesFromTextureFormat13TextureFormat
3825:__ZN6prcore9BlitImageERK14ImageReferenceRS0_NS0_8BlitModeE
3826:__Z20GetTextureFormatInfo13TextureFormat
3827:__Z19IsHalfTextureFormat13TextureFormat
3828:__Z20IsFloatTextureFormat13TextureFormat
3829:__ZN6prcore14BlitImageFloatERK14ImageReferenceRS0_NS0_8BlitModeE
3830:__ZN6prcoreL21CreateRemapAnyBlitterE13TextureFormatS0_
3831:__ZN6prcore17GetIntegerBlitterE13TextureFormatS0_N14ImageReference8BlitModeE
3832:__ZN6prcoreL31inner_stretch_argb8888_bilinearEPKNS_9InnerInfoE
3833:__ZN6prcoreL13inner_stretchILj1ELj1EEEvPKNS_9InnerInfoE
3834:__ZN6prcoreL13inner_stretchILj2ELj2EEEvPKNS_9InnerInfoE
3835:__ZN6prcoreL13inner_stretchILj3ELj3EEEvPKNS_9InnerInfoE
3836:__ZN6prcoreL13inner_stretchILj4ELj4EEEvPKNS_9InnerInfoE
3837:__ZN6prcoreL25inner_stretch_i8_bilinearEPKNS_9InnerInfoE
3838:__ZN6prcoreL29inner_stretch_rgb565_bilinearEPKNS_9InnerInfoE
3839:__ZN6prcoreL29inner_stretch_rgb888_bilinearEPKNS_9InnerInfoE
3840:__ZN6prcoreL31inner_stretch_argb4444_bilinearEPKNS_9InnerInfoE
3841:__ZN6prcoreL12RemapGenericI11TexFormatI815TexFormatRGB565EEvPKNS_9InnerInfoE
3842:__ZN6prcoreL12RemapGenericI11TexFormatI815TexFormatRGB888EEvPKNS_9InnerInfoE
3843:__ZN6prcoreL12RemapGenericI11TexFormatI817TexFormatARGB4444EEvPKNS_9InnerInfoE
3844:__ZN6prcoreL12RemapGenericI11TexFormatI817TexFormatARGB8888EEvPKNS_9InnerInfoE
3845:__ZN6prcoreL12RemapGenericI11TexFormatA817TexFormatARGB8888EEvPKNS_9InnerInfoE
3846:__ZN6prcoreL12RemapGenericI15TexFormatRGB56511TexFormatI8EEvPKNS_9InnerInfoE
3847:__ZN6prcoreL12RemapGenericI15TexFormatRGB56515TexFormatRGB888EEvPKNS_9InnerInfoE
3848:__ZN6prcoreL12RemapGenericI15TexFormatRGB56517TexFormatARGB4444EEvPKNS_9InnerInfoE
3849:__ZN6prcoreL12RemapGenericI15TexFormatRGB56517TexFormatARGB8888EEvPKNS_9InnerInfoE
3850:__ZN6prcoreL12RemapGenericI15TexFormatRGB56515TexFormatBGR888EEvPKNS_9InnerInfoE
3851:__ZN6prcoreL12RemapGenericI15TexFormatRGB88811TexFormatI8EEvPKNS_9InnerInfoE
3852:__ZN6prcoreL12RemapGenericI15TexFormatRGB88815TexFormatRGB565EEvPKNS_9InnerInfoE
3853:__ZN6prcoreL12RemapGenericI15TexFormatRGB88817TexFormatARGB4444EEvPKNS_9InnerInfoE
3854:__ZN6prcoreL12RemapGenericI15TexFormatRGB88817TexFormatARGB8888EEvPKNS_9InnerInfoE
3855:__ZN6prcoreL12RemapGenericI17TexFormatARGB444411TexFormatI8EEvPKNS_9InnerInfoE
3856:__ZN6prcoreL12RemapGenericI17TexFormatARGB444415TexFormatRGB565EEvPKNS_9InnerInfoE
3857:__ZN6prcoreL12RemapGenericI17TexFormatARGB444415TexFormatRGB888EEvPKNS_9InnerInfoE
3858:__ZN6prcoreL12RemapGenericI17TexFormatARGB444417TexFormatARGB8888EEvPKNS_9InnerInfoE
3859:__ZN6prcoreL12RemapGenericI17TexFormatARGB444417TexFormatABGR8888EEvPKNS_9InnerInfoE
3860:__ZN6prcoreL12RemapGenericI17TexFormatARGB888811TexFormatI8EEvPKNS_9InnerInfoE
3861:__ZN6prcoreL12RemapGenericI17TexFormatARGB888811TexFormatA8EEvPKNS_9InnerInfoE
3862:__ZN6prcoreL12RemapGenericI17TexFormatARGB888815TexFormatRGB565EEvPKNS_9InnerInfoE
3863:__ZN6prcoreL12RemapGenericI17TexFormatARGB888815TexFormatRGB888EEvPKNS_9InnerInfoE
3864:__ZN6prcoreL12RemapGenericI17TexFormatARGB888817TexFormatARGB4444EEvPKNS_9InnerInfoE
3865:__ZN6prcoreL12RemapGenericI17TexFormatARGB888815TexFormatBGR888EEvPKNS_9InnerInfoE
3866:__ZN6prcoreL12RemapGenericI17TexFormatARGB888817TexFormatABGR8888EEvPKNS_9InnerInfoE
3867:__ZN6prcoreL12RemapGenericI17TexFormatARGB888817TexFormatRGBA4444EEvPKNS_9InnerInfoE
3868:__ZN6prcoreL12RemapGenericI17TexFormatARGB888817TexFormatBGRA8888EEvPKNS_9InnerInfoE
3869:__ZN6prcoreL12RemapGenericI17TexFormatARGB888817TexFormatRGBA8888EEvPKNS_9InnerInfoE
3870:__ZN6prcoreL12RemapGenericI15TexFormatBGR88817TexFormatARGB8888EEvPKNS_9InnerInfoE
3871:__ZN6prcoreL12RemapGenericI17TexFormatABGR888817TexFormatARGB8888EEvPKNS_9InnerInfoE
3872:__ZN6prcoreL12RemapGenericI17TexFormatRGBA444417TexFormatARGB8888EEvPKNS_9InnerInfoE
3873:__ZN6prcoreL12RemapGenericI17TexFormatRGBA444417TexFormatABGR8888EEvPKNS_9InnerInfoE
3874:__ZN6prcoreL12RemapGenericI17TexFormatBGRA888817TexFormatABGR8888EEvPKNS_9InnerInfoE
3875:__ZN6prcoreL12RemapGenericI17TexFormatRGBA888817TexFormatARGB8888EEvPKNS_9InnerInfoE
3876:__ZN6prcoreL18BlitIntegerToFloatERK14ImageReferenceRS0_
3877:__ZN6prcoreL17BlitBilinearFloatERK14ImageReferenceRS0_
3878:__ZN6prcoreL18BlitFloatToIntegerERK14ImageReferenceRS0_
3879:__ZN6prcoreL19BlitCopyWithBlitterER14ImageReferenceRKS0_NS_15BlitterRemapAnyE
3880:__ZN6prcoreL17RemapGenericFloatI15TexFormatRFloat16TexFormatRGFloatEEvPKNS_9InnerInfoE
3881:__ZN6prcoreL17RemapGenericFloatI15TexFormatRFloat17TexFormatRGBFloatEEvPKNS_9InnerInfoE
3882:__ZN6prcoreL17RemapGenericFloatI15TexFormatRFloat18TexFormatRGBAFloatEEvPKNS_9InnerInfoE
3883:__ZN6prcoreL17RemapGenericFloatI15TexFormatRFloat18TexFormatARGBFloatEEvPKNS_9InnerInfoE
3884:__ZN6prcoreL17RemapGenericFloatI15TexFormatRFloat14TexFormatRHalfEEvPKNS_9InnerInfoE
3885:__ZN6prcoreL17RemapGenericFloatI15TexFormatRFloat15TexFormatRGHalfEEvPKNS_9InnerInfoE
3886:__ZN6prcoreL17RemapGenericFloatI15TexFormatRFloat17TexFormatRGBAHalfEEvPKNS_9InnerInfoE
3887:__ZN6prcoreL17RemapGenericFloatI16TexFormatRGFloat15TexFormatRFloatEEvPKNS_9InnerInfoE
3888:__ZN6prcoreL17RemapGenericFloatI16TexFormatRGFloat17TexFormatRGBFloatEEvPKNS_9InnerInfoE
3889:__ZN6prcoreL17RemapGenericFloatI16TexFormatRGFloat18TexFormatRGBAFloatEEvPKNS_9InnerInfoE
3890:__ZN6prcoreL17RemapGenericFloatI16TexFormatRGFloat18TexFormatARGBFloatEEvPKNS_9InnerInfoE
3891:__ZN6prcoreL17RemapGenericFloatI16TexFormatRGFloat14TexFormatRHalfEEvPKNS_9InnerInfoE
3892:__ZN6prcoreL17RemapGenericFloatI16TexFormatRGFloat15TexFormatRGHalfEEvPKNS_9InnerInfoE
3893:__ZN6prcoreL17RemapGenericFloatI16TexFormatRGFloat17TexFormatRGBAHalfEEvPKNS_9InnerInfoE
3894:__ZN6prcoreL17RemapGenericFloatI17TexFormatRGBFloat15TexFormatRFloatEEvPKNS_9InnerInfoE
3895:__ZN6prcoreL17RemapGenericFloatI17TexFormatRGBFloat16TexFormatRGFloatEEvPKNS_9InnerInfoE
3896:__ZN6prcoreL17RemapGenericFloatI17TexFormatRGBFloat18TexFormatRGBAFloatEEvPKNS_9InnerInfoE
3897:__ZN6prcoreL17RemapGenericFloatI17TexFormatRGBFloat18TexFormatARGBFloatEEvPKNS_9InnerInfoE
3898:__ZN6prcoreL17RemapGenericFloatI17TexFormatRGBFloat14TexFormatRHalfEEvPKNS_9InnerInfoE
3899:__ZN6prcoreL17RemapGenericFloatI17TexFormatRGBFloat15TexFormatRGHalfEEvPKNS_9InnerInfoE
3900:__ZN6prcoreL17RemapGenericFloatI17TexFormatRGBFloat17TexFormatRGBAHalfEEvPKNS_9InnerInfoE
3901:__ZN6prcoreL17RemapGenericFloatI18TexFormatRGBAFloat15TexFormatRFloatEEvPKNS_9InnerInfoE
3902:__ZN6prcoreL17RemapGenericFloatI18TexFormatRGBAFloat16TexFormatRGFloatEEvPKNS_9InnerInfoE
3903:__ZN6prcoreL17RemapGenericFloatI18TexFormatRGBAFloat17TexFormatRGBFloatEEvPKNS_9InnerInfoE
3904:__ZN6prcoreL17RemapGenericFloatI18TexFormatRGBAFloat18TexFormatARGBFloatEEvPKNS_9InnerInfoE
3905:__ZN6prcoreL17RemapGenericFloatI18TexFormatRGBAFloat14TexFormatRHalfEEvPKNS_9InnerInfoE
3906:__ZN6prcoreL17RemapGenericFloatI18TexFormatRGBAFloat15TexFormatRGHalfEEvPKNS_9InnerInfoE
3907:__ZN6prcoreL17RemapGenericFloatI18TexFormatRGBAFloat17TexFormatRGBAHalfEEvPKNS_9InnerInfoE
3908:__ZN6prcoreL17RemapGenericFloatI18TexFormatARGBFloat15TexFormatRFloatEEvPKNS_9InnerInfoE
3909:__ZN6prcoreL17RemapGenericFloatI18TexFormatARGBFloat16TexFormatRGFloatEEvPKNS_9InnerInfoE
3910:__ZN6prcoreL17RemapGenericFloatI18TexFormatARGBFloat17TexFormatRGBFloatEEvPKNS_9InnerInfoE
3911:__ZN6prcoreL17RemapGenericFloatI18TexFormatARGBFloat18TexFormatRGBAFloatEEvPKNS_9InnerInfoE
3912:__ZN6prcoreL17RemapGenericFloatI18TexFormatARGBFloat14TexFormatRHalfEEvPKNS_9InnerInfoE
3913:__ZN6prcoreL17RemapGenericFloatI18TexFormatARGBFloat15TexFormatRGHalfEEvPKNS_9InnerInfoE
3914:__ZN6prcoreL17RemapGenericFloatI18TexFormatARGBFloat17TexFormatRGBAHalfEEvPKNS_9InnerInfoE
3915:__ZN6prcoreL17RemapGenericFloatI14TexFormatRHalf15TexFormatRFloatEEvPKNS_9InnerInfoE
3916:__ZN6prcoreL17RemapGenericFloatI14TexFormatRHalf16TexFormatRGFloatEEvPKNS_9InnerInfoE
3917:__ZN6prcoreL17RemapGenericFloatI14TexFormatRHalf17TexFormatRGBFloatEEvPKNS_9InnerInfoE
3918:__ZN6prcoreL17RemapGenericFloatI14TexFormatRHalf18TexFormatRGBAFloatEEvPKNS_9InnerInfoE
3919:__ZN6prcoreL17RemapGenericFloatI14TexFormatRHalf18TexFormatARGBFloatEEvPKNS_9InnerInfoE
3920:__ZN6prcoreL17RemapGenericFloatI14TexFormatRHalf15TexFormatRGHalfEEvPKNS_9InnerInfoE
3921:__ZN6prcoreL17RemapGenericFloatI14TexFormatRHalf17TexFormatRGBAHalfEEvPKNS_9InnerInfoE
3922:__ZN6prcoreL17RemapGenericFloatI15TexFormatRGHalf15TexFormatRFloatEEvPKNS_9InnerInfoE
3923:__ZN6prcoreL17RemapGenericFloatI15TexFormatRGHalf16TexFormatRGFloatEEvPKNS_9InnerInfoE
3924:__ZN6prcoreL17RemapGenericFloatI15TexFormatRGHalf17TexFormatRGBFloatEEvPKNS_9InnerInfoE
3925:__ZN6prcoreL17RemapGenericFloatI15TexFormatRGHalf18TexFormatRGBAFloatEEvPKNS_9InnerInfoE
3926:__ZN6prcoreL17RemapGenericFloatI15TexFormatRGHalf18TexFormatARGBFloatEEvPKNS_9InnerInfoE
3927:__ZN6prcoreL17RemapGenericFloatI15TexFormatRGHalf14TexFormatRHalfEEvPKNS_9InnerInfoE
3928:__ZN6prcoreL17RemapGenericFloatI15TexFormatRGHalf17TexFormatRGBAHalfEEvPKNS_9InnerInfoE
3929:__ZN6prcoreL17RemapGenericFloatI17TexFormatRGBAHalf15TexFormatRFloatEEvPKNS_9InnerInfoE
3930:__ZN6prcoreL17RemapGenericFloatI17TexFormatRGBAHalf16TexFormatRGFloatEEvPKNS_9InnerInfoE
3931:__ZN6prcoreL17RemapGenericFloatI17TexFormatRGBAHalf17TexFormatRGBFloatEEvPKNS_9InnerInfoE
3932:__ZN6prcoreL17RemapGenericFloatI17TexFormatRGBAHalf18TexFormatRGBAFloatEEvPKNS_9InnerInfoE
3933:__ZN6prcoreL17RemapGenericFloatI17TexFormatRGBAHalf18TexFormatARGBFloatEEvPKNS_9InnerInfoE
3934:__ZN6prcoreL17RemapGenericFloatI17TexFormatRGBAHalf14TexFormatRHalfEEvPKNS_9InnerInfoE
3935:__ZN6prcoreL17RemapGenericFloatI17TexFormatRGBAHalf15TexFormatRGHalfEEvPKNS_9InnerInfoE
3936:__ZN11prophecysdk4half7convertEi
3937:__ZN6prcoreL26RemapGenericFloatToIntegerI15TexFormatRFloat17TexFormatARGB8888EEvPKNS_9InnerInfoE
3938:__ZN6prcoreL26RemapGenericFloatToIntegerI16TexFormatRGFloat17TexFormatARGB8888EEvPKNS_9InnerInfoE
3939:__ZN6prcoreL26RemapGenericFloatToIntegerI17TexFormatRGBFloat17TexFormatARGB8888EEvPKNS_9InnerInfoE
3940:__ZN6prcoreL26RemapGenericFloatToIntegerI18TexFormatRGBAFloat17TexFormatARGB8888EEvPKNS_9InnerInfoE
3941:__ZN6prcoreL26RemapGenericFloatToIntegerI18TexFormatARGBFloat17TexFormatARGB8888EEvPKNS_9InnerInfoE
3942:__ZN6prcoreL26RemapGenericFloatToIntegerI14TexFormatRHalf17TexFormatARGB8888EEvPKNS_9InnerInfoE
3943:__ZN6prcoreL26RemapGenericFloatToIntegerI15TexFormatRGHalf17TexFormatARGB8888EEvPKNS_9InnerInfoE
3944:__ZN6prcoreL26RemapGenericFloatToIntegerI17TexFormatRGBAHalf17TexFormatARGB8888EEvPKNS_9InnerInfoE
3945:__ZN6prcoreL27StretchGenericFloatBilinearI15TexFormatRFloatEEvPKNS_9InnerInfoE
3946:__ZN6prcoreL27StretchGenericFloatBilinearI16TexFormatRGFloatEEvPKNS_9InnerInfoE
3947:__ZN6prcoreL27StretchGenericFloatBilinearI17TexFormatRGBFloatEEvPKNS_9InnerInfoE
3948:__ZN6prcoreL27StretchGenericFloatBilinearI18TexFormatRGBAFloatEEvPKNS_9InnerInfoE
3949:__ZN6prcoreL27StretchGenericFloatBilinearI14TexFormatRHalfEEvPKNS_9InnerInfoE
3950:__ZN6prcoreL27StretchGenericFloatBilinearI15TexFormatRGHalfEEvPKNS_9InnerInfoE
3951:__ZN6prcoreL27StretchGenericFloatBilinearI17TexFormatRGBAHalfEEvPKNS_9InnerInfoE
3952:__ZN6prcoreL26RemapGenericIntegerToFloatI17TexFormatARGB888815TexFormatRFloatEEvPKNS_9InnerInfoE
3953:__ZN6prcoreL26RemapGenericIntegerToFloatI17TexFormatARGB888816TexFormatRGFloatEEvPKNS_9InnerInfoE
3954:__ZN6prcoreL26RemapGenericIntegerToFloatI17TexFormatARGB888817TexFormatRGBFloatEEvPKNS_9InnerInfoE
3955:__ZN6prcoreL26RemapGenericIntegerToFloatI17TexFormatARGB888818TexFormatRGBAFloatEEvPKNS_9InnerInfoE
3956:__ZN6prcoreL26RemapGenericIntegerToFloatI17TexFormatARGB888818TexFormatARGBFloatEEvPKNS_9InnerInfoE
3957:__ZN6prcoreL26RemapGenericIntegerToFloatI17TexFormatARGB888814TexFormatRHalfEEvPKNS_9InnerInfoE
3958:__ZN6prcoreL26RemapGenericIntegerToFloatI17TexFormatARGB888815TexFormatRGHalfEEvPKNS_9InnerInfoE
3959:__ZN6prcoreL26RemapGenericIntegerToFloatI17TexFormatARGB888817TexFormatRGBAHalfEEvPKNS_9InnerInfoE
3960:__ZN5ImageC2Eii13TextureFormat
3961:__Z19GetMaxBytesPerPixel13TextureFormat
3962:__ZN14ImageReferenceC2Eiii13TextureFormatPv
3963:__Z15GetSceneManagerv
3964:__ZN19RuntimeSceneManager24PrepareNewBootstrapSceneEv
3965:__Z21PlayerStartFirstSceneb
3966:__ZN11TimeManager9ResetTimeEb
3967:__ZN19RuntimeSceneManager14LoadSceneAsyncERKN4core12basic_stringIcNS0_20StringStorageDefaultIcEEEES6_S6_RK9UnityGUIDiNS_11LoadingModeEbRP10UnityScene
3968:__ZN19RuntimeSceneManager9LoadSceneERKN4core12basic_stringIcNS0_20StringStorageDefaultIcEEEES6_S6_RK9UnityGUIDiNS_11LoadingModeE
3969:__Z17GetPreloadManagerv
3970:__ZN14PreloadManager35WaitForAllAsyncOperationsToCompleteEv
3971:__ZN14PreloadManager26UpdatePreloadingSingleStepENS_21UpdatePreloadingFlagsEi
3972:__ZN14PreloadManager33PrepareProcessingPreloadOperationEv
3973:__Z17TimeToNanosecondsy
3974:__ZN14AsyncOperation15InvokeCoroutineEv
3975:__Z28AllocateNextLowestInstanceIDv
3976:__ZN10UnityScene14SetPathAndGUIDERKN4core12basic_stringIcNS0_20StringStorageDefaultIcEEEERK9UnityGUID
3977:__ZN19RuntimeSceneManager18LoadSceneAsyncIntoER10UnitySceneRKN4core12basic_stringIcNS2_20StringStorageDefaultIcEEEENS_11LoadingModeEb
3978:__ZN14PreloadManager10AddToQueueEP23PreloadManagerOperation
3979:__Z33CreateUnloadUnusedAssetsOperationb
3980:__ZN14AsyncOperationD2Ev
3981:__ZN27UnloadUnusedAssetsOperationD0Ev
3982:__ZN23PreloadManagerOperation6IsDoneEv
3983:__ZN23PreloadManagerOperation11GetProgressEv
3984:__ZN23PreloadManagerOperation14SetFinalTimingEffff
3985:__ZN27UnloadUnusedAssetsOperation7PerformEv
3986:__ZN27UnloadUnusedAssetsOperation19IntegrateMainThreadEv
3987:__Z26GarbageCollectSharedAssetsb
3988:__ZN15dense_hashtableINSt3__24pairIKiiEEi21InstanceIDHashFunctorN14dense_hash_mapIiiS4_NS0_8equal_toIiEE13stl_allocatorIS3_L18MemLabelIdentifier1ELi16EEE9SelectKeyES7_SA_E14squash_deletedEv
3989:__ZN15dense_hashtableINSt3__24pairIKiiEEi21InstanceIDHashFunctorN14dense_hash_mapIiiS4_NS0_8equal_toIiEE13stl_allocatorIS3_L18MemLabelIdentifier1ELi16EEE9SelectKeyES7_SA_E12maybe_shrinkEv
3990:__ZN15dense_hashtableINSt3__24pairIKiiEEi21InstanceIDHashFunctorN14dense_hash_mapIiiS4_NS0_8equal_toIiEE13stl_allocatorIS3_L18MemLabelIdentifier1ELi16EEE9SelectKeyES7_SA_E12resize_deltaEjj
3991:__Z20MarkInstanceIDAsRootiR21GarbageCollectorState
3992:__Z21GetAssetBundleManagerv
3993:__ZN18AssetBundleManager55CollectPreloadObjectsFromAssetBundleLoadAssetOperationsER13dynamic_arrayIiLj4EE
3994:__ZL30RegisterFilteredObjectCallbackPP12Il2CppObjectiPv
3995:__ZL14OnWorldStartedv
3996:__Z36scripting_liveness_calculation_begin17ScriptingClassPtriPFvPP12Il2CppObjectiPvES3_PFvvES7_
3997:__Z43scripting_liveness_calculation_from_staticsPv
3998:__Z16MarkDependenciesR27GarbageCollectorThreadStatej
3999:__Z34scripting_liveness_calculation_endPv
4000:__ZN13MonoBehaviour27WillDestroyScriptableObjectEv
4001:__Z25BatchDeleteObjectInternalPKii
4002:__ZN13MonoBehaviour26WillUnloadScriptableObjectEv
4003:__ZN19ScriptingInvocation28AdjustArgumentsToMatchMethodEv
4004:__ZN19ScriptingInvocation13InvokeCheckedEP21ScriptingExceptionPtr
4005:__ZN9Scripting32GetCachedPtrFromScriptingWrapperE18ScriptingObjectPtr
4006:__ZN19ScriptingInvocationC2E18ScriptingObjectPtr18ScriptingMethodPtr
4007:__ZNK10GameObject38MarkGameObjectAndComponentDependenciesER27GarbageCollectorThreadState
4008:__ZNK5Unity9Component38MarkGameObjectAndComponentDependenciesER27GarbageCollectorThreadState
4009:__ZNK8Material16MarkDependenciesER27GarbageCollectorThreadState
4010:__ZN9Scripting19ScriptingWrapperForEP6Object
4011:__Z40scripting_liveness_calculation_from_root18ScriptingObjectPtrPv
4012:__ZN9Scripting34ScriptingWrapperClassForNativeTypeEPKN5Unity4TypeE
4013:__Z33scripting_unity_engine_object_new17ScriptingClassPtrP6Object
4014:__Z16MarkObjectAsRootRK6ObjectR27GarbageCollectorThreadState
4015:__ZN9Scripting16GetInstanceIDForE18ScriptingObjectPtr
4016:__ZN27GenericSlowGarbageCollector18GenerateInstanceIDEi17TransferMetaFlags
4017:__ZN27GenericSlowGarbageCollector16ProcessReferenceEi
4018:__ZN17RemapPPtrTransferC2E24TransferInstructionFlagsb
4019:__ZNSt3__26vectorI17TransferMetaFlags13stl_allocatorIS1_L18MemLabelIdentifier1ELi16EEE21__push_back_slow_pathIKS1_EEvRT_
4020:__ZNSt3__26__treeIiNS_4lessIiEE13stl_allocatorIiL18MemLabelIdentifier1ELi16EEE7destroyEPNS_11__tree_nodeIiPvEE
4021:__ZN15dense_hashtableINSt3__24pairIKiiEEi21InstanceIDHashFunctorN14dense_hash_mapIiiS4_NS0_8equal_toIiEE13stl_allocatorIS3_L18MemLabelIdentifier1ELi16EEE9SelectKeyES7_SA_E9copy_fromERKSD_j
4022:__ZN17PersistentManager21UnloadNonDirtyStreamsEv
4023:__ZN18LoadSceneOperationC2Ev
4024:__ZN13LoadOperationC2Ev
4025:__ZN18LoadSceneOperationD2Ev
4026:__ZN18LoadSceneOperationD0Ev
4027:__ZN18LoadSceneOperation23GetAllowSceneActivationEv
4028:__ZN18LoadSceneOperation23SetAllowSceneActivationEb
4029:__ZN18LoadSceneOperation14SetFinalTimingEffff
4030:__ZN18LoadSceneOperation7PerformEv
4031:__ZN18LoadSceneOperation19IntegrateTimeSlicedEi
4032:__ZN18LoadSceneOperation19IntegrateMainThreadEv
4033:__ZN18LoadSceneOperation21MustCompleteNextFrameEv
4034:__ZN19RuntimeSceneManager24BeginIntegrateMainThreadEP10UnityScene
4035:__ZN18AwakeFromLoadQueue25RegisterObjectInstanceIDsEv
4036:__ZN18LoadSceneOperation21CompleteAwakeSequenceEv
4037:__ZN18LoadSceneOperation25PlayerLoadSceneFromThreadEv
4038:__ZN19RuntimeSceneManager22EndIntegrateMainThreadEP10UnitySceneNS_11LoadingModeE
4039:__Z33GetRuntimeInitializeOnLoadManagerv
4040:__ZN30RuntimeInitializeOnLoadManager23ExecuteInitializeOnLoadE25RuntimeInitializeLoadType
4041:__ZN18LoadSceneOperation13CleanupMemoryEv
4042:__ZN18AwakeFromLoadQueue5ClearEv
4043:__ZN30RuntimeInitializeOnLoadManager23ExecuteInitializeOnLoadENSt3__26vectorIi13stl_allocatorIiL18MemLabelIdentifier12ELi16EEEE
4044:__ZN19RuntimeSceneManager31CollectDontDestroyOnLoadObjectsERNSt3__23setIiNS0_4lessIiEENS0_9allocatorIiEEEE
4045:__Z15UnloadGameScenev
4046:__Z16CleanupAfterLoadv
4047:__ZNK10UnityScene13GetBuildIndexEv
4048:__ZN11TimeManager21DidFinishLoadingSceneEv
4049:__ZNSt3__26__treeI4PPtrI6ObjectENS_4lessIS3_EENS_9allocatorIS3_EEE7destroyEPNS_11__tree_nodeIS3_PvEE
4050:__ZN19RenderBufferManager14GarbageCollectEi
4051:__Z29ClearRepeatingLogMessageStatev
4052:__Z27scripting_gc_collect_unsafei
4053:__ZN13RenderManager18UpdateAllRenderersEv
4054:__Z21GetDelayedCallManagerv
4055:__ZN15QualitySettings13ApplySettingsEib
4056:__ZN7Texture13SetAnisoLimitENS_20AnisotropicFilteringE
4057:__ZN7Texture21SetMasterTextureLimitEib
4058:__Z21GetLODGroupManagerPtrv
4059:__ZL21SetAnisoLimitEnumImplN7Texture20AnisotropicFilteringEb
4060:__ZN15TextureSettings14SetAnisoLimitsEii
4061:__ZN21RendererUpdateManager18OncePerFrameUpdateER13RendererScene
4062:__ZN21RendererUpdateManager9UpdateAllER13RendererScene
4063:__Z31GetLightProbeProxyVolumeManagerv
4064:__ZN28LightProbeProxyVolumeManager6UpdateEv
4065:__ZN28LightProbeProxyVolumeContext5ResetEv
4066:__ZN28LightProbeProxyVolumeManager17UpdateBoundingBoxER21LightProbeProxyVolume
4067:__ZN28LightProbeProxyVolumeManager16UpdateResolutionER21LightProbeProxyVolume
4068:__ZN28LightProbeProxyVolumeManager22AllocateVolumeTexturesER21LightProbeProxyVolume
4069:__ZN28LightProbeProxyVolumeManager16BlendLightProbesER21LightProbeProxyVolume
4070:__ZN28LightProbeProxyVolumeManager25UpdateSHCoeffsTextureDataER21LightProbeProxyVolume
4071:__ZN21LightProbeProxyVolume13GetRenderDataER27LightProbeProxyVolumeSample
4072:__ZN21LightProbeProxyVolume21GetWorldToLocalMatrixEv
4073:__ZN27LightProbeProxyVolumeSample10InvalidateEv
4074:__ZN10Matrix4x4f12SetTranslateERK8Vector3f
4075:__ZNK9Transform21GetWorldToLocalMatrixEv
4076:__Z28CalculateGlobalMatrixInverse23TransformAccessReadOnly
4077:__ZN9Texture3D15UpdateImageDataEb
4078:__ZN9Texture3D13RebuildMipMapEv
4079:__ZN9Texture3D13UploadTextureEi
4080:__Z12CreateMipMapPhiii13TextureFormat
4081:__Z19GetLightmapSettingsv
4082:__Z17GetRenderSettingsv
4083:__ZN17LightProbeContext4InitERK16LightmapSettingsRK14RenderSettings
4084:__ZN26LightProbeProxyVolumeUtilsL20FindTetrahedronIndexER9TransformRi
4085:__ZNK9Transform21GetLocalToWorldMatrixEv
4086:__ZN10Matrix4x4fmLERKS_
4087:__ZL19BlendLightProbesJobP19BlendProbesJobInputj
4088:__Z38CalculateLightProbeSamplingCoordinatesRK17LightProbeContextRK8Vector3fiR29LightProbeSamplingCoordinates
4089:__Z33InterpolateLightProbeCoefficientsRK17LightProbeContextRK29LightProbeSamplingCoordinatesR20SphericalHarmonicsL2
4090:__Z33GetInterpolatedLightOcclusionMaskRK17LightProbeContextRK29LightProbeSamplingCoordinatesR8Vector4f
4091:__ZN20SphericalHarmonicsL27SetZeroEv
4092:__ZN20SphericalHarmonicsL211AddWeightedERKS_f
4093:__ZNK11LightProbes14LightProbeData33GetLightProbeInterpolationWeightsERK8Vector3fRiR8Vector4fRf
4094:__Z37GetBarycentricCoordinatesForOuterCellPPK8Vector3fRK13dynamic_arrayIS_Lj4EERS0_RK11TetrahedronR8Vector4fRf
4095:__ZN15LightProbeUtils32BarycentricCoordinates3DTriangleEPK8Vector3fRS1_
4096:__Z21CalculateGlobalMatrix23TransformAccessReadOnly
4097:__ZNK16LightmapSettings14GetLightProbesEv
4098:__ZNK16LightmapSettings19AreLightProbesBakedEv
4099:__ZNK16LightmapSettings23HasLightProbeTetrahedraEv
4100:__ZN9Texture3D11InitTextureEiii13TextureFormatb
4101:__Z20IsValidTextureFormat13TextureFormat
4102:__ZN9Texture3DC2E18MemLabelIdentifier18ObjectCreationMode
4103:__ZN9Texture3DD2Ev
4104:__ZN9Texture3DD0Ev
4105:__ZN9Texture3D17MainThreadCleanupEv
4106:__ZN9Texture3D13AwakeFromLoadE17AwakeFromLoadMode
4107:__ZN9Texture3D21AwakeFromLoadThreadedEv
4108:__ZN9Texture3D5ResetEv
4109:__ZNK9Texture3D26GetTypeInfoVirtualInternalEv
4110:__ZNK9Texture3D20GetRuntimeMemorySizeEv
4111:__ZN9Texture3D23VirtualRedirectTransferER19StreamedBinaryWriteILb0EE
4112:__ZN9Texture3D23VirtualRedirectTransferER18StreamedBinaryReadILb0EE
4113:__ZN9Texture3D23VirtualRedirectTransferER24GenerateTypeTreeTransfer
4114:__ZN9Texture3D23VirtualRedirectTransferER14SafeBinaryRead
4115:__ZNK9Texture3D26CanReuploadDataToGfxDeviceEv
4116:__ZNK9Texture3D20GetTextureLayerCountEv
4117:__ZNK9Texture3D12GetDimensionEv
4118:__ZN9Texture3D34UpdateFileTextureUploadInstructionEP28FileTextureUploadInstructionj
4119:__ZNK9Texture3D13GetIsReadableEv
4120:__ZN9Texture3D19UnloadFromGfxDeviceEb
4121:__ZN9Texture3D17UploadToGfxDeviceEv
4122:__ZNK9Texture3D16ExtractImageImplEP14ImageReferenceNS0_8BlitModeEbi
4123:__ZN14ImageReference9BlitImageERKS_NS_8BlitModeE
4124:__ZN14ImageReference9BlitImageERKS_NS_10ColorSpaceENS_8BlitModeE
4125:__Z21HasAlphaTextureFormat13TextureFormat
4126:__ZL21BlitScaleStbImageImplRK14ImageReferenceRS_NS_10ColorSpaceE
4127:__Z11IsHDRFormat13TextureFormat
4128:__ZL8StbAllocjPv
4129:__ZL7StbFreePvS_
4130:_stbir_resize
4131:__ZL23stbir__resize_arbitraryPvPKviiiS_iiiffffPfiij14stbir_datatype12stbir_filterS4_10stbir_edgeS5_16stbir_colorspace
4132:__ZL23stbir__calculate_memoryP11stbir__info
4133:__ZL24stbir__calculate_filtersP11stbir__infoP19stbir__contributorsPf12stbir_filterffii
4134:__ZL22stbir__decode_scanlineP11stbir__infoi
4135:__ZL35stbir__resample_horizontal_upsampleP11stbir__infoiPf
4136:__ZL37stbir__resample_horizontal_downsampleP11stbir__infoiPf
4137:__ZL22stbir__encode_scanlineP11stbir__infoiPvPfiii
4138:__ZL19stbir__support_zerof
4139:__ZL23stbir__filter_trapezoidff
4140:__ZL24stbir__support_trapezoidf
4141:__ZL22stbir__filter_triangleff
4142:__ZL18stbir__support_onef
4143:__ZL19stbir__filter_cubicff
4144:__ZL18stbir__support_twof
4145:__ZL24stbir__filter_catmullromff
4146:__ZL22stbir__filter_mitchellff
4147:__ZL31stbir__filter_mitchell_modifiedff
4148:__ZN17PersistentManager14ReloadFromDiskER6Object
4149:__ZN17PersistentManager17IsObjectAvailableEi
4150:__ZNK14SerializedFile7GetTypeEx
4151:__ZN9Texture3D8TransferI14SafeBinaryReadEEvRT_
4152:__ZN14SafeBinaryRead16TransferTypelessEPjPKc17TransferMetaFlags
4153:__ZN14SafeBinaryRead20TransferTypelessDataEjPvi
4154:__ZN14SafeBinaryRead21TransferResourceImageE19ActiveResourceImagePKcR13StreamingInfoPvj
4155:__ZN13StreamingInfo8TransferI14SafeBinaryReadEEvRT_
4156:__ZN12CachedReader4ReadEPvj
4157:__ZN9Texture3D8TransferI24GenerateTypeTreeTransferEEvRT_
4158:__ZN24GenerateTypeTreeTransfer16TransferTypelessEPjPKc17TransferMetaFlags
4159:__ZN24GenerateTypeTreeTransfer20TransferTypelessDataEjPvi
4160:__ZN24GenerateTypeTreeTransfer21TransferResourceImageE19ActiveResourceImagePKcR13StreamingInfoPvj
4161:__ZN29SerializeTraitsForStringTypesIN4core12basic_stringIcNS0_20StringStorageDefaultIcEEEEE8TransferI24GenerateTypeTreeTransferEEvRS4_RT_
4162:__ZN9Texture3D8TransferI18StreamedBinaryReadILb0EEEEvRT_
4163:__ZN18StreamedBinaryReadILb0EE16TransferTypelessEPjPKc17TransferMetaFlags
4164:__ZN18StreamedBinaryReadILb0EE20TransferTypelessDataEjPvi
4165:__ZN18StreamedBinaryReadILb0EE21TransferResourceImageE19ActiveResourceImagePKcR13StreamingInfoPvj
4166:__ZN12CachedReader4SkipEj
4167:__ZN9Texture3D8TransferI19StreamedBinaryWriteILb0EEEEvRT_
4168:__ZN19StreamedBinaryWriteILb0EE16TransferTypelessEPjPKc17TransferMetaFlags
4169:__ZN19StreamedBinaryWriteILb0EE20TransferTypelessDataEjPvi
4170:__ZN19StreamedBinaryWriteILb0EE21TransferResourceImageE19ActiveResourceImagePKcR13StreamingInfoPvj
4171:__ZN12CachedWriter5WriteEPKvj
4172:__ZN7Texture34CreateFileTextureUploadInstructionE18TextureUploadFlagsj
4173:__ZN18AsyncUploadManager17CreateInstructionEv
4174:__ZN18AsyncUploadManager22UploadStreamingTextureEP28FileTextureUploadInstruction
4175:__ZNK9Transform13GetLocalScaleEv
4176:__ZN21LightProbeProxyVolume27ValidateBoundingBoxSettingsEv
4177:__ZN26LightProbeProxyVolumeUtilsL27ComputeLocalAABBOnHierarchyERK10Matrix4x4fR9TransformR10MinMaxAABB
4178:__ZN26LightProbeProxyVolumeUtilsL28ComputeGlobalAABBOnHierarchyER9TransformR10MinMaxAABB
4179:__Z17TransformAABBSlowRK4AABBRK10Matrix4x4fRS_
4180:__ZN8Renderer29GetTransformInfoAndUpdateSlowEv
4181:__Z16GetRendererScenev
4182:__ZN21RendererUpdateManager20UpdateSingleRendererER8RendererR13RendererScene
4183:__ZN9Transform18GetTransformAccessEv
4184:__ZN23TransformChangeDispatch19GetSystemInterestedE23TransformAccessReadOnly27TransformChangeSystemHandle
4185:__ZNK4AABB17CalculateVerticesEP8Vector3f
4186:__ZN21LightProbeProxyVolume18HasHardwareSupportEv
4187:__ZN23TransformChangeDispatch40GetAndClearChangedAsBatchedJobs_InternalE27TransformChangeSystemHandlePFvPvjPK23TransformAccessReadOnlyjES1_PFvS1_EP19ProfilerInformation
4188:__ZN13RendererScene23UpdatePreviousFrameDataEii
4189:__Z40ConfigureBlockRangesWithMinIndicesPerJobP10BlockRangeii
4190:__ZN14BatchAllocator16AllocateInternalEPPvijjj
4191:__ZN14BatchAllocator6CommitE18MemLabelIdentifier
4192:__ZN18JobBatchDispatcher8KickJobsEv
4193:__ZN18BlockRangeInternal16PopLastNodeIndexEP10BlockRangeji
4194:__ZN18BlockRangeInternal25GetSizeFromLastBlockRangeEP10BlockRangej
4195:__ZL8BatchJobP18BatchJobDataSingle
4196:__ZN18JobBatchDispatcher26ScheduleJobDependsInternalER8JobFencePFvPvES2_RKS0_
4197:__Z9RecordJobPFvPvES_R21SingleThreadedJobInfo
4198:__Z23ExecuteJobInfoImmediateRK21SingleThreadedJobInfo
4199:__ZN18JobBatchDispatcherD2Ev
4200:__ZN18JobBatchDispatcherC2E11JobPriorityi
4201:__ZN14BatchAllocatorC2Ev
4202:__Z23CollectSceneGameObjectsR13dynamic_arrayIiLj4EE
4203:__ZN19RuntimeSceneManager43UnloadAllScenesWithoutDestroyingGameObjectsEv
4204:__Z12CollectPPtrsRK6ObjectRNSt3__23setIiNS2_4lessIiEENS2_9allocatorIiEEEE
4205:__ZN18IDCollectorFunctor18GenerateInstanceIDEi17TransferMetaFlags
4206:__ZN10UnityScene24ExtractLevelGameManagersER18AwakeFromLoadQueue
4207:__ZN18AwakeFromLoadQueue30PersistentManagerAwakeFromLoadEv
4208:__Z17GetManagerContextv
4209:__Z17dynamic_pptr_castIP16LevelGameManager6ObjectET_RK4PPtrIT0_E
4210:__ZN27TimeSliceAwakeFromLoadQueue19IntegrateTimeSlicedEi
4211:__ZN19RingbufferTemplates23PeekValueFromRingBufferIN27TimeSliceAwakeFromLoadQueue13AsyncInstanceE17GrowingRingbufferEEbRT0_RPKT_
4212:__ZN19RingbufferTemplates23PeekValueFromRingBufferIi17GrowingRingbufferEEbRT0_RPKT_
4213:__ZN17PersistentManager30GetInstanceIDFromPathAndFileIDERKN4core12basic_stringIcNS0_20StringStorageDefaultIcEEEEx
4214:__ZN18AssetBundleManager30CollectPreloadDataDependenciesEPK11AssetBundleRKNSt3__26vectorI14ConstantStringNS3_9allocatorIS5_EEEER13dynamic_arrayIiLj4EEb
4215:__ZN17PersistentManager27GetLoadErrorMessageFromPathERKN4core12basic_stringIcNS0_20StringStorageDefaultIcEEEE
4216:__ZN17PersistentManager29GetAllFileIDsAndTypesFromPathERKN4core12basic_stringIcNS0_20StringStorageDefaultIcEEEER13dynamic_arrayIxLj8EERS7_IPKN5Unity4TypeELj4EE
4217:__Z48AddToTimeSliceAwakeFromLoadQueueProgressCallbackR6ObjectPv
4218:__ZN17PersistentManager19LoadObjectsThreadedEPiiR12LoadProgress
4219:__ZN17PersistentManager26LoadFileCompletelyThreadedERKN4core12basic_stringIcNS0_20StringStorageDefaultIcEEEEPxPiibR12LoadProgress
4220:__ZN17PersistentManager34ExtractTimeSliceAwakeFromLoadQueueER27TimeSliceAwakeFromLoadQueue
4221:__ZN17PersistentManager25GetSerializedFileInternalERKN4core12basic_stringIcNS0_20StringStorageDefaultIcEEEE
4222:__ZN17PersistentManager25ExtractAwakeFromLoadQueueEPKijR18AwakeFromLoadQueue
4223:__ZN17PersistentManager31HasMemoryOrCachedSerializedFileERKN4core12basic_stringIcNS0_20StringStorageDefaultIcEEEE
4224:__ZN17PersistentManager12UnloadStreamERKN4core12basic_stringIcNS0_20StringStorageDefaultIcEEEEb
4225:__ZN19RingbufferTemplates22WriteValueToRingBufferIi17GrowingRingbufferEEbRT0_RKT_
4226:__ZN17PersistentManager13GetAllFileIDsERKN4core12basic_stringIcNS0_20StringStorageDefaultIcEEEER13dynamic_arrayIxLj8EE
4227:__ZN17PersistentManager22CheckInstanceIDsLoadedEPii
4228:__ZNSt3__26__sortIRNS_4lessIiEEPiEEvT0_S5_T_
4229:__ZN6Object22CheckInstanceIDsLoadedEPii
4230:__ZNSt3__27__sort5IRNS_4lessIiEEPiEEjT0_S5_S5_S5_S5_T_
4231:__ZNSt3__227__insertion_sort_incompleteIRNS_4lessIiEEPiEEbT0_S5_T_
4232:__ZNK14SerializedFile13GetAllFileIDsER13dynamic_arrayIxLj8EE
4233:__ZN18AsyncUploadManager13GetAsyncFenceEP6Object
4234:__ZN19RingbufferTemplates22WriteValueToRingBufferIN27TimeSliceAwakeFromLoadQueue13AsyncInstanceE17GrowingRingbufferEEbRT0_RKT_
4235:__ZN18AssetBundleManager19PopulatePreloadDataERK13dynamic_arrayIiLj4EERS0_INS_11PreloadDataELj8EE
4236:__ZN18AssetBundleManager29CollectPreloadDataRecursivelyEPK11AssetBundleRKNSt3__26vectorI14ConstantStringNS3_9allocatorIS5_EEEERK13dynamic_arrayIiLj4EER19InstanceIDHashTableIPKNS0_9AssetInfoENS3_4pairIKiSI_EEEb
4237:__ZNSt3__26__sortIRN18AssetBundleManager27SortPreloadDataByIdentifierEPNS1_11PreloadDataEEEvT0_S6_T_
4238:__ZNSt3__27__sort3IRN18AssetBundleManager27SortPreloadDataByIdentifierEPNS1_11PreloadDataEEEjT0_S6_S6_T_
4239:__ZNSt3__27__sort4IRN18AssetBundleManager27SortPreloadDataByIdentifierEPNS1_11PreloadDataEEEjT0_S6_S6_S6_T_
4240:__ZNSt3__27__sort5IRN18AssetBundleManager27SortPreloadDataByIdentifierEPNS1_11PreloadDataEEEjT0_S6_S6_S6_S6_T_
4241:__ZNSt3__218__insertion_sort_3IRN18AssetBundleManager27SortPreloadDataByIdentifierEPNS1_11PreloadDataEEEvT0_S6_T_
4242:__ZNSt3__227__insertion_sort_incompleteIRN18AssetBundleManager27SortPreloadDataByIdentifierEPNS1_11PreloadDataEEEbT0_S6_T_
4243:__ZN18AssetBundleManager18CollectPreloadDataEiPK11AssetBundleRKNSt3__26vectorI14ConstantStringNS3_9allocatorIS5_EEEER13dynamic_arrayIiLj4EEb
4244:__ZNK11AssetBundle14GetPreloadDataEiR13dynamic_arrayIiLj4EE
4245:__ZN17PersistentManager32GetSerializedTypesAndIdentifiersERK13dynamic_arrayIiLj4EERS0_IPKN5Unity4TypeELj4EERS0_I26SerializedObjectIdentifierLj8EE
4246:__ZN17PersistentManager38GetSerializedTypeAndIdentifierInternalEiRPKN5Unity4TypeER26SerializedObjectIdentifier
4247:__ZNK14SerializedFile15GetTypeIfExistsEx
4248:__ZN13LoadOperationD2Ev
4249:__ZN13LoadOperationD0Ev
4250:__ZN13LoadOperation7PerformEv
4251:__ZN13LoadOperation19IntegrateTimeSlicedEi
4252:__ZN13LoadOperation19IntegrateMainThreadEv
4253:__ZN10UnitySceneD2Ev
4254:__ZN10UnitySceneD0Ev
4255:__ZNK10UnityScene7ReleaseEv
4256:__ZN19RuntimeSceneManager11CreateSceneEv
4257:__ZNSt3__26vectorI17ScriptingClassPtrNS_9allocatorIS1_EEE8__appendEjRKS1_
4258:__ZL30FindScriptingClassForClassNamePKc
4259:__ZN13sorted_vectorINSt3__24pairI17ScriptingClassPtrPKN5Unity4TypeEEEN10vector_mapIS2_S6_NS0_4lessIS2_EENS0_9allocatorIS7_EEE13value_compareESC_E21sort_clear_duplicatesEv
4260:__ZL40FindScriptingClassForNativeTypeRecursivePKN5Unity4TypeE17ScriptingClassPtr
4261:__ZNSt3__213__stable_sortIRN10vector_mapI17ScriptingClassPtrPKN5Unity4TypeENS_4lessIS2_EENS_9allocatorINS_4pairIS2_S6_EEEEE13value_compareENS_11__wrap_iterIPSB_EEEEvT0_SJ_T_NS_15iterator_traitsISJ_E15difference_typeEPNSM_10value_typeEi
4262:__ZNSt3__218__stable_sort_moveIRN10vector_mapI17ScriptingClassPtrPKN5Unity4TypeENS_4lessIS2_EENS_9allocatorINS_4pairIS2_S6_EEEEE13value_compareENS_11__wrap_iterIPSB_EEEEvT0_SJ_T_NS_15iterator_traitsISJ_E15difference_typeEPNSM_10value_typeE
4263:__ZNSt3__215__inplace_mergeIRN10vector_mapI17ScriptingClassPtrPKN5Unity4TypeENS_4lessIS2_EENS_9allocatorINS_4pairIS2_S6_EEEEE13value_compareENS_11__wrap_iterIPSB_EEEEvT0_SJ_SJ_T_NS_15iterator_traitsISJ_E15difference_typeESN_PNSM_10value_typeEi
4264:__ZNSt3__224__buffered_inplace_mergeIRN10vector_mapI17ScriptingClassPtrPKN5Unity4TypeENS_4lessIS2_EENS_9allocatorINS_4pairIS2_S6_EEEEE13value_compareENS_11__wrap_iterIPSB_EEEEvT0_SJ_SJ_T_NS_15iterator_traitsISJ_E15difference_typeESN_PNSM_10value_typeE
4265:__Z24InitializeEngineGraphicsb
4266:__ZNK12GraphicsCaps17CheckGPUSupportedEv
4267:__Z24PlayerLoadGlobalManagersPKcS0_j
4268:__ZN9ShaderLab28UpdateGlobalShaderPropertiesEf
4269:__ZNK11PreloadData18GetInstanceIDArrayER13dynamic_arrayIiLj4EE
4270:__ZN17PersistentManager18LoadFileCompletelyERKN4core12basic_stringIcNS0_20StringStorageDefaultIcEEEE
4271:__Z19InitializeGfxDevice20GfxCreateDeviceFlags
4272:__ZN9JobSystem15CreateJobSystemEv
4273:__ZN9ShaderLab13InitShaderLabEv
4274:__Z27ShaderPassContextInitializev
4275:__ZN11TypeManager23CallPostInitializeTypesEv
4276:__ZN14MessageHandler16ResolveCallbacksEv
4277:__ZN22BuiltinResourceManager22InitializeAllResourcesEv
4278:__Z33InitializeMeshVertexFormatManagerv
4279:__ZN6Shader18LoadDefaultShadersEv
4280:__Z22GetGraphicsSettingsPtrv
4281:__ZN16GraphicsSettings22WarmupPreloadedShadersEv
4282:__ZZ24InitializeEngineGraphicsbEN35exitPlayModeAfterOnEnableInEditMode7ForwardEv
4283:__ZN13RendererScene26ClearIntermediateRenderersEv
4284:__ZN23ShaderVariantCollection13WarmupShadersEv
4285:__ZN9GfxDevice13GetDynamicVBOEv
4286:__ZL20ShaderWarmupFuncImplP6ShaderiPN9ShaderLab4PassERK16ShaderKeywordSetP10DynamicVBOPvR17ShaderPassContext
4287:__ZN23ShaderVariantCollection17WarmupShadersImplEPFvP6ShaderiPN9ShaderLab4PassERK16ShaderKeywordSetP10DynamicVBOPvR17ShaderPassContextES9_SA_
4288:__ZN17ShaderPassContext8CopyFromERKS_
4289:__ZN6Shader25GetGlobalMaximumShaderLODEv
4290:__ZN16MeshVertexFormat20GetVertexDeclarationE17ShaderChannelMaskPKS_b
4291:__ZN16MeshVertexFormat23CreateVertexDeclarationE17ShaderChannelMaskPKS_b
4292:__ZNSt3__26vectorINS_4pairIyP17VertexDeclarationEENS_9allocatorIS4_EEE6insertENS_11__wrap_iterIPKS4_EERS9_
4293:__ZN22BuiltinResourceManager19InitializeResourcesEv
4294:__ZNSt3__26__sortIRNS_4lessIN22BuiltinResourceManager8ResourceEEEPS3_EEvT0_S7_T_
4295:__ZNSt3__27__sort3IRNS_4lessIN22BuiltinResourceManager8ResourceEEEPS3_EEjT0_S7_S7_T_
4296:__ZNSt3__27__sort4IRNS_4lessIN22BuiltinResourceManager8ResourceEEEPS3_EEjT0_S7_S7_S7_T_
4297:__ZNSt3__27__sort5IRNS_4lessIN22BuiltinResourceManager8ResourceEEEPS3_EEjT0_S7_S7_S7_S7_T_
4298:__ZNSt3__218__insertion_sort_3IRNS_4lessIN22BuiltinResourceManager8ResourceEEEPS3_EEvT0_S7_T_
4299:__ZNSt3__227__insertion_sort_incompleteIRNS_4lessIN22BuiltinResourceManager8ResourceEEEPS3_EEbT0_S7_T_
4300:__ZN16MessageForwarder15AddBaseMessagesERKS_
4301:__ZN14dynamic_bitset6resizeEjb
4302:__Z14CreateJobQueuePKcS0_i
4303:__Z7HasARGVRKN4core12basic_stringIcNS_20StringStorageDefaultIcEEEE
4304:__Z20GetFirstValueForARGVRKN4core12basic_stringIcNS_20StringStorageDefaultIcEEEE
4305:__Z19CreateGLESGfxDevice17GfxDeviceRenderer
4306:__ZN12GraphicsCaps24SharedCapsPostInitializeEv
4307:__ZN12TextureIdMap10InitializeEv
4308:__ZN16RenderTextureMap10InitializeEv
4309:__ZN13RenderTexture9SetActiveEPS_i11CubemapFaceiNS_14SetActiveFlagsE
4310:__ZZ19InitializeGfxDevice20GfxCreateDeviceFlagsEN38PreLateUpdateEndGraphicsJobsLatestruct7ForwardEv
4311:__ZN10DynamicVBO9NextFrameEv
4312:__ZN15dense_hashtableINSt3__24pairIKPK17RenderSurfaceBaseP13RenderTextureEES4_19PointerHashFunctionIS4_EN14dense_hash_mapIS4_S7_SA_NS0_8equal_toIS4_EE13stl_allocatorIS8_L18MemLabelIdentifier65ELi16EEE9SelectKeyESD_SG_E14squash_deletedEv
4313:__ZN15dense_hashtableINSt3__24pairIK9TextureIDiEES2_N12TextureIdMap20TextureIDHashFunctorEN14dense_hash_mapIS2_iS6_NS0_8equal_toIS2_EE13stl_allocatorIS4_L18MemLabelIdentifier65ELi16EEE9SelectKeyES9_SC_E14squash_deletedEv
4314:__ZN15dense_hashtableINSt3__24pairIK9TextureIDiEES2_N12TextureIdMap20TextureIDHashFunctorEN14dense_hash_mapIS2_iS6_NS0_8equal_toIS2_EE13stl_allocatorIS4_L18MemLabelIdentifier65ELi16EEE9SelectKeyES9_SC_E9copy_fromERKSF_j
4315:__ZN10systeminfo19GetPhysicalMemoryMBEv
4316:__ZN13GfxDeviceGLESC2E18MemLabelIdentifier
4317:__ZN9GfxDeviceC2E18MemLabelIdentifier
4318:__ZN22VertexDeclarationCacheD2Ev
4319:__ZN26VertexDeclarationCacheGLESD0Ev
4320:__ZN22VertexDeclarationCache13GetVertexDeclERK18VertexChannelsInfo
4321:__ZN26VertexDeclarationCacheGLES23CreateVertexDeclarationERK18VertexChannelsInfo
4322:__ZN26VertexDeclarationCacheGLES24DestroyVertexDeclarationEP17VertexDeclaration
4323:__ZNSt3__26__treeINS_12__value_typeI18VertexChannelsInfoP17VertexDeclarationEENS_19__map_value_compareIS2_S5_NS_4lessIS2_EELb1EEE13stl_allocatorIS5_L18MemLabelIdentifier14ELi16EEE7destroyEPNS_11__tree_nodeIS5_PvEE
4324:__ZN19ConstantBuffersGLESC2Ev
4325:__ZN7ApiGLESC2Ev
4326:__ZN7ApiGLES24InitGetTextureTargetFuncE16TextureDimensionj
4327:__ZN7ApiGLES23GetTextureTargetDefaultE16TextureDimensionj
4328:__ZNK13TranslateGLES21GetTextureTargetCountE16TextureDimension
4329:__ZNK13TranslateGLES16GetTextureTargetE16TextureDimensionj
4330:__ZN7ApiGLES13CreateTextureEjjN2gl9TexFormatEiiiii
4331:__ZNK13TranslateGLES25GetTextureTargetDimensionEj
4332:__ZNK13TranslateGLES23GetDefaultTextureTargetE16TextureDimension
4333:__ZN7ApiGLES13DeleteTextureERj
4334:__ZN7ApiGLES36GetTextureTargetViaSuccessfulBindingE16TextureDimensionj
4335:__ZN7ApiGLES36GetTextureTargetViaFrameBufferStatusE16TextureDimensionj
4336:__ZNK13TranslateGLES17FramebufferTargetEN2gl17FramebufferTargetE
4337:__ZN7ApiGLES30GetTextureTargetViaDirectQueryE16TextureDimensionj
4338:__ZNK13TranslateGLES13GetFormatDescEN2gl9TexFormatE
4339:__ZN9DebugGLESC2ERK7ApiGLES
4340:__ZN13GfxDeviceGLESD2Ev
4341:__ZN13GfxDeviceGLESD0Ev
4342:__ZN13GfxDeviceGLES15InvalidateStateEv
4343:__ZN13GfxDeviceGLES18BeforePluginRenderEv
4344:__ZN13GfxDeviceGLES17AfterPluginRenderEv
4345:__ZNK13GfxDeviceGLES14GetDeviceLevelEv
4346:__ZN9GfxDevice13SetActiveTierE12GraphicsTier
4347:__ZN9GfxDevice20SetMaxBufferedFramesEi
4348:__ZN13GfxDeviceGLES5ClearE13GfxClearFlagsRK10ColorRGBAffj
4349:__ZN13GfxDeviceGLES19RenderTargetBarrierEv
4350:__ZN9GfxDevice18GetNumGraphicsJobsEj
4351:__ZN9GfxDevice29GetMinimumNodesPerGraphicsJobEv
4352:__ZN13GfxDeviceGLES16CreateBlendStateERK13GfxBlendState
4353:__ZN13GfxDeviceGLES16CreateDepthStateERK13GfxDepthState
4354:__ZN13GfxDeviceGLES18CreateStencilStateERK15GfxStencilState
4355:__ZN13GfxDeviceGLES17CreateRasterStateERK14GfxRasterState
4356:__ZN13GfxDeviceGLES13SetBlendStateEPK16DeviceBlendState
4357:__ZN13GfxDeviceGLES14SetRasterStateEPK17DeviceRasterState
4358:__ZN13GfxDeviceGLES13SetDepthStateEPK16DeviceDepthState
4359:__ZN13GfxDeviceGLES15SetStencilStateEPK18DeviceStencilStatei
4360:__ZN9GfxDevice34SetStencilRefWhenStencilWasSkippedEi
4361:__ZN13GfxDeviceGLES12SetSRGBWriteEb
4362:__ZN13GfxDeviceGLES12GetSRGBWriteEv
4363:__ZN13GfxDeviceGLES19SetUserBackfaceModeEb
4364:__ZN13GfxDeviceGLES16SetForceCullModeE8CullMode
4365:__ZN9GfxDevice21SetWorldMatrixAndTypeERK10Matrix4x4f13TransformType
4366:__ZN13GfxDeviceGLES14SetWorldMatrixERK10Matrix4x4f
4367:__ZN13GfxDeviceGLES13SetViewMatrixERK10Matrix4x4f
4368:__ZN13GfxDeviceGLES19SetProjectionMatrixERK10Matrix4x4f
4369:__ZN13GfxDeviceGLES26UpdateViewProjectionMatrixEv
4370:__ZNK9GfxDevice18GetWorldViewMatrixEv
4371:__ZNK9GfxDevice14GetWorldMatrixEv
4372:__ZNK9GfxDevice13GetViewMatrixEv
4373:__ZNK9GfxDevice19GetProjectionMatrixEv
4374:__ZNK9GfxDevice25GetDeviceProjectionMatrixEv
4375:__ZNK9GfxDevice31CalculateDeviceProjectionMatrixER10Matrix4x4fbb
4376:__ZN13GfxDeviceGLES15SetBackfaceModeEb
4377:__ZN13GfxDeviceGLES11SetViewportERK5RectTIiE
4378:__ZNK13GfxDeviceGLES11GetViewportEv
4379:__ZN13GfxDeviceGLES14SetScissorRectERK5RectTIiE
4380:__ZN13GfxDeviceGLES14DisableScissorEv
4381:__ZNK13GfxDeviceGLES16IsScissorEnabledEv
4382:__ZNK13GfxDeviceGLES14GetScissorRectEv
4383:__ZN13GfxDeviceGLES11SetTexturesE10ShaderTypeiPK15GfxTextureParam
4384:__ZN13GfxDeviceGLES16SetTextureParamsE9TextureID16TextureDimension17TextureFilterMode15TextureWrapModeifb17TextureColorSpace18ShadowSamplingMode
4385:__ZN13GfxDeviceGLES25SetShaderPropertiesCopiedERK19ShaderPropertySheet
4386:__ZN9GfxDevice25SetShaderPropertiesSharedERK19ShaderPropertySheet
4387:__ZN9GfxDevice16CreateGpuProgramE20ShaderGpuProgramTypeRK13dynamic_arrayIhLj1EER22CreateGpuProgramOutput
4388:__ZN19GfxThreadableDevice20SetShadersMainThreadERKN9ShaderLab11SubProgramsEPK19ShaderPropertySheetS6_
4389:__ZNK13GfxDeviceGLES14IsShaderActiveE10ShaderType
4390:__ZN13GfxDeviceGLES17DestroySubProgramEPN9ShaderLab10SubProgramE
4391:__ZN13GfxDeviceGLES17DestroyGpuProgramEPK10GpuProgram
4392:__ZN13GfxDeviceGLES20UpdateConstantBufferEijPKv
4393:__ZN13GfxDeviceGLES12CreateBufferERK13GfxBufferDescPKv20GfxUpdateBufferFlags
4394:__ZN13GfxDeviceGLES12UpdateBufferEP9GfxBufferPKv20GfxUpdateBufferFlags
4395:__ZN13GfxDeviceGLES16BeginBufferWriteEP9GfxBufferjj
4396:__ZN13GfxDeviceGLES14EndBufferWriteEP9GfxBufferj
4397:__ZN13GfxDeviceGLES12DeleteBufferEP9GfxBuffer
4398:__ZN13GfxDeviceGLES20GetVertexDeclarationERK18VertexChannelsInfo
4399:__ZN13GfxDeviceGLES11DrawBuffersEP9GfxBufferPK18VertexStreamSourceiPK16DrawBuffersRangeiP17VertexDeclaration17ShaderChannelMask
4400:__ZN13GfxDeviceGLES19DrawBuffersIndirectEP9GfxBufferPK18VertexStreamSourceiP17VertexDeclaration17ShaderChannelMask16GfxPrimitiveType15ComputeBufferIDj
4401:__ZN9GfxDevice28ScheduleGeometryJobsInternalEPFvP15GeometryJobDataEPK22GeometryJobInstructionj
4402:__ZN9GfxDevice38ScheduleDynamicVBOGeometryJobsInternalEPFvP25DynamicVBOGeometryJobDatajEPFvS1_EPFvRK8JobFenceES1_j16GfxPrimitiveTypeP21DynamicVBOChunkHandle
4403:__ZN9GfxDevice19PutGeometryJobFenceE13UniqueSmallID
4404:__ZN9GfxDevice19EndGeometryJobFrameEv
4405:__ZN9GfxDevice16EndAsyncJobFrameEv
4406:__ZN9GfxDevice20BeginDynamicBatchingE17ShaderChannelMaskS0_jP17VertexDeclarationjj16GfxPrimitiveType
4407:__ZN9GfxDevice16DynamicBatchMeshERK10Matrix4x4fRK16VertexBufferDatajjPKtj25GfxTransformVerticesFlagsj
4408:__ZN9GfxDevice18EndDynamicBatchingE13TransformType
4409:__ZN9GfxDevice14AddSetPassStatEv
4410:__ZN9GfxDevice21ReleaseSharedMeshDataEP14SharedMeshData
4411:__ZN9GfxDevice24ReleaseSharedTextureDataEP17SharedTextureData
4412:__ZN9GfxDevice25ReleaseAsyncCommandHeaderEPN21GfxDeviceAsyncCommand3ArgE
4413:__ZN13GfxDeviceGLES23CreateGPUSkinPoseBufferEv
4414:__ZN13GfxDeviceGLES23DeleteGPUSkinPoseBufferEP17GPUSkinPoseBuffer
4415:__ZN13GfxDeviceGLES20UpdateSkinPoseBufferEP17GPUSkinPoseBufferP12SkinMeshInfo
4416:__ZN13GfxDeviceGLES9SkinOnGPUERK18VertexStreamSourceP9GfxBufferP17GPUSkinPoseBufferS4_ii17ShaderChannelMaskb
4417:__ZN9GfxDevice24CreateRenderColorSurfaceE9TextureIDiiii16TextureDimension19RenderTextureFormat18SurfaceCreateFlags
4418:__ZN9GfxDevice24CreateRenderDepthSurfaceE9TextureIDiiii16TextureDimension17DepthBufferFormat18SurfaceCreateFlags
4419:__ZN9GfxDevice20DestroyRenderSurfaceER12ObjectHandleI17RenderSurface_TagP17RenderSurfaceBaseE
4420:__ZN13GfxDeviceGLES19ResolveColorSurfaceE12ObjectHandleI17RenderSurface_TagP17RenderSurfaceBaseES4_
4421:__ZN13GfxDeviceGLES23ResolveDepthIntoTextureE12ObjectHandleI17RenderSurface_TagP17RenderSurfaceBaseES4_
4422:__ZN13GfxDeviceGLES15DiscardContentsER12ObjectHandleI17RenderSurface_TagP17RenderSurfaceBaseE
4423:__ZNK13GfxDeviceGLES27GetActiveRenderColorSurfaceEi
4424:__ZNK13GfxDeviceGLES27GetActiveRenderDepthSurfaceEv
4425:__ZNK13GfxDeviceGLES26GetActiveRenderTargetCountEv
4426:__ZNK9GfxDevice22GetActiveRenderTargetsERA8_12ObjectHandleI17RenderSurface_TagP17RenderSurfaceBaseERS4_
4427:__ZNK9GfxDevice27GetActiveRenderSurfaceWidthEv
4428:__ZNK9GfxDevice28GetActiveRenderSurfaceHeightEv
4429:__ZN9GfxDevice25GetBackBufferColorSurfaceEv
4430:__ZN9GfxDevice25GetBackBufferDepthSurfaceEv
4431:__ZN13GfxDeviceGLES30SetBackBufferColorDepthSurfaceEP17RenderSurfaceBaseS1_
4432:__ZN13GfxDeviceGLES29RenderSurfaceStructMemorySizeEb
4433:__ZN9GfxDevice18AllocRenderSurfaceEb
4434:__ZN9GfxDevice20DeallocRenderSurfaceEP17RenderSurfaceBase
4435:__ZN13GfxDeviceGLES32CreateColorRenderSurfacePlatformEP17RenderSurfaceBase19RenderTextureFormat
4436:__ZN13GfxDeviceGLES32CreateDepthRenderSurfacePlatformEP17RenderSurfaceBase17DepthBufferFormat
4437:__ZN13GfxDeviceGLES28DestroyRenderSurfacePlatformEP17RenderSurfaceBase
4438:__ZN9GfxDevice21CopyRenderSurfaceDescEP17RenderSurfaceBasePKS0_
4439:__ZN13GfxDeviceGLES26AliasRenderSurfacePlatformEP17RenderSurfaceBase9TextureID
4440:__ZN9GfxDevice25IsRenderTargetConfigValidEjj19RenderTextureFormat17DepthBufferFormat
4441:__ZN9GfxDevice15CreateTextureIDEv
4442:__ZN13GfxDeviceGLES21RegisterNativeTextureE9TextureIDi16TextureDimension
4443:__ZN13GfxDeviceGLES23UnregisterNativeTextureE9TextureID
4444:__ZN13GfxDeviceGLES15UploadTexture2DE9TextureID16TextureDimensionPKhiii13TextureFormati18TextureUploadFlags16TextureUsageMode17TextureColorSpace
4445:__ZN13GfxDeviceGLES22UploadTextureSubData2DE9TextureIDPKhiiiiii13TextureFormat17TextureColorSpace
4446:__ZN13GfxDeviceGLES17UploadTextureCubeE9TextureIDPKhiii13TextureFormati18TextureUploadFlags17TextureColorSpace
4447:__ZN13GfxDeviceGLES15UploadTexture3DE9TextureIDPKhiiii13TextureFormati18TextureUploadFlags
4448:__ZN13GfxDeviceGLES13DeleteTextureE9TextureID
4449:__ZN13GfxDeviceGLES20UploadTexture2DArrayE9TextureIDPKhjiii13TextureFormati18TextureUploadFlags17TextureColorSpace
4450:__ZN13GfxDeviceGLES22UploadTextureCubeArrayE9TextureIDPKhjii13TextureFormati18TextureUploadFlags17TextureColorSpace
4451:__ZN13GfxDeviceGLES25GenerateRenderSurfaceMipsEP17RenderSurfaceBase
4452:__ZN13GfxDeviceGLES11CopyTextureE9TextureIDS0_
4453:__ZN13GfxDeviceGLES11CopyTextureE9TextureIDiiiS0_iii
4454:__ZN13GfxDeviceGLES11CopyTextureE9TextureIDiiiiiiiS0_iiiii
4455:__ZN13GfxDeviceGLES19CreateSparseTextureE9TextureIDii13TextureFormati17TextureColorSpace
4456:__ZN13GfxDeviceGLES23UploadSparseTextureTileE9TextureIDiiiPKhii
4457:__ZN13GfxDeviceGLES10BeginFrameEv
4458:__ZN13GfxDeviceGLES8EndFrameEv
4459:__ZN13GfxDeviceGLES12PresentFrameEv
4460:__ZN9GfxDevice12PresentFrameE17ShaderChannelMask
4461:__ZN9GfxDevice21SwapDynamicVBOBuffersEj
4462:__ZN13GfxDeviceGLES12IsValidStateEv
4463:__ZN13GfxDeviceGLES18HandleInvalidStateEv
4464:__ZN13GfxDeviceGLES5FlushEv
4465:__ZN13GfxDeviceGLES15FinishRenderingEv
4466:__ZN9GfxDevice15ImmediateVertexEfff
4467:__ZN9GfxDevice15ImmediateNormalEfff
4468:__ZN9GfxDevice14ImmediateColorEffff
4469:__ZN9GfxDevice20ImmediateTexCoordAllEfff
4470:__ZN9GfxDevice17ImmediateTexCoordEifff
4471:__ZN9GfxDevice14ImmediateBeginE16GfxPrimitiveType17ShaderChannelMask
4472:__ZN9GfxDevice12ImmediateEndEv
4473:__ZN13GfxDeviceGLES17CaptureScreenshotEiiiiPh
4474:__ZN13GfxDeviceGLES13ReadbackImageER14ImageReferenceiiiiii
4475:__ZN13GfxDeviceGLES21GrabIntoRenderTextureE12ObjectHandleI17RenderSurface_TagP17RenderSurfaceBaseES4_iiii
4476:__ZN13GfxDeviceGLES14BeforeDrawCallEv
4477:__ZN13GfxDeviceGLES16SetActiveContextEPv
4478:__ZN9GfxDevice15ResetFrameStatsEv
4479:__ZN9GfxDevice15BeginFrameStatsEv
4480:__ZN9GfxDevice13EndFrameStatsEv
4481:__ZN9GfxDevice13SaveDrawStatsEv
4482:__ZN9GfxDevice16RestoreDrawStatsEv
4483:__ZN9GfxDevice18SetGlobalDepthBiasEff
4484:__ZNK9GfxDevice18GetGlobalDepthBiasERfS0_
4485:__ZN13GfxDeviceGLES14SetTextureNameE9TextureIDPKc
4486:__ZN13GfxDeviceGLES20SetRenderSurfaceNameEP17RenderSurfaceBasePKc
4487:__ZN13GfxDeviceGLES13SetBufferNameEP9GfxBufferPKc
4488:__ZN13GfxDeviceGLES17SetGpuProgramNameEP10GpuProgramPKc
4489:__ZN9GfxDevice18SetNextComputeInfoEiRKN9ShaderLab16FastPropertyNameEiii
4490:__ZNK13GfxDeviceGLES18GetDefaultRTFormatEv
4491:__ZNK13GfxDeviceGLES21GetDefaultHDRRTFormatEv
4492:__ZN13GfxDeviceGLES23GetNativeTexturePointerE9TextureID
4493:__ZN13GfxDeviceGLES28GetNativeVertexBufferPointerEP9GfxBuffer
4494:__ZN13GfxDeviceGLES29GetNativeComputeBufferPointerE15ComputeBufferID
4495:__ZN9GfxDevice29GetNativeRenderSurfacePointerEP17RenderSurfaceBase
4496:__ZN9GfxDevice18InsertCustomMarkerEi
4497:__ZN9GfxDevice26InsertCustomMarkerCallbackEPFviEi
4498:__ZN9GfxDevice21CreateComputeBufferIDEv
4499:__ZN13GfxDeviceGLES20SetComputeBufferDataE15ComputeBufferIDPKvj
4500:__ZN13GfxDeviceGLES20GetComputeBufferDataE15ComputeBufferIDPvj
4501:__ZN13GfxDeviceGLES28SetComputeBufferCounterValueE15ComputeBufferIDj
4502:__ZN13GfxDeviceGLES22CopyComputeBufferCountE15ComputeBufferIDS0_j
4503:__ZN13GfxDeviceGLES27SetRandomWriteTargetTextureEi9TextureID
4504:__ZN13GfxDeviceGLES26SetRandomWriteTargetBufferEi15ComputeBufferID
4505:__ZN13GfxDeviceGLES23ClearRandomWriteTargetsEv
4506:__ZNK13GfxDeviceGLES26HasActiveRandomWriteTargetEv
4507:__ZN13GfxDeviceGLES20CreateComputeProgramEPKhj
4508:__ZN13GfxDeviceGLES21DestroyComputeProgramER12ObjectHandleI18ComputeProgram_TagPvE
4509:__ZN13GfxDeviceGLES30ResolveComputeProgramResourcesE12ObjectHandleI18ComputeProgram_TagPvER19ComputeShaderKernelRNSt3__26vectorI15ComputeShaderCBNS6_9allocatorIS8_EEEERNS7_I18ComputeShaderParamNS9_ISD_EEEEb
4510:__ZN13GfxDeviceGLES28CreateComputeConstantBuffersEjPKjP12ObjectHandleI18ConstantBuffer_TagPvE
4511:__ZN13GfxDeviceGLES29DestroyComputeConstantBuffersEjP12ObjectHandleI18ConstantBuffer_TagPvE
4512:__ZN13GfxDeviceGLES19CreateComputeBufferE15ComputeBufferIDjj18ComputeBufferFlags
4513:__ZN13GfxDeviceGLES20DestroyComputeBufferE15ComputeBufferID
4514:__ZN13GfxDeviceGLES17SetComputeUniformE12ObjectHandleI18ComputeProgram_TagPvER18ComputeShaderParamjPKv
4515:__ZN13GfxDeviceGLES28UpdateComputeConstantBuffersEjP12ObjectHandleI18ConstantBuffer_TagPvEjjPKhPKjS8_PKi
4516:__ZN13GfxDeviceGLES22UpdateComputeResourcesEjPK9TextureIDPK16TextureDimensionPKijPKjjPK15ComputeBufferIDS7_PK20ComputeBufferCounterjSC_S2_S5_S9_SF_
4517:__ZN13GfxDeviceGLES22DispatchComputeProgramE12ObjectHandleI18ComputeProgram_TagPvEjjj
4518:__ZN13GfxDeviceGLES22DispatchComputeProgramE12ObjectHandleI18ComputeProgram_TagPvE15ComputeBufferIDj
4519:__ZN13GfxDeviceGLES16DrawNullGeometryE16GfxPrimitiveTypeii
4520:__ZN13GfxDeviceGLES24DrawNullGeometryIndirectE16GfxPrimitiveType15ComputeBufferIDj
4521:__ZN13GfxDeviceGLES23DrawIndexedNullGeometryE16GfxPrimitiveTypeP9GfxBufferiii
4522:__ZN13GfxDeviceGLES31DrawIndexedNullGeometryIndirectE16GfxPrimitiveTypeP9GfxBuffer15ComputeBufferIDj
4523:__ZN13GfxDeviceGLES15SetStereoTargetE15StereoscopicEye
4524:__ZN9GfxDevice17SendVRDeviceEventEjj
4525:__ZN9GfxDevice19AsyncResourceUploadEii9TextureID
4526:__ZN9GfxDevice23SyncAsyncResourceUploadE9TextureID10AsyncFencei
4527:__ZNK9GfxDevice16StoreContextDataEP14GfxContextData
4528:__ZN9GfxDevice16ApplyContextDataEP14GfxContextData
4529:__ZN9GfxDevice19CopyContextDataFromEPKS_
4530:__ZN9GfxDevice12ExecuteAsyncEiPFvPN21GfxDeviceAsyncCommand10ArgScratchEPKNS0_3ArgEEPS2_S5_RK8JobFence
4531:__ZN9GfxDevice26UpdateRenderSurfaceWrapperER12ObjectHandleI17RenderSurface_TagP17RenderSurfaceBaseES3_17DepthBufferFormat
4532:__ZN9GfxDevice27CleanupRenderSurfaceWrapperER12ObjectHandleI17RenderSurface_TagP17RenderSurfaceBaseE
4533:__ZN13GfxDeviceGLES16CreateDynamicVBOEv
4534:__ZN13GfxDeviceGLES20SetRenderTargetsImplERK20GfxRenderTargetSetup
4535:__ZN13GfxDeviceGLES20SetShadersThreadableEPP10GpuProgramPPK20GpuProgramParametersPKPKh
4536:__ZN13GfxDeviceGLES4InitE16GfxDeviceLevelGL
4537:__ZN13GfxDeviceGLES15ReloadResourcesEv
4538:__Z20GetBufferManagerGLESv
4539:__ZN17BufferManagerGLES13InvalidateAllEv
4540:__ZN25TransformFeedbackSkinning31CleanupTransformFeedbackShadersEv
4541:__ZN9GfxDevice16DeleteDynamicVBOEv
4542:__ZN9GfxDevice21CommonReloadResourcesEj
4543:__ZN14GfxContextGLES10InvalidateER7ApiGLES
4544:__ZN18GfxFramebufferGLES10InvalidateEv
4545:__ZN7ApiGLES15BindVertexArrayEN2gl6HandleILNS0_10ObjectTypeE3EEE
4546:__ZNSt3__26__treeINS_12__value_typeI21GLESRenderTargetSetupN2gl6HandleILNS3_10ObjectTypeE9EEEEENS_19__map_value_compareIS2_S7_NS_4lessIS2_EELb1EEENS_9allocatorIS7_EEE7destroyEPNS_11__tree_nodeIS7_PvEE
4547:__ZN18GfxFramebufferGLES22EnsureDefaultFBOInitedEv
4548:__ZN4gles27UninitializeBlitFramebufferERNS_23BlitFramebufferDrawQuadE
4549:__ZN7ApiGLES13DeleteProgramERj
4550:__ZN7ApiGLES12DeleteBufferERj
4551:__ZNSt3__23mapI21GLESRenderTargetSetupN2gl6HandleILNS2_10ObjectTypeE9EEENS_4lessIS1_EENS_9allocatorINS_4pairIKS1_S5_EEEEEixERSA_
4552:__ZNK21GLESRenderTargetSetupltERKS_
4553:__ZN7Texture9ReloadAllEbbb
4554:__ZN13RenderTexture10ReleaseAllEv
4555:__ZN7ApiGLES12DeleteShaderERj
4556:__ZNSt3__26__treeINS_12__value_typeIjP14DataBufferGLESEENS_19__map_value_compareIjS4_NS_4lessIjEELb1EEENS_9allocatorIS4_EEE7destroyEPNS_11__tree_nodeIS4_PvEE
4557:__ZN11ContextGLES6CreateEi
4558:__ZN7ApiGLES4InitERK14GfxContextGLESR16GfxDeviceLevelGL
4559:__ZNK9DebugGLES3LogEPKc
4560:__Z23GetGfxDeviceLevelString16GfxDeviceLevelGL
4561:__ZNK7ApiGLES10GetContextEv
4562:__ZN13GfxDeviceGLES15InitCommonStateER15DeviceStateGLES
4563:__Z24PluginsSetGraphicsDevicePvi18GfxDeviceEventType
4564:__ZN4gles16CreateDepthStateER15DeviceStateGLES13GfxDepthState
4565:__ZN4gles16CreateBlendStateER15DeviceStateGLESRK13GfxBlendState
4566:__ZN4gles24InvalidatePipelineStatesERK14GfxContextGLESR15DeviceStateGLES
4567:__ZN7ApiGLES10InvalidateERK14GfxContextGLES
4568:__ZN4gles18CreateStencilStateER15DeviceStateGLESRK15GfxStencilState
4569:__ZN4gles17CreateRasterStateER15DeviceStateGLESRK14GfxRasterState
4570:__ZN22DeviceStencilStateGLESC2ERK15GfxStencilState
4571:__ZNK13TranslateGLES4FuncE15CompareFunction
4572:__ZNK13TranslateGLES16StencilOperationE9StencilOp
4573:__ZN2gl17GetCurrentContextEv
4574:__ZNK13TranslateGLES6EnableEN2gl10EnabledCapE
4575:__ZNK14GfxContextGLES13GetDefaultFBOEv
4576:__ZNK14GfxContextGLES21GetDefaultVertexArrayEv
4577:__ZN7ApiGLES13IsVertexArrayEN2gl6HandleILNS0_10ObjectTypeE3EEE
4578:__ZN7ApiGLES17CreateVertexArrayEv
4579:__ZN2gl22WebGLGetCurrentContextEv
4580:__ZN20DeviceBlendStateGLESC2ERK13GfxBlendState
4581:__ZNK13TranslateGLES11BlendFactorE9BlendMode
4582:__ZNK13TranslateGLES13BlendEquationE7BlendOp
4583:__ZN7ApiGLES4LoadE16GfxDeviceLevelGL
4584:__ZN4gles8InitCapsEP7ApiGLESP12GraphicsCapsR16GfxDeviceLevelGL
4585:__ZN13TranslateGLES4InitERK12GraphicsCaps16GfxDeviceLevelGL
4586:__ZN12_GLOBAL__N_137BuggyBindElementArrayBufferWorkaround17BindBufferWrapperEjj
4587:__ZN4gles30InitRenderTextureFormatSupportEP7ApiGLESP12GraphicsCaps
4588:__ZNK7ApiGLES14QueryExtensionEPKc
4589:__ZN12_GLOBAL__N_123CheckRTFormatRenderableEP7ApiGLESRK12GraphicsCaps19RenderTextureFormat
4590:__ZNK13TranslateGLES9GetFormatE19RenderTextureFormat17TextureColorSpace
4591:__ZN7ApiGLES13CreateTextureEjN2gl9TexFormatEiiiii
4592:__ZN7ApiGLES17CreateFramebufferEv
4593:__ZN7ApiGLES15BindFramebufferEN2gl17FramebufferTargetENS0_6HandleILNS0_10ObjectTypeE9EEE
4594:__ZN7ApiGLES16CheckFramebufferEN2gl6HandleILNS0_10ObjectTypeE9EEEb
4595:__ZN7ApiGLES11BindTextureEjj
4596:__ZN7ApiGLES17DeleteFramebufferERN2gl6HandleILNS0_10ObjectTypeE9EEES3_
4597:__ZN13TranslateGLES10InitFormatERK12GraphicsCaps
4598:__ZNSt3__26vectorINS_4pairIj16TextureDimensionEENS_9allocatorIS3_EEE6insertENS_11__wrap_iterIPKS3_EERS8_
4599:__ZNK7ApiGLES15GetDriverStringEN2gl11DriverQueryE
4600:__Z5SplitRKN4core12basic_stringIcNS_20StringStorageDefaultIcEEEEcRNSt3__26vectorIS3_NS6_9allocatorIS3_EEEEi
4601:__ZNK7ApiGLES3GetEj
4602:__ZNK7ApiGLES18GetExtensionStringEv
4603:__Z19DebugTextLineByLinePKci
4604:__ZNK7ApiGLES18GetFramebufferInfoEv
4605:__ZN4gles14GetProcAddressEPKc
4606:__ZN14GfxContextGLESC2Ev
4607:__ZN18GlslGpuProgramGLES19ApplyGpuProgramGLESERK20GpuProgramParametersPKh
4608:__ZN19ConstantBuffersGLES6BindCBENS_8BufferIDEii
4609:__ZN4gles14UseGLSLProgramER15DeviceStateGLESjbij
4610:__ZN19ConstantBuffersGLES10ResetBindsEv
4611:__ZNK20GpuProgramParameters14GetValueParamsEv
4612:__ZN10GpuProgram20ApplyValueParametersI21GLESGpuProgramApplierEEPKhRT_RK13dynamic_arrayIN20GpuProgramParameters14ValueParameterELj4EES3_
4613:__ZN10GpuProgram22ApplyTextureParametersEPKhR9GfxDevice10ShaderType
4614:__ZN13GfxDeviceGLES16SetComputeBufferE15ComputeBufferIDi20ComputeBufferCounterbb
4615:__Z29TextureIdMapGLES_QueryOrAlloc9TextureID
4616:__ZN7ApiGLES10GenTextureEj
4617:__ZN7ApiGLES19CreateBufferTextureEjN2gl9TexFormatEj
4618:__ZNK13TranslateGLES17MemoryBarrierBitsEN2gl17MemoryBarrierTypeE
4619:__ZN4gles10SetTextureER15DeviceStateGLESjjj19BuiltinSamplerState
4620:__ZN13GfxDeviceGLES15SetImageTextureE9TextureIDi
4621:__ZN7ApiGLES23BindShaderStorageBufferEjj
4622:__ZN14DataBufferGLES12RecordRenderEv
4623:__ZN14DataBufferGLES12RecordUpdateEv
4624:__ZN17BufferManagerGLES13AcquireBufferEjN14DataBufferGLES11BufferUsageEb
4625:__ZN14DataBufferGLES11CopySubDataEPKS_jjj
4626:__ZN7ApiGLES23BindAtomicCounterBufferEjj
4627:__ZN14DataBufferGLES16RecreateWithDataEjPKv
4628:__ZN7ApiGLES17CopyBufferSubDataEjjlll
4629:__ZNK13TranslateGLES15GetBufferTargetEN2gl12BufferTargetE
4630:__ZN7ApiGLES12CreateBufferEN2gl12BufferTargetElPKvj
4631:__ZN7ApiGLES14RecreateBufferEjN2gl12BufferTargetElPKvj
4632:__ZN7ApiGLES18ClearBufferSubDataEjN2gl12BufferTargetEll
4633:__ZN14DataBufferGLESC2ER17BufferManagerGLESjNS_11BufferUsageEb
4634:__ZN7ApiGLES9MapBufferEjN2gl12BufferTargetEllj
4635:__ZN7ApiGLES11UnmapBufferEjN2gl12BufferTargetE
4636:__ZN7ApiGLES17ActiveTextureUnitEj
4637:__ZN7ApiGLES13CreateSamplerE17TextureFilterMode15TextureWrapModei
4638:__ZN7ApiGLES11BindSamplerEij
4639:__ZNK13TranslateGLES4WrapE15TextureWrapMode
4640:__ZNK13TranslateGLES9FilterMagE17TextureFilterMode
4641:__ZNK13TranslateGLES9FilterMinE17TextureFilterModeb
4642:__ZN12TextureIdMap13UpdateTextureE9TextureIDi
4643:__ZN15dense_hashtableINSt3__24pairIK9TextureIDiEES2_N12TextureIdMap20TextureIDHashFunctorEN14dense_hash_mapIS2_iS6_NS0_8equal_toIS2_EE13stl_allocatorIS4_L18MemLabelIdentifier65ELi16EEE9SelectKeyES9_SC_E12resize_deltaEjj
4644:__ZN15dense_hashtableINSt3__24pairIK9TextureIDiEES2_N12TextureIdMap20TextureIDHashFunctorEN14dense_hash_mapIS2_iS6_NS0_8equal_toIS2_EE13stl_allocatorIS4_L18MemLabelIdentifier65ELi16EEE9SelectKeyES9_SC_E12maybe_shrinkEv
4645:__ZN21GLESGpuProgramApplier10ApplyFloatERKN20GpuProgramParameters14ValueParameterEPKft
4646:__ZN21GLESGpuProgramApplier11ApplyVectorERKN20GpuProgramParameters14ValueParameterEPK8Vector4ft
4647:__ZN21GLESGpuProgramApplier11ApplyMatrixERKN20GpuProgramParameters14ValueParameterEPK10Matrix4x4ft
4648:__ZN19ConstantBuffersGLES13SetCBConstantEiiPKvi
4649:__ZN10Matrix3x3faSERK10Matrix4x4f
4650:__ZN7ApiGLES11BindProgramEjb
4651:__ZN7ApiGLES16SetPatchVerticesEi
4652:__ZN7ApiGLES16EnableClipPlanesEj
4653:__ZN14GfxContextGLES14GetFramebufferEv
4654:__ZN18GfxFramebufferGLES8ActivateERK20GfxRenderTargetSetup
4655:__ZN18GfxFramebufferGLES7PrepareEv
4656:__ZN7ApiGLES6EnableEN2gl10EnabledCapE
4657:__ZN7ApiGLES7DisableEN2gl10EnabledCapE
4658:__ZN18GfxFramebufferGLES22MakeCurrentFramebufferENS_7BuiltinE
4659:__ZN13GfxDeviceGLES21ProcessPendingMipGensEv
4660:__ZN13GfxDeviceGLES16AddPendingMipGenEP17RenderSurfaceBase
4661:__ZN18GfxFramebufferGLES21InvalidateAttachmentsEPKbb
4662:__ZN4gles23ClearCurrentFramebufferEP7ApiGLESbbbRK10ColorRGBAffi
4663:__ZN12_GLOBAL__N_113SetBlendStateER7ApiGLESR15DeviceStateGLESPK20DeviceBlendStateGLESi
4664:__ZN7ApiGLES5ClearEjRK10ColorRGBAfbfi
4665:__ZN7ApiGLES14GenerateMipmapEjj
4666:__ZN7ApiGLES26BindFramebufferDrawBuffersEN2gl6HandleILNS0_10ObjectTypeE9EEEiPKj
4667:__ZN4gles14IsDummySurfaceEP17RenderSurfaceBase
4668:__ZN18GfxFramebufferGLES18GetFramebufferNameERK20GfxRenderTargetSetup
4669:__ZNK7ApiGLES21GetFramebufferBindingEN2gl17FramebufferTargetE
4670:__ZN12_GLOBAL__N_119AttachToFramebufferER7ApiGLESRK20GfxRenderTargetSetupP17RenderSurfaceGLESjP11GLESTexturejb
4671:__ZN2gl20IsFormatDepthStencilENS_9TexFormatE
4672:__ZNK7ApiGLES13GetDebugLabelEN2gl10ObjectTypeEjiPiPc
4673:__ZNK7ApiGLES10DebugLabelEN2gl10ObjectTypeEjiPKc
4674:__ZNK13TranslateGLES10ObjectTypeEN2gl10ObjectTypeE
4675:__ZN17GenericDynamicVBOC2ER9GfxDevice13GfxBufferModejj
4676:__ZN17GenericDynamicVBOD2Ev
4677:__ZN17GenericDynamicVBOD0Ev
4678:__ZN10DynamicVBO8GetChunkEjjj16GfxPrimitiveTypeP21DynamicVBOChunkHandle
4679:__ZN10DynamicVBO12ReleaseChunkER21DynamicVBOChunkHandlejj
4680:__ZN10DynamicVBO9DrawChunkERK21DynamicVBOChunkHandle17ShaderChannelMaskS3_P17VertexDeclarationPKNS_10DrawParamsEi
4681:__ZN17GenericDynamicVBO11SwapBuffersEj
4682:__ZN17GenericDynamicVBO13HandleToChunkERK21DynamicVBOChunkHandleb
4683:__ZN17GenericDynamicVBO10AllocateVBEjR21DynamicVBOChunkHandle
4684:__ZN17GenericDynamicVBO10AllocateIBEjR21DynamicVBOChunkHandle
4685:__ZN17GenericDynamicVBO17DrawChunkInternalERK21DynamicVBOChunkHandle17ShaderChannelMaskS3_P17VertexDeclarationP16DrawBuffersRangeij
4686:__ZN17GenericDynamicVBO20ReleaseChunkInternalERK21DynamicVBOChunkHandlejj
4687:__Z30AddDefaultStreamsToMeshBuffersR9GfxDeviceR11MeshBuffersj17ShaderChannelMaskS3_
4688:__ZN9GfxDevice22GetDefaultVertexBufferE26GfxDefaultVertexBufferTypej
4689:__ZN17GenericDynamicVBO12EnsureBufferEjj15GfxBufferTargetR13dynamic_arrayIP9GfxBufferLj4EE
4690:__ZN16GeometryJobTasks29PutDynamicVBOGeometryJobFenceER9GfxDevice
4691:__ZNK10DynamicVBO13IsHandleValidERK21DynamicVBOChunkHandle
4692:__ZN10DynamicVBO19FillQuadIndexBufferER21DynamicVBOChunkHandle
4693:__ZN10DynamicVBOD2Ev
4694:__ZN10DynamicVBOD0Ev
4695:__ZN10DynamicVBO11SwapBuffersEj
4696:__ZN18AsyncUploadManager19AsyncResourceUploadER9GfxDeviceii9TextureID
4697:__ZN18AsyncUploadManager23HandleAsyncReadCommandsEv
4698:__ZN15TextureSettings38ClearUnsupportedSettingsForColorFormatE13TextureFormat
4699:__ZN7Texture21GetMasterTextureLimitEv
4700:__Z19UploadTexture2DDataRK23UploadTextureDataParams
4701:__ZNK15TextureSettings5ApplyER9GfxDevice9TextureID16TextureDimensionb17TextureColorSpace18ShadowSamplingModeb
4702:__Z16DecompressCrunchPKhRjR13TextureFormatiiii18MemLabelIdentifier
4703:__ZN18AsyncUploadManager35ManageTextureUploadRingBufferMemoryEi
4704:__ZN18AsyncUploadManager18ScheduleAsyncReadsEv
4705:__ZN18AsyncUploadManager17ScheduleAsyncReadEP10AtomicNodeP16AsyncReadCommand
4706:__Z19GetBytesForOnePixel13TextureFormat
4707:__ZN4crnd17crnd_unpack_beginEPKvj
4708:__ZN4crnd21crnd_get_texture_infoEPKvjPNS_16crn_texture_infoE
4709:__Z24CalculateImageMipMapSizeii13TextureFormat
4710:__ZN4crnd17crnd_unpack_levelEPvPS0_jjj
4711:__Z18CalculateImageSizeii13TextureFormat
4712:__ZN4crnd12crn_unpackerD2Ev
4713:__ZN4crndL20crnd_default_reallocEPvjPjbS0_
4714:__ZN4crnd11crnd_deleteINS_13prefix_coding14decoder_tablesEEEvPT_
4715:__Z29GetRowBytesFromWidthAndFormati13TextureFormat
4716:__ZN4crnd12crn_unpacker12unpack_levelEPKvjPPvjjj
4717:__ZN4crnd12crn_unpacker11unpack_dxt5EPPhjjjjjj
4718:__ZN4crnd12crn_unpacker12unpack_dxt5aEPPhjjjjjj
4719:__ZN4crnd12crn_unpacker10unpack_dxnEPPhjjjjjj
4720:__ZN4crnd12crn_unpacker11unpack_dxt1EPPhjjjjjj
4721:__ZN4crnd12symbol_codec6decodeERKNS_25static_huffman_data_modelE
4722:__ZN4crnd12crn_unpacker11init_tablesEv
4723:__ZN4crnd12crn_unpacker22decode_color_endpointsEv
4724:__ZN4crnd12crn_unpacker22decode_color_selectorsEv
4725:__ZN4crnd12crn_unpacker22decode_alpha_endpointsEv
4726:__ZN4crnd12crn_unpacker22decode_alpha_selectorsEv
4727:__ZN4crnd12symbol_codec32decode_receive_static_data_modelERNS_25static_huffman_data_modelE
4728:__ZN4crnd16elemental_vector17increase_capacityEjbjPFvPvS1_jE
4729:__ZN4crnd11crnd_mallocEjPj
4730:__ZN4crnd12symbol_codec11decode_bitsEj
4731:__ZN4crnd25static_huffman_data_model22prepare_decoder_tablesEv
4732:__ZN4crnd13prefix_coding14decoder_tables4initEjPKhj
4733:__Z29SkipMipLevelsForTextureUploadi13TextureFormatiPPKhPiS3_S3_
4734:__ZN18AsyncUploadManager17DoScaledPaddedJobEP28FileTextureUploadInstruction
4735:__Z19ScheduleJobInternalR8JobFencePFvPvES1_11JobPriority
4736:__ZN9TextureOpI11TextureDataE15ExtractMipLevelEPS0_S2_iibb
4737:__ZN18AsyncUploadManager15DoDeCruncherJobEP28FileTextureUploadInstruction
4738:__Z21CalculateMipMapOffsetii13TextureFormati
4739:__Z21SourceMipLevelForBlitiiii
4740:__Z23BlitCopyCompressedImage13TextureFormatPKhiiPhiib
4741:__ZN11TextureData17GetImageReferenceEii
4742:__ZN9TextureOpI11TextureDataE12ExtractImageEPS0_P14ImageReferenceNS3_8BlitModeEbi
4743:__ZN17SharedTextureData32GetCrunchDecompressedTextureDataI11TextureDataEEbRKT_
4744:__ZN9TextureOpI17SharedTextureDataE12ExtractImageEPS0_P14ImageReferenceNS3_8BlitModeEbi
4745:__ZN5Image8SetImageERK14ImageReferenceb
4746:__Z41DecompressNativeTextureFormatWithMipLevel13TextureFormatS_iiiPKjiiPj
4747:__ZNK14ImageReference9ClipImageEiiii
4748:__Z14PadImageBorderR14ImageReferenceii
4749:__Z29DecompressNativeTextureFormat13TextureFormatS_iiPKjiiPj
4750:__Z19GetColorBlockColorsPK11DXTColBlockP9Color8888
4751:__Z16DecodeColorBlockPjRK11DXTColBlockiPKj
4752:__Z14DecompressDXT3iiiPKjPj
4753:__Z21DecodeAlpha3BitLinearPjRK23DXTAlphaBlock3BitLineariji
4754:__Z14DecompressBC6HiiiPKjPj13TextureFormat
4755:__Z13DecompressBC7iiiPKjPj
4756:__Z14DecodeBC7BlockP9HDRColorAPKh
4757:__Z15DecodeBC6HBlockP9HDRColorAPKh
4758:__ZN5Image8SetImageEii13TextureFormatb
4759:__ZN17SharedTextureDataD2Ev
4760:__ZN17SharedTextureDataD0Ev
4761:__ZN17SharedTextureData32GetCrunchDecompressedTextureDataIS_EEbRKT_
4762:__ZN17SharedTextureDataC2E18MemLabelIdentifier
4763:__ZN7ApiGLES22BindElementArrayBufferEj
4764:__ZN7ApiGLES20DrawElementsIndirectE16GfxPrimitiveTypejj
4765:__ZNK13TranslateGLES8TopologyE16GfxPrimitiveType
4766:__ZN7ApiGLES12DrawElementsE16GfxPrimitiveTypePKvjjj
4767:__ZN7ApiGLES18DrawArraysIndirectE16GfxPrimitiveTypejj
4768:__ZN7ApiGLES10DrawArraysE16GfxPrimitiveTypejjj
4769:__ZN7ApiGLES16DispatchIndirectEjj
4770:__ZN7ApiGLES8DispatchEjjj
4771:__Z27BufferUpdateCausesStallGLESPK14DataBufferGLES
4772:__ZN14DataBufferGLES7ReleaseEv
4773:__ZN14DataBufferGLES6UploadEjjPKv
4774:__ZN7ApiGLES17BindUniformBufferEjj
4775:__ZN7ApiGLES19UploadBufferSubDataEjN2gl12BufferTargetEllPKv
4776:__ZN17BufferManagerGLES13ReleaseBufferEP14DataBufferGLES
4777:__ZL18ProgramUniform1uivPK7ApiGLESjiihPKv
4778:__ZL18ProgramUniform2uivPK7ApiGLESjiihPKv
4779:__ZL18ProgramUniform3uivPK7ApiGLESjiihPKv
4780:__ZL18ProgramUniform4uivPK7ApiGLESjiihPKv
4781:__ZL17ProgramUniform1ivPK7ApiGLESjiihPKv
4782:__ZL17ProgramUniform2ivPK7ApiGLESjiihPKv
4783:__ZL17ProgramUniform3ivPK7ApiGLESjiihPKv
4784:__ZL17ProgramUniform4ivPK7ApiGLESjiihPKv
4785:__ZL17ProgramUniform1fvPK7ApiGLESjiihPKv
4786:__ZL17ProgramUniform2fvPK7ApiGLESjiihPKv
4787:__ZL17ProgramUniform3fvPK7ApiGLESjiihPKv
4788:__ZL17ProgramUniform4fvPK7ApiGLESjiihPKv
4789:__ZL23ProgramUniformMatrix2fvPK7ApiGLESjiihPKv
4790:__ZL25ProgramUniformMatrix2x3fvPK7ApiGLESjiihPKv
4791:__ZL25ProgramUniformMatrix2x4fvPK7ApiGLESjiihPKv
4792:__ZL25ProgramUniformMatrix3x2fvPK7ApiGLESjiihPKv
4793:__ZL23ProgramUniformMatrix3fvPK7ApiGLESjiihPKv
4794:__ZL25ProgramUniformMatrix3x4fvPK7ApiGLESjiihPKv
4795:__ZL25ProgramUniformMatrix4x2fvPK7ApiGLESjiihPKv
4796:__ZL25ProgramUniformMatrix4x3fvPK7ApiGLESjiihPKv
4797:__ZL23ProgramUniformMatrix4fvPK7ApiGLESjiihPKv
4798:__Z18FillParamsBaseGLESjR20GpuProgramParametersP16PropertyNamesSet
4799:__ZNSt3__26vectorI18ComputeShaderParamNS_9allocatorIS1_EEE21__push_back_slow_pathIKS1_EEvRT_
4800:__Z15FindOrAddByNameI15ComputeShaderCBERT_RNSt3__26vectorIS1_NS3_9allocatorIS1_EEEERKS1_
4801:__ZNSt3__26vectorI15ComputeShaderCBNS_9allocatorIS1_EEE21__push_back_slow_pathIKS1_EEvRT_
4802:__ZNSt3__26vectorIN20GpuProgramParameters14ConstantBufferENS_9allocatorIS2_EEE7reserveEj
4803:__ZNSt3__26vectorIN20GpuProgramParameters14ConstantBufferENS_9allocatorIS2_EEE21__push_back_slow_pathIKS2_EEvRT_
4804:__ZN4glsl22IsShaderParameterArrayEPKciiPb
4805:__ZN20GpuProgramParameters14AddVectorParamEPKcii15ShaderParamTypeiiP16PropertyNamesSet
4806:__ZN20GpuProgramParameters23AddMatrixParamWithFlagsEPKcii15ShaderParamTypeiiihP16PropertyNamesSet
4807:__ZNK13TranslateGLES26GetTextureSamplerDimensionEj
4808:__ZN20GpuProgramParameters14AddBufferParamEPKciP16PropertyNamesSetii
4809:__ZN20GpuProgramParameters15AddTextureParamEPKcii16TextureDimensionP16PropertyNamesSet
4810:__ZN20GpuProgramParameters21UpdateParamBufferSizeEv
4811:__ZNSt3__26__sortIR25ValueParameterArraySorterPN20GpuProgramParameters14ValueParameterEEEvT0_S6_T_
4812:__ZNSt3__27__sort3IR25ValueParameterArraySorterPN20GpuProgramParameters14ValueParameterEEEjT0_S6_S6_T_
4813:__ZNSt3__27__sort4IR25ValueParameterArraySorterPN20GpuProgramParameters14ValueParameterEEEjT0_S6_S6_S6_T_
4814:__ZNSt3__27__sort5IR25ValueParameterArraySorterPN20GpuProgramParameters14ValueParameterEEEjT0_S6_S6_S6_S6_T_
4815:__ZNSt3__218__insertion_sort_3IR25ValueParameterArraySorterPN20GpuProgramParameters14ValueParameterEEEvT0_S6_T_
4816:__ZNSt3__227__insertion_sort_incompleteIR25ValueParameterArraySorterPN20GpuProgramParameters14ValueParameterEEEbT0_S6_T_
4817:__ZNSt3__26vectorIN20GpuProgramParameters16TextureParameterENS_9allocatorIS2_EEE21__push_back_slow_pathIKS2_EEvRT_
4818:__ZN7ApiGLES12CreateShaderEN2gl11ShaderStageEPKc
4819:__ZN7ApiGLES11CheckShaderERjb
4820:__ZN7ApiGLES20CreateComputeProgramEj
4821:__ZN7ApiGLES12CheckProgramERj
4822:__ZNK13TranslateGLES14GetShaderStageEN2gl11ShaderStageE
4823:__ZN14DataBufferGLES3MapEjjj
4824:__ZN14DataBufferGLES5UnmapEv
4825:__Z19PluginsRenderMarkeri
4826:__Z11IsGfxDevicev
4827:__ZN14GfxContextGLES11MakeCurrentER7ApiGLESN2gl13ContextHandleE
4828:__ZN4gles10InvalidateERK14GfxContextGLESR15DeviceStateGLES
4829:__ZN18GfxFramebufferGLES20ActiveContextChangedEPP17RenderSurfaceBaseS2_
4830:__ZN18GfxFramebufferGLES23SetupDefaultFramebufferEPP17RenderSurfaceBaseS2_N2gl6HandleILNS3_10ObjectTypeE9EEE
4831:__ZN18GfxFramebufferGLES32ProcessInvalidatedRenderSurfacesEv
4832:__ZN18GfxFramebufferGLES25CleanupFBOMapForTextureIDERK9TextureID
4833:__ZN18GfxFramebufferGLES20CleanupFBOMapForRBIDERKj
4834:__ZN7ApiGLES15ActivateContextEN2gl13ContextHandleE
4835:__ZN18GfxFramebufferGLESC2ER7ApiGLESPv
4836:__Z25InvertMatrix4x4_General3DPKfPf
4837:__ZN19ConstantBuffersGLES13UpdateBuffersEv
4838:__ZN18GfxFramebufferGLES21GrabIntoRenderTextureEP17RenderSurfaceGLESiiii
4839:__ZN2gl15IsFormatIEEE754ENS_9TexFormatE
4840:__ZN13GfxDeviceGLES22MemoryBarrierImmediateEyN2gl17MemoryBarrierTypeE
4841:__ZN18GfxFramebufferGLES19ReadbackResolveMSAAEP17RenderSurfaceGLESS1_
4842:__ZN12_GLOBAL__N_127PrepareReadback_ResolveMSAAER18GfxFramebufferGLESR7ApiGLESP17RenderSurfaceGLESS5_
4843:__ZN2gl15IsFormatIntegerENS_9TexFormatE
4844:__ZN18GfxFramebufferGLES37GetFramebufferNameFromColorAttachmentEP17RenderSurfaceBase
4845:__ZN18GfxFramebufferGLES8BlitQuadEv
4846:__ZN4gles15BlitFramebufferERNS_23BlitFramebufferDrawQuadER9GfxDeviceii9TextureIDiiiiiiii
4847:__ZN7ApiGLES15BlitFramebufferEN2gl6HandleILNS0_10ObjectTypeE9EEENS0_15FramebufferReadES3_S3_iiiiiiiiNS0_15FramebufferMaskE
4848:__ZN7ApiGLES12TextureImageEjjiN2gl9TexFormatEiiiiiPKv
4849:__ZN18GfxFramebufferGLES18ReleaseFramebufferEP17RenderSurfaceBaseP14GfxContextGLES
4850:__ZN14GfxContextGLES43AddRenderSurfaceToDeferredFBOInvalidateListEPK17RenderSurfaceGLES
4851:__ZN13GfxDeviceGLES19CancelPendingMipGenEP17RenderSurfaceBase
4852:__ZN4gles20DestroyRenderSurfaceEP7ApiGLESP17RenderSurfaceGLES
4853:__ZN7ApiGLES18DeleteRenderbufferERj
4854:__ZN18GfxFramebufferGLES43AddRenderSurfaceToDeferredFBOInvalidateListEPK17RenderSurfaceGLES
4855:__ZNK13TranslateGLES15FramebufferMaskEN2gl15FramebufferMaskE
4856:__ZNK13TranslateGLES15FramebufferReadEN2gl15FramebufferReadE
4857:__ZL19BlitFramebufferImplRN4gles23BlitFramebufferDrawQuadER9GfxDevice9TextureIDRK8Vector4f
4858:__ZN7ApiGLES23EnableVertexArrayAttribEjjN2gl21VertexArrayAttribKindEi19VertexChannelFormatiPKv
4859:__ZNK13TranslateGLES23VertexArrayKindBitfieldEN2gl21VertexArrayAttribKindE
4860:__ZNK13TranslateGLES23VertexArraySizeBitfieldEi
4861:__ZNK13TranslateGLES23VertexArrayTypeBitfieldE19VertexChannelFormat
4862:__ZNK13TranslateGLES10VertexTypeE19VertexChannelFormat
4863:__ZN4gles25InitializeBlitFramebufferERNS_23BlitFramebufferDrawQuadENS_24BlitFramebufferAlphaModeENS_35BlitFramebufferColorSpaceConversionE
4864:__ZN7ApiGLES21CreateGraphicsProgramEjjjjj
4865:__ZN7ApiGLES11LinkProgramEj
4866:__ZN4gles24CreateColorRenderSurfaceEP7ApiGLESP17RenderSurfaceGLESN2gl9TexFormatE
4867:__ZN4gles20EnsureTextureCreatedEP7ApiGLESP17RenderSurfaceGLES
4868:__ZN4gles21InitRenderSurfaceGLESEP7ApiGLESR17RenderSurfaceGLESN2gl17TextureSrgbDecodeE
4869:__ZN7ApiGLES14TextureSamplerEjj17TextureFilterMode15TextureWrapModeifb18ShadowSamplingModeN2gl17TextureSrgbDecodeE
4870:__ZN7ApiGLES18CreateRenderbufferEiN2gl9TexFormatEii
4871:__ZNK13TranslateGLES20GetTextureSRGBDecodeEN2gl17TextureSrgbDecodeE
4872:__ZN7ApiGLES15BlitFramebufferEN2gl6HandleILNS0_10ObjectTypeE9EEENS0_15FramebufferReadES3_iiNS0_15FramebufferMaskE
4873:__ZN18GfxFramebufferGLES21InvalidateAttachmentsEv
4874:__ZN18GfxFramebufferGLES13ReadbackImageER14ImageReferenceiiiiii
4875:__ZNK13TranslateGLES13GetFormatDescE13TextureFormat17TextureColorSpace
4876:__ZN13DrawImmediate11FlushBufferEv
4877:__ZN13DrawImmediate6VertexEfff
4878:__ZN7ApiGLES6SubmitEN2gl10SubmitModeE
4879:__ZN11ContextGLES18HandleInvalidStateEPb
4880:__ZN18GfxFramebufferGLES32UpdateDefaultFramebufferViewportEv
4881:__ZN11ContextGLES7PresentEv
4882:__ZN18GfxFramebufferGLES36TryInvalidateDefaultFramebufferDepthEv
4883:__ZN17BufferManagerGLES12AdvanceFrameEv
4884:__ZN17BufferManagerGLES24UpdateLiveSetFromPendingEv
4885:__ZN17BufferManagerGLES16PruneFreeBuffersEv
4886:__ZN18GfxFramebufferGLES8ActivateENS_7BuiltinEb
4887:__Z27UploadSparseTextureTileGLES9TextureIDiiiPKhii
4888:__ZN7ApiGLES24CommitSparseTexturePagesEjjiiiiiiih
4889:__ZN7ApiGLES15TextureSubImageEjjN2gl9TexFormatEiiiiiiiiPKv
4890:__ZNK13TranslateGLES9GetFormatE13TextureFormat17TextureColorSpace
4891:__Z23CreateSparseTextureGLES9TextureIDiiN2gl9TexFormatEi
4892:__ZN7ApiGLES19CreateSparseTextureEjjN2gl9TexFormatEiiiiRiS2_S2_
4893:__ZL25CheckCopyTextureArgumentsRK7ApiGLESP11GLESTextureS3_
4894:__ZN7ApiGLES16CopyTextureImageEjjN2gl9TexFormatEiiiiijjS1_iiiiiiiiii
4895:__ZN4gles13UploadTextureEP7ApiGLESR11GLESTexture13TextureFormatPKvjiiiij17TextureColorSpace16TextureUsageMode
4896:__ZN7ApiGLES14TextureSwizzleEjjN2gl18TextureSwizzleFuncE
4897:__Z29NeedToDecompressTextureFormat13TextureFormat
4898:__ZN12_GLOBAL__N_112UploadFormatE13TextureFormat
4899:__Z37PrintWarningAboutDecompressingTexture13TextureFormat
4900:__Z33GetMinimumTextureMipSizeForFormat13TextureFormat
4901:__ZN12_GLOBAL__N_127ConvertUncompressedMipLevelE13TextureFormatS0_iiiPKvPv
4902:__ZNK13TranslateGLES17GetTextureSwizzleEN2gl18TextureSwizzleFuncE
4903:__Z23DeleteSparseTextureGLES9TextureID
4904:__ZN4gles10InvalidateER20TextureUnitStateGLES
4905:__ZN4gles22UploadTexture2DSubDataEP7ApiGLESj13TextureFormatPKviiiii17TextureColorSpace
4906:__ZN7ApiGLES16GetTextureTargetE16TextureDimensionj
4907:__ZN4gles18AliasRenderSurfaceEP17RenderSurfaceGLES9TextureID
4908:__ZNK13TranslateGLES9GetFormatE17DepthBufferFormat
4909:__ZN4gles24CreateDepthRenderSurfaceEP7ApiGLESP17RenderSurfaceGLESN2gl9TexFormatE
4910:__ZN18GfxFramebufferGLES30SetBackBufferColorDepthSurfaceEP17RenderSurfaceBaseS1_
4911:__ZN9GfxDevice30SetBackBufferColorDepthSurfaceEP17RenderSurfaceBaseS1_
4912:__ZNK18GfxFramebufferGLES15DiscardContentsER12ObjectHandleI17RenderSurface_TagP17RenderSurfaceBaseE
4913:__ZN18GfxFramebufferGLES30ReadbackDepthIntoRenderTextureEP17RenderSurfaceGLES
4914:__ZN18GfxFramebufferGLES37GetFramebufferNameFromDepthAttachmentEP17RenderSurfaceBase
4915:__ZN25TransformFeedbackSkinning8SkinMeshERK18VertexStreamSourceP9GfxBufferP17GPUSkinPoseBufferS4_ii17ShaderChannelMaskb
4916:__ZL33GetTransformFeedbackShaderProgram17ShaderChannelMaskjj12TFMethodTypeb
4917:__ZN10BufferGLES12EnsureBufferEj
4918:__ZN7ApiGLES27BindTransformFeedbackBufferEjj
4919:__Z18SetVertexStateGLES17ShaderChannelMaskP21VertexDeclarationGLESPK18VertexStreamSourcejjj
4920:__ZN7ApiGLES11DrawCaptureE16GfxPrimitiveTypej
4921:__ZN7ApiGLES24DisableVertexArrayAttribEj
4922:__ZN14DataBufferGLES13EnsureStorageEj
4923:__ZN4core13StringBuilder6appendEj
4924:__ZN4core13StringBuilder6appendEi
4925:__Z11IntToStringi
4926:__Z19UnsignedIntToStringj
4927:__ZN31TransformFeedbackSkinPoseBuffer6UpdateEPK10Matrix4x4fi
4928:__ZN12SkinMeshInfo10DeallocateEPS_
4929:__ZN15TextureTFMethodD2Ev
4930:__ZN15TextureTFMethodD0Ev
4931:__ZN15TextureTFMethod13MapBoneBufferEj
4932:__ZN15TextureTFMethod15UnmapBoneBufferEv
4933:__ZN15TextureTFMethod16BindForRenderingEj
4934:__ZN15TextureTFMethod13DoneRenderingEv
4935:__ZN15TextureTFMethod20IsBoneCountSupportedEi
4936:__ZN21UniformBufferTFMethodD2Ev
4937:__ZN21UniformBufferTFMethodD0Ev
4938:__ZN21UniformBufferTFMethod13MapBoneBufferEj
4939:__ZN21UniformBufferTFMethod15UnmapBoneBufferEv
4940:__ZN21UniformBufferTFMethod16BindForRenderingEj
4941:__ZN21UniformBufferTFMethod13DoneRenderingEv
4942:__ZN21UniformBufferTFMethod20IsBoneCountSupportedEi
4943:__ZN15UniformTFMethodD2Ev
4944:__ZN15UniformTFMethodD0Ev
4945:__ZN15UniformTFMethod13MapBoneBufferEj
4946:__ZN15UniformTFMethod16BindForRenderingEj
4947:__ZN15UniformTFMethod20IsBoneCountSupportedEi
4948:__ZN31TransformFeedbackSkinPoseBufferD2Ev
4949:__ZN31TransformFeedbackSkinPoseBufferD0Ev
4950:__Z17TransformVerticesPhRK10Matrix4x4fRK16VertexBufferDatajj17ShaderChannelMask25GfxTransformVerticesFlagsj
4951:__Z20GetChannelFormatSizeh
4952:__Z27TransformVerticesStridedREFPhRK10Matrix4x4fjPKhiiiS4_ii25GfxTransformVerticesFlagsj
4953:__ZN10Matrix3x3f15InvertTransposeEv
4954:__Z26TransformVerticesInnerLoopILb0ELb0ELb0EEvPhRK10Matrix4x4fRK10Matrix3x3fjPKhiiiS8_ii25GfxTransformVerticesFlagsj
4955:__Z26TransformVerticesInnerLoopILb1ELb0ELb0EEvPhRK10Matrix4x4fRK10Matrix3x3fjPKhiiiS8_ii25GfxTransformVerticesFlagsj
4956:__Z26TransformVerticesInnerLoopILb0ELb1ELb0EEvPhRK10Matrix4x4fRK10Matrix3x3fjPKhiiiS8_ii25GfxTransformVerticesFlagsj
4957:__Z26TransformVerticesInnerLoopILb1ELb1ELb0EEvPhRK10Matrix4x4fRK10Matrix3x3fjPKhiiiS8_ii25GfxTransformVerticesFlagsj
4958:__Z26TransformVerticesInnerLoopILb0ELb0ELb1EEvPhRK10Matrix4x4fRK10Matrix3x3fjPKhiiiS8_ii25GfxTransformVerticesFlagsj
4959:__Z26TransformVerticesInnerLoopILb1ELb0ELb1EEvPhRK10Matrix4x4fRK10Matrix3x3fjPKhiiiS8_ii25GfxTransformVerticesFlagsj
4960:__Z26TransformVerticesInnerLoopILb0ELb1ELb1EEvPhRK10Matrix4x4fRK10Matrix3x3fjPKhiiiS8_ii25GfxTransformVerticesFlagsj
4961:__Z26TransformVerticesInnerLoopILb1ELb1ELb1EEvPhRK10Matrix4x4fRK10Matrix3x3fjPKhiiiS8_ii25GfxTransformVerticesFlagsj
4962:__ZN10Matrix4x4f5ScaleERK8Vector3f
4963:__Z20InvertMatrix4x4_FullPKfPf
4964:__ZN10Matrix3x3fC2ERK10Matrix4x4f
4965:__ZN17UniqueIDGenerator17DestroyAllIndicesEv
4966:__ZNK17UniqueIDGenerator6ExistsE13UniqueSmallID
4967:__ZN17UniqueIDGenerator9DestroyIDE13UniqueSmallID
4968:__ZN16GeometryJobTasks30ScheduleDynamicVBOGeometryJobsER9GfxDevicePFvP25DynamicVBOGeometryJobDatajEPFvS3_EPFvRK8JobFenceES3_j16GfxPrimitiveTypeP21DynamicVBOChunkHandle
4969:__ZN16GeometryJobTasks20ScheduleGeometryJobsER9GfxDevicePFvP15GeometryJobDataEPK22GeometryJobInstructionjb
4970:__ZN19ConstantBuffersGLES12RecordRenderEv
4971:__ZN13GfxDeviceGLES16DrawBufferRangesEP9GfxBufferPK18VertexStreamSourceiPK16DrawBuffersRangeiP17VertexDeclaration17ShaderChannelMaskjb
4972:__ZN9GfxDevice14OnDeleteBufferEP9GfxBuffer
4973:__ZN10BufferGLES8EndWriteEj
4974:__ZN14DataBufferGLES16FlushMappedRangeEjj
4975:__ZN7ApiGLES11FlushBufferEjN2gl12BufferTargetEll
4976:__ZN10BufferGLES10BeginWriteEjj
4977:__ZN10BufferGLES6UpdateEPKv
4978:__ZN9GfxDevice14OnCreateBufferEP9GfxBuffer
4979:__ZN10BufferGLESD2Ev
4980:__ZN10BufferGLESD0Ev
4981:__ZN19ConstantBuffersGLES8UpdateCBENS_8BufferIDEiPKv
4982:__ZN9ShaderLab10SubProgramD2Ev
4983:__Z16CreateGpuProgram20ShaderGpuProgramTypeRK13dynamic_arrayIhLj1EER22CreateGpuProgramOutput
4984:__ZN18GlslGpuProgramGLESC2E20ShaderGpuProgramTypeRK13dynamic_arrayIhLj1EER22CreateGpuProgramOutput
4985:__ZN10GpuProgramC2Ev
4986:__ZN18GlslGpuProgramGLES6CreateE20ShaderGpuProgramTypeRK13dynamic_arrayIhLj1EER17ShaderChannelMask
4987:__ZN22CreateGpuProgramOutput12CreateParamsEv
4988:__ZN16UniformCacheGLES6CreateERK20GpuProgramParameters
4989:__ZN4glsl18ExtractDefineBlockERKN4core12basic_stringIcNS0_20StringStorageDefaultIcEEEES6_PS4_
4990:__Z4TrimRKN4core12basic_stringIcNS_20StringStorageDefaultIcEEEES5_
4991:__ZN18GlslGpuProgramGLES14CompileProgramERKN4core12basic_stringIcNS0_20StringStorageDefaultIcEEEES6_S6_S6_S6_R17ShaderChannelMask
4992:__Z19GetCachedBinaryNameRKN4core12basic_stringIcNS_20StringStorageDefaultIcEEEES5_S5_S5_S5_R11fixed_arrayIcLj33EE
4993:__ZN18GlslGpuProgramGLES25LoadFromBinaryShaderCacheERKN4core12basic_stringIcNS0_20StringStorageDefaultIcEEEER17ShaderChannelMaskPKc
4994:__ZL39PatchShaderSourceForAdrenoES3WorkaroundRKN4core12basic_stringIcNS_20StringStorageDefaultIcEEEEPS3_
4995:__ZL21CompileFragmentShaderRKN4core12basic_stringIcNS_20StringStorageDefaultIcEEEEb
4996:__ZL27BindVertexProgramAttributesRKN4core12basic_stringIcNS_20StringStorageDefaultIcEEEEjR17ShaderChannelMask
4997:__ZN18GlslGpuProgramGLES24StoreInBinaryShaderCacheEPKc
4998:__ZN7ApiGLES13CreateProgramEv
4999:__ZN18GlslGpuProgramGLESD2Ev
5000:__ZN18GlslGpuProgramGLESD0Ev
5001:__ZNK10GpuProgram11IsSupportedEv
5002:__ZNK20GpuProgramParameters23PrepareOverridingValuesERK19ShaderPropertySheetR13dynamic_arrayIhLj4EE
5003:__ZL22PrepareValueParametersI27OverridingParameterPreparerEvRK13dynamic_arrayIN20GpuProgramParameters14ValueParameterELj4EEjjjRS1_IhLj4EERKT_
5004:__ZN18GfxFramebufferGLES10SetScissorERK5RectTIiE
5005:__ZN18GfxFramebufferGLES11SetViewportERK5RectTIiE
5006:__ZN9GfxDevice26UpdateViewProjectionMatrixEv
5007:__ZN9GfxDevice19SetProjectionMatrixERK10Matrix4x4f
5008:__ZN9GfxDevice13SetViewMatrixERK10Matrix4x4f
5009:__ZN9GfxDevice14SetWorldMatrixERK10Matrix4x4f
5010:__ZN7ApiGLES16BindStencilStateEPK15GfxStencilStatei
5011:__ZN7ApiGLES11SetCullModeE8CullMode
5012:__ZN18GfxFramebufferGLES5ClearE13GfxClearFlagsRK10ColorRGBAffib
5013:__Z14CheckErrorGLESPK7ApiGLESPKcS3_l
5014:__Z7LogGLESPKcS0_S0_l
5015:__ZN9GfxDevice15InvalidateStateEv
5016:__ZN18GfxFramebufferGLES32InvalidateActiveFramebufferStateEv
5017:__ZN9GfxDevice20CleanupSharedBuffersEv
5018:__ZN19ConstantBuffersGLES5ClearEv
5019:__Z24ReleaseBufferManagerGLESv
5020:__ZN22VertexDeclarationCache5ClearEv
5021:__ZN7ApiGLES13DeleteSamplerERj
5022:__ZN11ContextGLES7DestroyEv
5023:__ZNSt3__26__treeINS_12__value_typeI15ComputeBufferIDP14DataBufferGLESEENS_19__map_value_compareIS2_S5_NS_4lessIS2_EELb1EEENS_9allocatorIS5_EEE7destroyEPNS_11__tree_nodeIS5_PvEE
5024:__ZNSt3__26__treeINS_12__value_typeI15ComputeBufferIDP17ComputeBufferGLESEENS_19__map_value_compareIS2_S5_NS_4lessIS2_EELb1EEENS_9allocatorIS5_EEE7destroyEPNS_11__tree_nodeIS5_PvEE
5025:__ZN15DeviceStateGLESD2Ev
5026:__ZN9GfxDeviceD2Ev
5027:__ZNSt3__26__treeINS_12__value_typeI9TextureIDjEENS_19__map_value_compareIS2_S3_NS_4lessIS2_EELb1EEENS_9allocatorIS3_EEE7destroyEPNS_11__tree_nodeIS3_PvEE
5028:__ZN9GfxDeviceD0Ev
5029:__ZN9GfxDevice18BeforePluginRenderEv
5030:__ZN9GfxDevice25SetInvertProjectionMatrixEb
5031:__ZN9GfxDevice11DrawBuffersEP9GfxBufferPK18VertexStreamSourceiPK16DrawBuffersRangeiP17VertexDeclaration17ShaderChannelMask
5032:__ZN9GfxDevice19DrawBuffersIndirectEP9GfxBufferPK18VertexStreamSourceiP17VertexDeclaration17ShaderChannelMask16GfxPrimitiveType15ComputeBufferIDj
5033:__ZN9GfxDevice21RegisterNativeTextureE9TextureIDi16TextureDimension
5034:__ZN9GfxDevice23UnregisterNativeTextureE9TextureID
5035:__ZN9GfxDevice20UploadTexture2DArrayE9TextureIDPKhjiii13TextureFormati18TextureUploadFlags17TextureColorSpace
5036:__ZN9GfxDevice22UploadTextureCubeArrayE9TextureIDPKhjii13TextureFormati18TextureUploadFlags17TextureColorSpace
5037:__ZN9GfxDevice11CopyTextureE9TextureIDiiiiiiiS0_iiiii
5038:__ZN9GfxDevice19CreateSparseTextureE9TextureIDii13TextureFormati17TextureColorSpace
5039:__ZN9GfxDevice19CreateComputeBufferE15ComputeBufferIDjj18ComputeBufferFlags
5040:__ZN9GfxDevice22UpdateComputeResourcesEjPK9TextureIDPK16TextureDimensionPKijPKjjPK15ComputeBufferIDS7_PK20ComputeBufferCounterjSC_S2_S5_S9_SF_
5041:__ZN7ApiGLESD2Ev
5042:__ZN11fixed_arrayI13dynamic_arrayIjLj4EELj6EED2Ev
5043:__ZNSt3__26__treeI17DeviceRasterState11memcmp_lessIS1_S1_ENS_9allocatorIS1_EEE7destroyEPNS_11__tree_nodeIS1_PvEE
5044:__ZNSt3__26__treeI20DeviceBlendStateGLES11memcmp_lessIS1_16DeviceBlendStateENS_9allocatorIS1_EEE7destroyEPNS_11__tree_nodeIS1_PvEE
5045:__ZNSt3__26__treeI22DeviceStencilStateGLES11memcmp_lessIS1_18DeviceStencilStateENS_9allocatorIS1_EEE7destroyEPNS_11__tree_nodeIS1_PvEE
5046:__ZNSt3__26__treeI20DeviceDepthStateGLES11memcmp_lessIS1_S1_ENS_9allocatorIS1_EEE7destroyEPNS_11__tree_nodeIS1_PvEE
5047:__ZN14GfxContextGLESD2Ev
5048:__ZNSt3__26__treeINS_12__value_typeIN2gl13ContextHandleEPN14GfxContextGLES8InstanceEEENS_19__map_value_compareIS3_S7_NS_4lessIS3_EELb1EEENS_9allocatorIS7_EEE7destroyEPNS_11__tree_nodeIS7_PvEE
5049:__ZN22VertexDeclarationCache6CommitEv
5050:__ZN17BufferManagerGLESD2Ev
5051:__ZN17BufferManagerGLES5ClearEv
5052:__ZN16MeshVertexFormatD2Ev
5053:__ZN24BuiltinShaderParamValuesC2Ev
5054:__ZN9GfxDevice8OnCreateEv
5055:__ZN16MeshVertexFormatC2EjRK18VertexChannelsInfob
5056:__ZN14GfxDeviceStats15SetScreenParamsEiiiii
5057:__Z16GetValuesForARGVRKN4core12basic_stringIcNS_20StringStorageDefaultIcEEEE
5058:__Z36GiveDebuggerChanceToAttachIfRequiredv
5059:__ZN4File19SetCurrentDirectoryERKN4core12basic_stringIcNS0_20StringStorageDefaultIcEEEE
5060:__Z29InitPathNamePersistentManagerv
5061:__Z32AddPathRemapsForBuiltinResourcesRKN4core12basic_stringIcNS_20StringStorageDefaultIcEEEE
5062:__Z26InitializeEngineNoGraphicsv
5063:__ZN10FileSystem25MountDataFolderFileSystemERKN4core12basic_stringIcNS0_20StringStorageDefaultIcEEEES6_
5064:__Z26PlayerLoadSettingsAndInputRKN4core12basic_stringIcNS_20StringStorageDefaultIcEEEE
5065:__ZN17ArchiveFileSystem12MountArchiveEPKcS1_
5066:__ZN20ArchiveStorageReaderC2Ev
5067:__ZN20ArchiveStorageReader10InitializeER15FileSystemEntryy
5068:__ZN15dense_hashtableINSt3__24pairIKN4core12basic_stringIcNS2_20StringStorageDefaultIcEEEEP20ArchiveStorageReaderEES6_20StringHash32FunctionIS6_EN14dense_hash_mapIS6_S9_SC_NS0_8equal_toIS6_EE13stl_allocatorISA_L18MemLabelIdentifier54ELi16EEE9SelectKeyESF_SI_E12resize_deltaEjj
5069:__ZN15dense_hashtableINSt3__24pairIKN4core12basic_stringIcNS2_20StringStorageDefaultIcEEEEP20ArchiveStorageReaderEES6_20StringHash32FunctionIS6_EN14dense_hash_mapIS6_S9_SC_NS0_8equal_toIS6_EE13stl_allocatorISA_L18MemLabelIdentifier54ELi16EEE9SelectKeyESF_SI_E15insert_noresizeERKSA_
5070:__ZN17ArchiveFileSystem10AddStorageEP20ArchiveStorageReader
5071:__ZN20ArchiveStorageReader18DestroyCachedBlockEPNS_11CachedBlockE
5072:__Z18CreateDecompressor15CompressionType18MemLabelIdentifier
5073:__ZNK15Lz4Decompressor16DecompressMemoryEPKvPjPvS2_
5074:__ZNK15Lz4Decompressor16DecompressStreamEPvPKvPjS0_S3_b
5075:_UNITY_LZ4_decompress_safe
5076:__ZNSt3__23mapIN4core12basic_stringIcNS1_20StringStorageDefaultIcEEEEN17ArchiveFileSystem11ArchiveItemENS_4lessIS5_EE13stl_allocatorINS_4pairIKS5_S7_EEL18MemLabelIdentifier54ELi16EEEixERSC_
5077:__ZNK15dense_hashtableINSt3__24pairIKN4core12basic_stringIcNS2_20StringStorageDefaultIcEEEEP20ArchiveStorageReaderEES6_20StringHash32FunctionIS6_EN14dense_hash_mapIS6_S9_SC_NS0_8equal_toIS6_EE13stl_allocatorISA_L18MemLabelIdentifier54ELi16EEE9SelectKeyESF_SI_E23find_position_with_hashERS7_j
5078:__ZN15dense_hashtableINSt3__24pairIKN4core12basic_stringIcNS2_20StringStorageDefaultIcEEEEP20ArchiveStorageReaderEES6_20StringHash32FunctionIS6_EN14dense_hash_mapIS6_S9_SC_NS0_8equal_toIS6_EE13stl_allocatorISA_L18MemLabelIdentifier54ELi16EEE9SelectKeyESF_SI_EC2ERKSL_j
5079:__ZN15dense_hashtableINSt3__24pairIKN4core12basic_stringIcNS2_20StringStorageDefaultIcEEEEP20ArchiveStorageReaderEES6_20StringHash32FunctionIS6_EN14dense_hash_mapIS6_S9_SC_NS0_8equal_toIS6_EE13stl_allocatorISA_L18MemLabelIdentifier54ELi16EEE9SelectKeyESF_SI_ED2Ev
5080:__ZN15dense_hashtableINSt3__24pairIKN4core12basic_stringIcNS2_20StringStorageDefaultIcEEEEP20ArchiveStorageReaderEES6_20StringHash32FunctionIS6_EN14dense_hash_mapIS6_S9_SC_NS0_8equal_toIS6_EE13stl_allocatorISA_L18MemLabelIdentifier54ELi16EEE9SelectKeyESF_SI_E9copy_fromERKSL_j
5081:__ZN15dense_hashtableINSt3__24pairIKN4core12basic_stringIcNS2_20StringStorageDefaultIcEEEEP20ArchiveStorageReaderEES6_20StringHash32FunctionIS6_EN14dense_hash_mapIS6_S9_SC_NS0_8equal_toIS6_EE13stl_allocatorISA_L18MemLabelIdentifier54ELi16EEE9SelectKeyESF_SI_E5clearEv
5082:__ZN15dense_hashtableINSt3__24pairIKN4core12basic_stringIcNS2_20StringStorageDefaultIcEEEEP20ArchiveStorageReaderEES6_20StringHash32FunctionIS6_EN14dense_hash_mapIS6_S9_SC_NS0_8equal_toIS6_EE13stl_allocatorISA_L18MemLabelIdentifier54ELi16EEE9SelectKeyESF_SI_E12expand_arrayEjN21dense_hash_map_traits17integral_constantIbLb0EEE
5083:__ZN20ArchiveStorageReader15MakeStorageUsedEv
5084:__ZN20ArchiveStorageReader10ReadHeaderEy
5085:__ZN12FileAccessor4SeekEx10FileOrigin
5086:__ZN20ArchiveStorageHeader19ReadHeaderSignatureER12FileAccessorRNS_6HeaderE
5087:__ZN20ArchiveStorageHeader7ReadAllER12FileAccessorRNS_6HeaderERNS_10BlocksInfoERNS_13DirectoryInfoE
5088:__ZL43ReadHeaderAndBlocksInfo_UnityWebAndUnityRawR12FileAccessorRN20ArchiveStorageHeader6HeaderERNS1_10BlocksInfoE
5089:__ZN20ArchiveStorageHeader10ReadHeaderER12FileAccessorRNS_6HeaderE
5090:__ZN12FileAccessor4ReadEyPvPy
5091:__ZN10MemoryFile21CreateFileSystemEntryE18MemLabelIdentifier14FilePermissionPvjb
5092:__ZN20ArchiveStorageHeader14ReadBlocksInfoER12FileAccessorRKNS_6HeaderERNS_10BlocksInfoE
5093:__ZN20ArchiveStorageHeader17ReadDirectoryInfoER12FileAccessorRKNS_6HeaderERNS_13DirectoryInfoE
5094:__ZNK12FileAccessor8PositionEv
5095:__Z37ReadDirectoryInfo_UnityWebAndUnityRawR12FileAccessorRKN20ArchiveStorageHeader6HeaderERNS1_13DirectoryInfoE
5096:__ZNSt3__26vectorIN20ArchiveStorageHeader4NodeE13stl_allocatorIS2_L18MemLabelIdentifier54ELi16EEE8__appendEj
5097:__ZN12_GLOBAL__N_110ReadStringIN4core12basic_stringIcNS1_20StringStorageDefaultIcEEEEEEbR12FileAccessorPT_
5098:__ZN4core12basic_stringIcNS_20StringStorageDefaultIcEEE6resizeEj
5099:__ZN4core12basic_stringIcNS_20StringStorageDefaultIcEEE9push_backEc
5100:__Z20GetPathNameExtensionRKN4core12basic_stringIcNS_20StringStorageDefaultIcEEEE
5101:__ZNSt3__26vectorIN20ArchiveStorageHeader12StorageBlockE13stl_allocatorIS2_L18MemLabelIdentifier54ELi16EEE8__appendEj
5102:__ZN25SingleBlockMemoryFileDataC2E18MemLabelIdentifierPvjb
5103:__ZN10MemoryFileC2E18MemLabelIdentifierP14MemoryFileData14FilePermission
5104:__ZN15FileSystemEntryC2ERK13FileEntryData
5105:__ZN12IFileAdapter4OpenER13FileEntryData14FilePermission16FileAutoBehavior
5106:__ZN12IFileAdapter4ReadER13FileEntryDatayyPvPy
5107:__ZN12IFileAdapter4ReadER13FileEntryDatayPvPy
5108:__ZN12IFileAdapter5WriteER13FileEntryDatayPvPy
5109:__ZN12IFileAdapter5CloseER13FileEntryData
5110:__ZN12IFileAdapter4SeekER13FileEntryDatax10FileOrigin
5111:__ZNK12IFileAdapter8PositionERK13FileEntryData
5112:__ZN12IFileAdapter9SetLengthER13FileEntryDatay
5113:__ZNK12IFileAdapter4SizeERK13FileEntryData
5114:__ZN25MultiBlocksMemoryFileDataD2Ev
5115:__ZN25MultiBlocksMemoryFileDataD0Ev
5116:__ZN25MultiBlocksMemoryFileData4LockEPPv
5117:__ZN25MultiBlocksMemoryFileData6UnlockEPv
5118:__ZNK25MultiBlocksMemoryFileData4ReadEyyPv
5119:__ZN25MultiBlocksMemoryFileData5WriteEyyPKv
5120:__ZN25MultiBlocksMemoryFileData9SetLengthEy
5121:__ZNK25MultiBlocksMemoryFileData4SizeEv
5122:__ZNK25MultiBlocksMemoryFileData5CloneEv
5123:__ZN25MultiBlocksMemoryFileData17AdjustBlocksCountEj
5124:__ZN10MemoryFileD2Ev
5125:__ZN10MemoryFileD0Ev
5126:__ZNK10MemoryFile6IsOpenEv
5127:__ZN10MemoryFile5CloseEv
5128:__ZN10MemoryFile4ReadEyyPvPy
5129:__ZN10MemoryFile4ReadEyPvPy
5130:__ZN10MemoryFile5WriteEyyPKvPy
5131:__ZN10MemoryFile5WriteEyPKvPy
5132:__ZN10MemoryFile4SeekEx10FileOrigin
5133:__ZNK10MemoryFile8PositionEv
5134:__ZN10MemoryFile9SetLengthEy
5135:__ZNK10MemoryFile4SizeEv
5136:__ZN25SingleBlockMemoryFileDataD2Ev
5137:__ZN25SingleBlockMemoryFileDataD0Ev
5138:__ZN25SingleBlockMemoryFileData4LockEPPv
5139:__ZNK25SingleBlockMemoryFileData4ReadEyyPv
5140:__ZN25SingleBlockMemoryFileData5WriteEyyPKv
5141:__ZN25SingleBlockMemoryFileData9SetLengthEy
5142:__ZNK25SingleBlockMemoryFileData4SizeEv
5143:__ZNK25SingleBlockMemoryFileData5CloneEv
5144:__ZN15FileSystemEntryC2Ev
5145:__ZN20ArchiveStorageReaderD2Ev
5146:__ZN20ArchiveStorageReaderD0Ev
5147:__ZN12HandlerChainD2Ev
5148:__ZN12HandlerChainD0Ev
5149:__ZN12HandlerChain4OpenER13FileEntryData14FilePermission16FileAutoBehavior
5150:__ZN12HandlerChain4ReadER13FileEntryDatayyPvPy
5151:__ZN12HandlerChain4ReadER13FileEntryDatayPvPy
5152:__ZN12HandlerChain4SeekER13FileEntryDatax10FileOrigin
5153:__ZNK12HandlerChain8PositionERK13FileEntryData
5154:__ZN12HandlerChain9SetLengthER13FileEntryDatay
5155:__ZNK12HandlerChain4SizeERK13FileEntryData
5156:__ZNK12HandlerChain9CanHandleEPKc
5157:__ZN12HandlerChain10ToAbsoluteEPKc
5158:__ZN12HandlerChain18IsAbsoluteFilePathEPKc
5159:__ZN12HandlerChain4NameEv
5160:__ZNK12HandlerChain6ParentERK13FileEntryDataRN4core12basic_stringIcNS3_20StringStorageDefaultIcEEEE
5161:__ZNK12HandlerChain8FilenameERK13FileEntryData
5162:__ZNK12HandlerChain5IsDirERK13FileEntryData
5163:__ZNK12HandlerChain8IsHiddenERK13FileEntryData
5164:__ZNK12HandlerChain9IsSymLinkERK13FileEntryData
5165:__ZNK12HandlerChain12LastModifiedERK13FileEntryData
5166:__ZN12HandlerChain8IsLockedERK13FileEntryData
5167:__ZN12HandlerChain11HasFastHashERK13FileEntryDataR7Hash128
5168:__ZN12HandlerChain8SetFlagsER13FileEntryDatajj
5169:__ZN12HandlerChain12CreateAsFileER13FileEntryData
5170:__ZN12HandlerChain11CreateAsDirER13FileEntryData
5171:__ZN12HandlerChain6DeleteER13FileEntryDatab
5172:__ZN12HandlerChain11MoveToTrashER13FileEntryData
5173:__ZNK12HandlerChain6TargetERK13FileEntryDataR15FileSystemEntry
5174:__ZN12HandlerChain4LockER13FileEntryData12FileLockMode
5175:__ZN12HandlerChain4CopyER13FileEntryDataS1_
5176:__ZN12HandlerChain10AtomicMoveER13FileEntryDataS1_
5177:__ZNK12HandlerChain12GetAssetGUIDERK13FileEntryData
5178:__ZN12HandlerChain9MakeLocalER13FileEntryDatab
5179:__ZNK12HandlerChain9EnumerateEPKcP13dynamic_arrayI13FileEntryInfoLj8EEbPPv19FileEnumerationFlag
5180:__ZNK12HandlerChain6ExistsERK13FileEntryData
5181:__ZN17ArchiveFileSystemC2EPKc
5182:__ZN15dense_hashtableINSt3__24pairIKN4core12basic_stringIcNS2_20StringStorageDefaultIcEEEEP20ArchiveStorageReaderEES6_20StringHash32FunctionIS6_EN14dense_hash_mapIS6_S9_SC_NS0_8equal_toIS6_EE13stl_allocatorISA_L18MemLabelIdentifier54ELi16EEE9SelectKeyESF_SI_E13set_empty_keyERKSA_
5183:__ZN14dense_hash_mapIN4core12basic_stringIcNS0_20StringStorageDefaultIcEEEEP20ArchiveStorageReader20StringHash32FunctionIS4_ENSt3__28equal_toIS4_EE13stl_allocatorINS9_4pairIKS4_S6_EEL18MemLabelIdentifier54ELi16EEE15set_deleted_keyERSE_
5184:__ZN17ArchiveFileSystemD2Ev
5185:__ZN17ArchiveFileSystemD0Ev
5186:__ZN17ArchiveFileSystem4OpenER13FileEntryData14FilePermission16FileAutoBehavior
5187:__ZN17ArchiveFileSystem4ReadER13FileEntryDatayyPvPy
5188:__ZN17ArchiveFileSystem4ReadER13FileEntryDatayPvPy
5189:__ZN17ArchiveFileSystem5WriteER13FileEntryDatayyPvPy
5190:__ZN17ArchiveFileSystem5WriteER13FileEntryDatayPvPy
5191:__ZN17ArchiveFileSystem5CloseER13FileEntryData
5192:__ZN17ArchiveFileSystem4SeekER13FileEntryDatax10FileOrigin
5193:__ZNK17ArchiveFileSystem8PositionERK13FileEntryData
5194:__ZNK17ArchiveFileSystem4SizeERK13FileEntryData
5195:__ZNK17ArchiveFileSystem9CanHandleEPKc
5196:__ZN17ArchiveFileSystem10ToAbsoluteEPKc
5197:__ZN17ArchiveFileSystem18IsAbsoluteFilePathEPKc
5198:__ZN17ArchiveFileSystem4NameEv
5199:__ZNK17ArchiveFileSystem6ParentERK13FileEntryDataRN4core12basic_stringIcNS3_20StringStorageDefaultIcEEEE
5200:__ZNK17ArchiveFileSystem5IsDirERK13FileEntryData
5201:__ZNK17ArchiveFileSystem12LastModifiedERK13FileEntryData
5202:__ZN17ArchiveFileSystem8SetFlagsER13FileEntryDatajj
5203:__ZN17FileSystemHandler10AtomicMoveER13FileEntryDataS1_
5204:__ZNK17ArchiveFileSystem9EnumerateEPKcP13dynamic_arrayI13FileEntryInfoLj8EEbPPv19FileEnumerationFlag
5205:__ZNK17ArchiveFileSystem6ExistsERK13FileEntryData
5206:__ZNK17ArchiveFileSystem14FindItemByPathEPKc
5207:__Z16FlaggedAsSkippedIN4core12basic_stringIcNS0_20StringStorageDefaultIcEEEEEbRK13FileEntryInfoRKT_19FileEnumerationFlag
5208:__ZN15ArchiveReadFileD2Ev
5209:__ZN15ArchiveReadFileD0Ev
5210:__ZN15ArchiveReadFile5CloseEv
5211:__ZN15ArchiveReadFile4ReadEyyPvPy
5212:__ZN15ArchiveReadFile5WriteEyyPKvPy
5213:__ZN15ArchiveReadFile5WriteEyPKvPy
5214:__ZN15ArchiveReadFile4SeekEx10FileOrigin
5215:__ZN15ArchiveReadFile9SetLengthEy
5216:__ZNK15ArchiveReadFile4SizeEv
5217:__ZN20ArchiveStorageReader4ReadEyyPvPy
5218:__ZN20ArchiveStorageReader9ReadBlockEjyyPvPy
5219:__ZN20ArchiveStorageReader31TryToReadDirectoryFromBlockDataEyPKvj
5220:__ZN20ArchiveStorageReader28TryReadDirectoryInfoFromFileEP5IFile
5221:__ZN25MultiBlocksMemoryFileDataC2E18MemLabelIdentifierj
5222:__ZN20ArchiveStorageReader15ReadFromStorageEyyPvPy
5223:__ZN20ArchiveStorageReader18AcquireCachedBlockEjj
5224:__ZN20ArchiveStorageReader28AcquireAndPrefillUnusedBlockEjPNS_11CacheResultE
5225:__ZN20ArchiveStorageReader21FillStreamCachedBlockEPNS_11CachedBlockE
5226:__ZN20ArchiveStorageReader17ReinitCachedBlockEPNS_11CachedBlockEj
5227:__ZN20ArchiveStorageReader20FillChunkCachedBlockEPNS_11CachedBlockE
5228:__ZNSt3__26__treeINS_12__value_typeIN4core12basic_stringIcNS2_20StringStorageDefaultIcEEEEN17ArchiveFileSystem11ArchiveItemEEENS_19__map_value_compareIS6_S9_NS_4lessIS6_EELb1EEE13stl_allocatorIS9_L18MemLabelIdentifier54ELi16EEE7destroyEPNS_11__tree_nodeIS9_PvEE
5229:__ZNSt3__26__treeINS_12__value_typeIPKvNS_4pairIjP20ArchiveStorageReaderEEEENS_19__map_value_compareIS3_S8_NS_4lessIS3_EELb1EEENS_9allocatorIS8_EEE7destroyEPNS_11__tree_nodeIS8_PvEE
5230:__ZN11TypeManager18InitializeAllTypesEv
5231:__ZN21ExecutionOrderManager15InitializeClassEv
5232:__ZN23ManagedAttributeManager15InitializeClassEv
5233:__Z26InitializeAsyncReadManagerv
5234:__ZN14MessageHandler10InitializeEP11TypeManagerPKN5Unity4TypeE
5235:__Z31ManagerContextInitializeClassesv
5236:__ZN19RenderBufferManager23InitRenderBufferManagerEv
5237:__ZN13ModuleManager3GetEv
5238:__ZN13ModuleManager4LoadEv
5239:__Z17InitScreenManagerv
5240:__ZN11TypeManager19CallInitializeTypesEv
5241:__Z23InitPlayerLoopCallbacksv
5242:__ZZ23InitPlayerLoopCallbacksvEN36InitializationPlayerUpdateTimestruct7ForwardEv
5243:__ZZ23InitPlayerLoopCallbacksvEN38EarlyUpdateExecuteMainThreadJobsstruct7ForwardEv
5244:__ZZ23InitPlayerLoopCallbacksvEN37EarlyUpdateProcessMouseInWindowstruct7ForwardEv
5245:__ZZ23InitPlayerLoopCallbacksvEN36EarlyUpdatePresentBeforeUpdatestruct7ForwardEv
5246:__ZZ23InitPlayerLoopCallbacksvEN44EarlyUpdateResetFrameStatsAfterPresentstruct7ForwardEv
5247:__ZZ23InitPlayerLoopCallbacksvEN41EarlyUpdateUpdateAllUnityWebStreamsstruct7ForwardEv
5248:__ZZ23InitPlayerLoopCallbacksvEN33EarlyUpdateUpdatePreloadingstruct7ForwardEv
5249:__ZZ23InitPlayerLoopCallbacksvEN40EarlyUpdateRendererNotifyInvisiblestruct7ForwardEv
5250:__ZZ23InitPlayerLoopCallbacksvEN40EarlyUpdatePlayerCleanupCachedDatastruct7ForwardEv
5251:__ZZ23InitPlayerLoopCallbacksvEN35EarlyUpdateUpdateInputManagerstruct7ForwardEv
5252:__ZZ23InitPlayerLoopCallbacksvEN33PreUpdateCheckTexFieldInputstruct7ForwardEv
5253:__ZZ23InitPlayerLoopCallbacksvEN34PostLateUpdateResetInputAxisstruct7ForwardEv
5254:__ZZ23InitPlayerLoopCallbacksvEN30PreUpdateSendMouseEventsstruct7ForwardEv
5255:__ZZ23InitPlayerLoopCallbacksvEN42PostLateUpdatePlayerSendFrameStartedstruct7ForwardEv
5256:__ZZ23InitPlayerLoopCallbacksvEN40PostLateUpdatePlayerUpdateCanvasesstruct7ForwardEv
5257:__ZZ23InitPlayerLoopCallbacksvEN46PostLateUpdateUpdateCustomRenderTexturesstruct7ForwardEv
5258:__ZZ23InitPlayerLoopCallbacksvEN38PostLateUpdateUpdateAllRenderersstruct7ForwardEv
5259:__ZZ23InitPlayerLoopCallbacksvEN44PostLateUpdatePlayerEmitCanvasGeometrystruct7ForwardEv
5260:__ZZ23InitPlayerLoopCallbacksvEN40PostLateUpdateFinishFrameRenderingstruct7ForwardEv
5261:__ZZ23InitPlayerLoopCallbacksvEN35PostLateUpdateBatchModeUpdatestruct7ForwardEv
5262:__ZZ23InitPlayerLoopCallbacksvEN43PostLateUpdatePlayerSendFrameCompletestruct7ForwardEv
5263:__ZZ23InitPlayerLoopCallbacksvEN46PostLateUpdatePlayerSendFramePostPresentstruct7ForwardEv
5264:__ZZ23InitPlayerLoopCallbacksvEN43PostLateUpdateUpdateCaptureScreenshotstruct7ForwardEv
5265:__ZZ23InitPlayerLoopCallbacksvEN36PostLateUpdatePresentAfterDrawstruct7ForwardEv
5266:__ZZ23InitPlayerLoopCallbacksvEN36PostLateUpdateUpdateResolutionstruct7ForwardEv
5267:__ZZ23InitPlayerLoopCallbacksvEN33PostLateUpdateInputEndFramestruct7ForwardEv
5268:__ZZ23InitPlayerLoopCallbacksvEN34PostLateUpdateGUIClearEventsstruct7ForwardEv
5269:__ZZ23InitPlayerLoopCallbacksvEN38PostLateUpdateShaderHandleErrorsstruct7ForwardEv
5270:__ZZ23InitPlayerLoopCallbacksvEN42PostLateUpdateMemoryFrameMaintenancestruct7ForwardEv
5271:__ZZ23InitPlayerLoopCallbacksvEN36PostLateUpdateProfilerEndFramestruct7ForwardEv
5272:__ZZ23InitPlayerLoopCallbacksvEN45EarlyUpdateScriptRunDelayedStartupFramestruct7ForwardEv
5273:__ZZ23InitPlayerLoopCallbacksvEN46FixedUpdateScriptRunBehaviourFixedUpdatestruct7ForwardEv
5274:__ZZ23InitPlayerLoopCallbacksvEN47FixedUpdateScriptRunDelayedFixedFrameRatestruct7ForwardEv
5275:__ZZ23InitPlayerLoopCallbacksvEN36UpdateScriptRunBehaviourUpdatestruct7ForwardEv
5276:__ZZ23InitPlayerLoopCallbacksvEN44UpdateScriptRunDelayedDynamicFrameRatestruct7ForwardEv
5277:__ZZ23InitPlayerLoopCallbacksvEN47PreLateUpdateScriptRunBehaviourLateUpdatestruct7ForwardEv
5278:__Z23GetLateBehaviourManagerv
5279:__Z19GetBehaviourManagerv
5280:__Z24GetFixedBehaviourManagerv
5281:__ZN13MemoryManager16FrameMaintenanceEb
5282:__ZN6Shader23HandleShadersWithErrorsEv
5283:__ZN9ShaderLab9IntShader27RemoveUnsupportedSubShadersEv
5284:__ZN8Material26ResetAllCachedMaterialDataEP6Shader
5285:__ZN9ShaderLab9IntShaderD2Ev
5286:__ZN9ShaderLab9IntShader27DeleteUnsupportedSubShadersEv
5287:__ZNSt3__26__treeINS_12__value_typeI11ShaderTagIDS2_EENS_19__map_value_compareIS2_S3_NS_4lessIS2_EELb1EEENS_9allocatorIS3_EEE7destroyEPNS_11__tree_nodeIS3_PvEE
5288:__ZN9ShaderLab4Pass7ReleaseEv
5289:__ZN9ShaderLab11ShaderStateD2Ev
5290:__ZN9ShaderLab9SubShader20IsSubShaderSupportedERKN4core12basic_stringIcNS1_20StringStorageDefaultIcEEEE
5291:__ZN9ShaderLab4Pass16SetupPassOptionsEv
5292:__ZN9ShaderLab4Pass15IsPassSupportedERKN4core12basic_stringIcNS1_20StringStorageDefaultIcEEEE
5293:__ZNK9ShaderLab11ShaderState22IsShaderStateSupportedEv
5294:__Z18GetGUIEventManagerv
5295:__ZN15GUIEventManager11ClearEventsEv
5296:__ZN12InputManager13InputEndFrameEv
5297:__Z20SetHasFrameToPresentb
5298:__Z15SetIsFirstFrameb
5299:__Z11IsBatchmodev
5300:__Z16PresentAfterDrawN9GfxDevice11PresentModeE
5301:__Z12IsFirstFramev
5302:__Z23UpdateCaptureScreenshotv
5303:__ZN6Camera25SetNormalizedViewportRectERK5RectTIfE
5304:__ZNK6Camera19GetProjectionMatrixEv
5305:__ZN6Camera19SetProjectionMatrixERK10Matrix4x4f
5306:__ZN13RenderManager13RenderCamerasEiPFvvE
5307:__Z21WriteImageAsyncThreadPv
5308:__ZN5Image13ReformatImageEii13TextureFormatN14ImageReference8BlitModeE
5309:__Z21ConvertImageToPNGFileRK14ImageReferenceRKN4core12basic_stringIcNS2_20StringStorageDefaultIcEEEE
5310:__Z23ConvertImageToPNGBufferRK14ImageReferenceR13dynamic_arrayIhLj1EE
5311:__Z16WriteBytesToFilePKvjRKN4core12basic_stringIcNS1_20StringStorageDefaultIcEEEE
5312:__ZN12FileAccessor5WriteEyPKvPy
5313:__ZL17WriteToBufferFuncPvPhj
5314:__Z24ConvertBufferToPNGBufferPKhjjj13TextureFormatPvPFvS2_PhjE
5315:_UNITY_png_create_write_struct
5316:_UNITY_png_create_info_struct
5317:_UNITY_png_destroy_write_struct
5318:_UNITY_png_set_longjmp_fn
5319:__ZL20PngWriteToMemoryFuncP14png_struct_defPhj
5320:_UNITY_png_set_write_fn
5321:_UNITY_png_set_compression_level
5322:_UNITY_png_set_IHDR
5323:_UNITY_png_write_info
5324:_UNITY_png_write_end
5325:_UNITY_png_write_row
5326:_UNITY_png_error
5327:_UNITY_png_write_start_row
5328:_UNITY_png_do_write_transformations
5329:_UNITY_png_do_check_palette_indexes
5330:_UNITY_png_write_find_filter
5331:_UNITY_png_compress_IDAT
5332:_UNITY_png_write_flush
5333:_UNITY_png_flush
5334:_UNITY_png_malloc
5335:_UNITY_png_free
5336:_UNITY_png_image_size
5337:_UNITY_png_deflate_claim
5338:_unity_z_deflate
5339:_UNITY_png_write_data
5340:_UNITY_png_reset_crc
5341:_UNITY_png_calculate_crc
5342:_UNITY_png_zstream_error
5343:_unity_z_crc32
5344:_unity_z_adler32
5345:_unity_z_tr_align
5346:_unity_z_tr_stored_block
5347:_deflate_stored
5348:_deflate_fast
5349:_deflate_slow
5350:_fill_window
5351:_longest_match
5352:_longest_match_fast
5353:_unity_z_tr_flush_block
5354:_build_tree
5355:_compress_block
5356:_send_tree
5357:_init_block
5358:_UNITY_png_safecat
5359:_unity_z_deflateEnd
5360:_unity_z_deflateInit2_
5361:_unity_z_deflateReset
5362:_unity_z_tr_init
5363:_unity_z_zcalloc
5364:_unity_z_zcfree
5365:_UNITY_png_do_strip_channel
5366:_UNITY_png_do_swap
5367:_UNITY_png_calloc
5368:_UNITY_png_longjmp
5369:_UNITY_png_benign_error
5370:_UNITY_png_write_iTXt
5371:_UNITY_png_write_zTXt
5372:_UNITY_png_write_tEXt
5373:_UNITY_png_write_IEND
5374:_UNITY_png_text_compress
5375:_UNITY_png_malloc_base
5376:_UNITY_png_chunk_error
5377:_UNITY_png_write_info_before_PLTE
5378:_UNITY_png_write_PLTE
5379:_UNITY_png_write_tRNS
5380:_UNITY_png_write_bKGD
5381:_UNITY_png_write_oFFs
5382:_UNITY_png_write_pCAL
5383:_UNITY_png_write_sCAL_s
5384:_UNITY_png_write_pHYs
5385:_UNITY_png_write_sPLT
5386:_UNITY_png_save_int_32
5387:_UNITY_png_app_warning
5388:_UNITY_png_write_sig
5389:_UNITY_png_write_IHDR
5390:_UNITY_png_write_gAMA_fixed
5391:_UNITY_png_write_iCCP
5392:_UNITY_png_write_sRGB
5393:_UNITY_png_write_sBIT
5394:_UNITY_png_write_cHRM_fixed
5395:_UNITY_png_check_IHDR
5396:_UNITY_png_default_write_data
5397:_UNITY_png_default_flush
5398:_UNITY_png_get_io_ptr
5399:_UNITY_png_malloc_warn
5400:_UNITY_png_destroy_info_struct
5401:_UNITY_png_free_buffer_list
5402:_UNITY_png_destroy_png_struct
5403:_UNITY_png_free_jmpbuf
5404:_UNITY_png_free_data
5405:_UNITY_png_create_png_struct
5406:_UNITY_png_set_mem_fn
5407:_UNITY_png_set_error_fn
5408:_UNITY_png_zalloc
5409:_UNITY_png_zfree
5410:__ZN5Image13ReformatImageERK14ImageReferenceii13TextureFormatNS0_8BlitModeE
5411:__ZN13RenderManager37RenderCamerasWithScriptableRenderLoopEi
5412:__Z16FindCameraStacksRKNSt3__24listI4PPtrI6CameraENS_9allocatorIS3_EEEERNS_6vectorI11CameraStackNS4_ISA_EEEE
5413:__ZN13RenderManager23AddRemoveCamerasDelayedEv
5414:__ZN25CameraStackRenderingState19BeginRenderingStackERK11CameraStackb
5415:__ZN25CameraStackRenderingState18EndStereoRenderingEv
5416:__ZN25CameraStackRenderingState16ReleaseResourcesEv
5417:__ZN13RendererScene17BeginCameraRenderEv
5418:__ZN25CameraStackRenderingState16SetCurrentCameraEP6Camera
5419:__ZN6Camera12RenderStereoENS_10RenderFlagE8CullFlagPNS_24PerformEyeRenderFunctionE
5420:__ZN6Camera4CullER11CullResults8CullFlag
5421:__ZN6Camera14UpdateVelocityEv
5422:__ZN6Camera6RenderER11CullResultsR17ShaderPassContextNS_10RenderFlagE
5423:__ZN6Camera26ClearIntermediateRenderersEj
5424:__ZN11CullResultsD2Ev
5425:__Z20SyncFenceCullResultsR11CullResults
5426:__ZN6Camera12CustomRenderER11CullResultsR17ShaderPassContextPK21CameraRenderingParamsNS_10RenderFlagEPNS_21PerformRenderFunctionE
5427:__ZN13RendererScene27SetPreventAddRemoveRendererEb
5428:__ZN6Camera18ApplyRenderTextureEv
5429:__ZN11CullResults30GetOrCreateSharedRendererSceneEv
5430:__ZNK6Camera28ExtractCameraRenderingParamsEv
5431:__ZN23ScriptableRenderContext23ShouldUseRenderPipelineEv
5432:__ZN23ScriptableRenderContext31ExtractAndExecuteRenderPipelineERK13dynamic_arrayIP6CameraLj4EE
5433:__ZN6Camera19UpdateDepthTexturesERK11CullResultsRK19SharedRendererSceneNS_10RenderFlagE
5434:__ZN25CameraStackRenderingState16GetTargetTextureEv
5435:__ZN6Camera11SetupRenderER17ShaderPassContextRK21CameraRenderingParamsNS_10RenderFlagE
5436:__ZN6Camera8DoRenderER11CullResultsRK19SharedRendererSceneNS_10RenderFlagEPNS_21PerformRenderFunctionE
5437:__ZN6Camera18DoRenderPostLayersEPK11CullResultsR17ShaderPassContextNS_10RenderFlagE
5438:__Z18RenderImageFiltersR10RenderLoopb
5439:__ZN6Camera16DoRenderGUILayerER17ShaderPassContextNS_10RenderFlagE
5440:__ZNK19RenderEventsContext21ExecuteCommandBuffersEijR17ShaderPassContextR15RenderNodeQueueP19ProfilerInformationi
5441:__ZN6Camera21CleanupAfterRenderingEPK11CullResults
5442:__ZNK19RenderEventsContext21CleanupCommandBuffersEv
5443:__Z22CleanupAfterRenderLoopR10RenderLoop
5444:__Z19ClearShadowMapCacheP14ShadowMapCache
5445:__ZNSt3__26__treeINS_12__value_typeIi17ShadowCachingDataEENS_19__map_value_compareIiS3_NS_4lessIiEELb1EEE13stl_allocatorIS3_L18MemLabelIdentifier64ELi16EEE7destroyEPNS_11__tree_nodeIS3_PvEE
5446:__ZN9ShaderLab23ClearGrabPassFrameStateEv
5447:__ZN22RenderingCommandBuffer20CleanupCommandBufferEv
5448:__ZN15RenderNodeQueueD2Ev
5449:__ZN15RenderNodeQueue7CleanupEv
5450:__ZN19AtomicPageAllocatorD2Ev
5451:__ZN22RenderingCommandBuffer20ExecuteCommandBufferER17ShaderPassContextR15RenderNodeQueuejP13dynamic_arrayINSt3__24pairIN9ShaderLab16FastPropertyNameEP13RenderTextureEELj4EE
5452:__ZN6Camera23GetBuiltinRenderTextureE24BuiltinRenderTextureType
5453:__ZN8Material9GetShaderEv
5454:__ZN22RenderingCommandBuffer36AcquireAndRegisterSharedMaterialDataEP8Material
5455:__Z17SetupObjectMatrixRK10Matrix4x4fi
5456:__ZN4Mesh10CreateMeshEv
5457:__ZN22PerThreadPageAllocator14AcquireNewPageEj
5458:__ZN17MeshRenderingData4InitEP4MeshS1_iP15SharedGfxBufferS3_
5459:__ZN8DrawUtil31CleanupDrawMeshRawFromNodeQueueER15RenderNodeQueuej
5460:__Z20ComputeTransformTypeRK10Matrix4x4ff
5461:__ZNK17MeshRenderingData30ExtractMeshBuffersAndDrawRangeE17ShaderChannelMaskiR11MeshBuffersR16DrawBuffersRangeb
5462:__ZN8DrawUtil14DrawProceduralE16GfxPrimitiveTypeii
5463:__ZN8DrawUtil22DrawProceduralIndirectE16GfxPrimitiveType15ComputeBufferIDj
5464:__ZN17InstancedPropInfo9BuildFromERKN9ShaderLab11SubProgramsE
5465:__ZNK17InstancedPropInfo15RenderInstancesERK19ShaderPropertySheetRK11MeshBuffersRK16DrawBuffersRange17ShaderChannelMask
5466:__ZN13ComputeShader13SetValueParamERKN9ShaderLab16FastPropertyNameEiPKv
5467:__ZN22RenderingCommandBuffer13GetAndCheckRTE24BuiltinRenderTextureTypeRKN9ShaderLab16FastPropertyNameEPKcPP13RenderTexture
5468:__ZN13ComputeShader15SetTextureParamEjRKN9ShaderLab16FastPropertyNameE9TextureID16TextureDimension
5469:__ZN13ComputeShader14SetBufferParamEjRKN9ShaderLab16FastPropertyNameE15ComputeBufferID
5470:__ZN13ComputeShader21DispatchComputeShaderEjiii
5471:__ZN13ComputeShader21DispatchComputeShaderEj15ComputeBufferIDj
5472:__ZN13ComputeBuffer9CopyCountEPS_S0_j
5473:__Z28EnsureRenderTextureIsCreatedP13RenderTexture
5474:__Z11CopyTextureP7TextureS0_
5475:__Z11CopyTextureP7TextureiS0_i
5476:__Z11CopyTextureP7TextureiiS0_ii
5477:__Z11CopyTextureP7TextureiiiiiiS0_iiii
5478:__ZN8Material11HasPropertyEN9ShaderLab16FastPropertyNameE
5479:__ZN12ImageFilters4BlitER17ShaderPassContextP7TextureP13RenderTexture
5480:__ZN12ImageFilters4BlitER17ShaderPassContextP7TextureP13RenderTexturePK18SharedMaterialDataPKcP6ShaderiNS_9BlitFlagsE11CubemapFaceRK8Vector2fSH_
5481:__ZN19ShaderPropertySheet9SetMatrixEN9ShaderLab16FastPropertyNameERK10Matrix4x4fNS_8SetFlagsE
5482:__ZN19ShaderPropertySheet16SetArrayPropertyEN9ShaderLab16FastPropertyNameENS_12PropertyTypeEPKvj
5483:__ZN19ShaderPropertySheet16SetComputeBufferEN9ShaderLab16FastPropertyNameE15ComputeBufferIDNS_8SetFlagsE
5484:__Z27SetClippingPlaneShaderPropsR9GfxDevice
5485:__ZN13RenderTexture21SetShadowSamplingModeE18ShadowSamplingMode
5486:__ZL22SetCurrentRenderTargetP13RenderTextureNS_14SetActiveFlagsE11CubemapFace
5487:__ZN19ShaderPropertySheet24SetTextureScaleAndOffsetEN9ShaderLab16FastPropertyNameE8Vector2fS2_
5488:__ZN14GraphicsHelper8DrawQuadER9GfxDevice17ShaderChannelMaskbRK5RectTIfE
5489:__ZNK6Camera18GetRenderRectangleEv
5490:__ZN12ImageFilters24GetBlitCopyDepthMaterialEv
5491:__ZN12ImageFilters19GetBlitCopyMaterialEb
5492:__ZNK19ShaderPropertySheet11HasPropertyERKN9ShaderLab16FastPropertyNameE
5493:__ZL28CheckCopyTextureMipArgumentsP7TextureiiS0_ii
5494:__ZN9Texture2D18UnshareTextureDataEv
5495:__Z26CalculateImageMipLevelSizeii13TextureFormatj
5496:__ZN13ComputeShader14BeforeDispatchEj
5497:__ZN13ComputeShader20GetCompatibleVariantE17GfxDeviceRendereri
5498:__ZN19ComputeShaderKernelC2ERKS_
5499:__ZNSt3__26vectorI15ComputeShaderCBNS_9allocatorIS1_EEEC2ERKS4_
5500:__ZNSt3__26vectorI20ComputeShaderVariantNS_9allocatorIS1_EEE21__push_back_slow_pathIKS1_EEvRT_
5501:__ZN19ComputeShaderKernelD2Ev
5502:__ZNSt3__26vectorI20ComputeShaderVariantNS_9allocatorIS1_EEE26__swap_out_circular_bufferERNS_14__split_bufferIS1_RS3_EE
5503:__ZNSt3__214__split_bufferI20ComputeShaderVariantRNS_9allocatorIS1_EEED2Ev
5504:__ZNK22RenderingCommandBuffer10FindTempRTERKN9ShaderLab16FastPropertyNameE
5505:__ZNK17InstancedPropInfo14FindPropertiesER13dynamic_arrayINS_12PropertyDataELj4EERjS3_S4_RK19ShaderPropertySheet
5506:__ZN19ShaderPropertySheet18ReserveValueBufferEj
5507:__ZN19ShaderPropertySheet29PreallocateArrayUninitializedEN9ShaderLab16FastPropertyNameENS_12PropertyTypeEj
5508:__ZN13sorted_vectorINSt3__24pairIiN17InstancedPropInfo12PropertyTypeEEEN10vector_mapIiS3_NS0_4lessIiEE13stl_allocatorIS4_L18MemLabelIdentifier1ELi16EEE13value_compareESA_E21sort_clear_duplicatesEv
5509:__ZNSt3__213__stable_sortIRN10vector_mapIiN17InstancedPropInfo12PropertyTypeENS_4lessIiEE13stl_allocatorINS_4pairIiS3_EEL18MemLabelIdentifier1ELi16EEE13value_compareENS_11__wrap_iterIPS8_EEEEvT0_SH_T_NS_15iterator_traitsISH_E15difference_typeEPNSK_10value_typeEi
5510:__ZNSt3__218__stable_sort_moveIRN10vector_mapIiN17InstancedPropInfo12PropertyTypeENS_4lessIiEE13stl_allocatorINS_4pairIiS3_EEL18MemLabelIdentifier1ELi16EEE13value_compareENS_11__wrap_iterIPS8_EEEEvT0_SH_T_NS_15iterator_traitsISH_E15difference_typeEPNSK_10value_typeE
5511:__ZNSt3__215__inplace_mergeIRN10vector_mapIiN17InstancedPropInfo12PropertyTypeENS_4lessIiEE13stl_allocatorINS_4pairIiS3_EEL18MemLabelIdentifier1ELi16EEE13value_compareENS_11__wrap_iterIPS8_EEEEvT0_SH_SH_T_NS_15iterator_traitsISH_E15difference_typeESL_PNSK_10value_typeEi
5512:__ZNK17MeshRenderingData18ExtractMeshBuffersE17ShaderChannelMaskR11MeshBuffersbb
5513:__ZN17MeshRenderingData7ReleaseEv
5514:__ZN19AtomicPageAllocator12AllocatePageEj
5515:__Z11FormatBytesx
5516:__Z12FormatStringPKcz
5517:__Z13VFormatBufferPciPKcPi
5518:__ZN4Mesh15UnshareMeshDataEv
5519:__Z27ConvertSubMeshesToTrianglesR13dynamic_arrayI7SubMeshLj4EERS_ItLj2EE
5520:__ZN23SharedMeshRenderingData18UnloadVertexStreamEi
5521:__ZN23SharedMeshRenderingData25CreateOrUpdateIndexBufferERK13GfxBufferDescPKv20GfxUpdateBufferFlags
5522:__ZN23SharedMeshRenderingData17UnloadIndexBufferEv
5523:__ZN18VertexChannelsInfoC2ERA8_K11ChannelInfo
5524:__ZN13MemoryManager27GetCorrespondingThreadLabelE18MemLabelIdentifier
5525:__ZN14SharedMeshDataC2ERKS_
5526:__ZN16MeshSkinningDataC2ERKS_
5527:__ZN10VertexDataC2ERKS_17ShaderChannelMask18MemLabelIdentifier
5528:__ZN14VertexDataInfo13UpdateStreamsEj17ShaderChannelMaskS0_RK19VertexStreamsLayoutRK20VertexChannelsLayout
5529:__ZL12CopyChannelsj17ShaderChannelMaskRA4_K10StreamInfoRA8_K11ChannelInfoPKhS3_S7_Ph
5530:__Z43IsVertexFormatCompatibleWithDynamicBatchingRK14VertexDataInfo
5531:__ZN14SharedMeshDataD2Ev
5532:__ZN14SharedMeshDataD0Ev
5533:__ZN10VertexDataD2Ev
5534:__ZN8Material25AcquireSharedMaterialDataEv
5535:__ZN22PerThreadPageAllocatorC2ER19AtomicPageAllocator
5536:__ZN15RenderNodeQueueC2E18MemLabelIdentifier
5537:__ZN19AtomicPageAllocatorC2EPKc18MemLabelIdentifier
5538:__ZN8GUILayer14RenderGUILayerE5RectTIfEjR17ShaderPassContext
5539:__ZN11delayed_setI4PPtrI10GUIElementENSt3__23setIS2_NS3_4lessIS2_EE11memory_poolIS2_EEEE13apply_delayedEv
5540:__ZNSt3__26vectorIP10GUIElement13stl_allocatorIS2_L18MemLabelIdentifier1ELi16EEE18__construct_at_endINS_21__tree_const_iteratorI4PPtrIS1_EPNS_11__tree_nodeISA_PvEEiEEEENS_9enable_ifIXsr21__is_forward_iteratorIT_EE5valueEvE4typeESH_SH_j
5541:__Z14SortGUIByDepthP10GUIElementS0_
5542:__ZNSt3__26__sortIRPFbP10GUIElementS2_EPS2_EEvT0_S7_T_
5543:__ZNK9Transform16GetLocalPositionEv
5544:__ZNSt3__26__treeI4PPtrI10GUIElementENS_4lessIS3_EE11memory_poolIS3_EE5eraseENS_21__tree_const_iteratorIS3_PNS_11__tree_nodeIS3_PvEEiEE
5545:__ZNK12ImageFilters23ApplyAfterOpaqueFiltersEv
5546:__ZNK12ImageFilters28ApplyAfterTransparentFiltersEv
5547:__ZN6Camera11SetupRenderER17ShaderPassContextNS_10RenderFlagE
5548:__ZNK25CameraStackRenderingState27GetStereoImageEffectTextureEb
5549:__ZNK19StereoRenderTexture13GetEyeTextureE15StereoscopicEye
5550:__ZNK25CameraStackRenderingState21GetImageEffectTextureEb
5551:__ZNK12ImageFilters8DoRenderER17ShaderPassContextP13RenderTextureS3_NSt3__26vectorI11ImageFilterNS4_9allocatorIS6_EEEE
5552:__ZNK25CameraStackRenderingState25GetAfterFinalCameraTargetEv
5553:__ZL13DiscardTargetP13RenderTexture
5554:__Z13IsHDRRTFormat19RenderTextureFormat
5555:__ZN19RenderBufferManager13GetTempBufferEii17DepthBufferFormat19RenderTextureFormatji22RenderTextureReadWrite14VRTextureUsagei
5556:__ZN10Matrix4x4f8SetScaleERK8Vector3f
5557:__ZNK9Transform28GetWorldToLocalMatrixNoScaleEv
5558:__ZN11HaloManager11RenderHalosEPK11CullResultsR17ShaderPassContextRK10Matrix4x4f
5559:__ZN12FlareManager12RenderFlaresERK10Matrix4x4f
5560:__ZN13RenderManager29InvokeOnRenderObjectCallbacksEv
5561:__ZN13MonoBehaviour20InvokeOnRenderObjectEv
5562:__ZN13MonoBehaviour30InvokeMethodOrCoroutineCheckedE18ScriptingMethodPtr18ScriptingObjectPtr
5563:__ZN13MonoBehaviour30InvokeMethodOrCoroutineCheckedE18ScriptingMethodPtr18ScriptingObjectPtrP21ScriptingExceptionPtr
5564:__Z11IsCoroutine18ScriptingMethodPtrRK22CommonScriptingClasses
5565:__ZN13MonoBehaviour24TryCreateAndRunCoroutineE18ScriptingObjectPtr18ScriptingMethodPtrPP9Coroutine
5566:__Z35scripting_object_get_virtual_method18ScriptingObjectPtr18ScriptingMethodPtr
5567:__ZN9Coroutine17SetMoveNextMethodE18ScriptingMethodPtr
5568:__ZN9Coroutine16SetCurrentMethodE18ScriptingMethodPtr
5569:__ZN9Coroutine3RunEPb
5570:__ZN9Coroutine16CleanupCoroutineEPv
5571:__ZN14AsyncOperation20SetCoroutineCallbackEPF15CallObjectStateP6ObjectPvES2_S3_PFS0_S3_E
5572:__ZN9Coroutine14InvokeMoveNextEP21ScriptingExceptionPtr
5573:__ZN9Coroutine23ProcessCoroutineCurrentEv
5574:__ZN9Coroutine17ContinueCoroutineEP6ObjectPv
5575:__Z11CallDelayedPF15CallObjectStateP6ObjectPvE4PPtrIS0_EfS2_fPFS_S2_EN18DelayedCallManager15DelayedCallModeE
5576:__ZN9Coroutine35HandleIEnumerableCurrentReturnValueE18ScriptingObjectPtr
5577:__ZN3WWW12CallWhenDoneEPF15CallObjectStateP6ObjectPvES2_S3_PFS0_S3_E
5578:__ZN12WWWDelayCall8CallbackEP6ObjectPv
5579:__ZN12WWWDelayCall7CleanupEPv
5580:__ZN12WWWDelayCall14MatchForCancelEPvS0_
5581:__ZN18DelayedCallManager17CancelCallDelayedE4PPtrI6ObjectEPF15CallObjectStatePS1_PvEPFbS5_S5_ES5_
5582:__ZN18DelayedCallManager6RemoveERKNS_8CallbackENSt3__221__tree_const_iteratorIS0_PNS3_11__tree_nodeIS0_PvEEiEE
5583:__ZN18ScriptingArguments9AddIntPtrEPv
5584:__ZN9CoroutineC2Ev
5585:__Z23scripting_type_get_type16ScriptingTypePtr
5586:__Z20scripting_object_new17ScriptingClassPtr
5587:__ZNK21BuiltinShaderSettings22CreateMaterialIfNeededEPP8Materiali
5588:__ZNK6Shader23GetActiveSubShaderIndexEv
5589:__ZN13RenderManager16GetCurrentCameraEv
5590:__ZN12FlareManager6UpdateEv
5591:__ZN12FlareManager17RenderGeometryJobEP25DynamicVBOGeometryJobDataj
5592:__ZN12FlareManager21ReleaseGeometryJobMemEP25DynamicVBOGeometryJobData
5593:__ZN14RenderSettings13CalcFogFactorEff
5594:__Z23SetupStereoFlareElementP11FlareVertexRK8Vector2fS3_S3_RK11ColorRGBA32RK10Matrix4x4fRK8Vector3fb
5595:__Z20LookRotationToMatrixRK8Vector3fS1_P10Matrix3x3f
5596:__ZN12FlareManager9UpdateJobEP25FlareManagerUpdateJobData
5597:__ZNK6Camera18WorldToScreenPointERK8Vector3fPb
5598:__Z31ScheduleDifferentJobsConcurrentR8JobFencePK3Jobi11JobPriority
5599:__ZNK6Camera20GetWorldToClipMatrixEv
5600:__Z13CameraProjectRK8Vector3fRK10Matrix4x4fS4_RK5RectTIiERS_b
5601:__Z19GetRaycastInterfacev
5602:__ZN8Material9SetShaderEP6Shader
5603:__ZN11HaloManager17RenderGeometryJobEP25DynamicVBOGeometryJobDataj
5604:__Z28GetHaloVertexPositionsStereoP8Vector3fRKS_S2_f
5605:__Z34CalculateGlobalPositionAndRotation23TransformAccessReadOnlyRKN4math7_float3ERKNS0_7_float4E
5606:__Z27InitializeRenderLoopContextP6CameraRK19SharedRendererSceneP10RenderLoop
5607:__ZNK6Camera32ResolveLastTargetToCurrentTargetEv
5608:__ZN6Camera21PostMultiCustomRenderENS_10RenderFlagEb
5609:__ZN17RenderLoopContextD2Ev
5610:__ZN17RenderLoopContextD0Ev
5611:__ZN6Camera20SetCameraShaderPropsER17ShaderPassContextRK21CameraRenderingParams
5612:__ZN21BillboardBatchManager23SetBillboardShaderPropsER16ShaderKeywordSetR24BuiltinShaderParamValuesbRK10Matrix4x4fRK8Vector3f
5613:__ZL28CalculateBillboardPropertiesRK10Matrix4x4fR8Vector3fS3_Rf
5614:__ZN10Matrix4x4f9TransposeEv
5615:__ZNK19StereoRenderTexture7IsEmptyEv
5616:__ZN19StereoRenderTexture12AllocateTempER17RenderTextureDesc
5617:__ZNK6Camera22CalculateRenderingPathEv
5618:__Z16ShouldUseShadowsb
5619:__ZN6Camera18RenderDepthTextureERK11CullResultsRK19SharedRendererSceneR17ShaderPassContextNS_10RenderFlagE
5620:__ZN6Camera25RenderDepthNormalsTextureERK11CullResultsRK19SharedRendererSceneR17ShaderPassContextNS_10RenderFlagE
5621:__Z28RenderSceneShaderReplacementRK19SharedRendererSceneP6ShaderRKN4core12basic_stringIcNS4_20StringStorageDefaultIcEEEER17ShaderPassContext
5622:__ZN15ReplacementPass7PrepareER6CameraRK15RenderNodeQueueRK17ShaderReplaceData
5623:__ZN15ReplacementPass16PerformRenderingER17ShaderPassContext
5624:__ZN14qsort_internal18QSortSingleJobDataIP17RODataReplacementi19ROSorterReplacementE7SortJobEPS4_
5625:__Z26ScheduleJobDependsInternalR8JobFencePFvPvES1_RKS_11JobPriority
5626:__ZL18ReplacementPassJobPN21GfxDeviceAsyncCommand10ArgScratchEPKNS_3ArgE
5627:__ZN29DepthOrReplacementPassScratchD2Ev
5628:__ZN29DepthOrReplacementPassScratchD0Ev
5629:__ZN21GfxDeviceAsyncCommand10ArgScratch15ThreadedCleanupEv
5630:__ZN13BatchRendererD2Ev
5631:__Z12SetupLODFadeR9GfxDeviceR17ShaderPassContextf
5632:__Z21SetupOddNegativeScaleR9GfxDeviceb
5633:__ZN13BatchRenderer20RenderSingleWithPassER17ShaderPassContextPK18SharedMaterialDataP6ShaderPN9ShaderLab4PassEiPKNS7_10GrabPassesEjib15BatchBreakCause
5634:__ZN17InstancedPropInfo5ClearEv
5635:__Z37ApplyMaterialPassAndKeywordsWithCacheRK18SharedMaterialDataR17ShaderPassContextP6ShaderPN9ShaderLab4PassEibPKNS6_10GrabPassesEPNS6_11SubProgramsE
5636:__ZN20DynamicPropertySheet10FlushQueueEv
5637:__ZN20DynamicPropertySheetD2Ev
5638:__ZN20DynamicPropertySheetD0Ev
5639:__ZNK20DynamicPropertySheet7IsDirtyEv
5640:__ZN13BatchRendererC2ER15RenderLoopStatsRK15RenderNodeQueuebb
5641:__ZN14qsort_internal5QSortIP17RODataReplacementi19ROSorterReplacementEEvT_S4_T0_T1_
5642:__ZN14qsort_internal13Partition3WayIP17RODataReplacementi19ROSorterReplacementEENSt3__24pairIT_S6_EES6_S6_T0_T1_
5643:__ZNSt3__211__sift_downIR19ROSorterReplacementP17RODataReplacementEEvT0_S5_T_NS_15iterator_traitsIS5_E15difference_typeES5_
5644:__ZN14qsort_internal30FindAndMovePivotToLastPositionIP17RODataReplacementi19ROSorterReplacementEEvT_S4_T0_T1_
5645:__ZN14qsort_internal17MedianOfThreeSwapIP17RODataReplacement19ROSorterReplacementEEvT_S4_S4_T0_
5646:__ZNK6Camera22GetWorldToCameraMatrixEv
5647:__ZN15ReplacementPass13PrepareSubsetEjRK10RenderNodeifRK17ShaderReplaceData
5648:__Z28CalculateSubShaderIndexToUsePK6ShaderRK17ShaderReplaceDataRK18SharedMaterialData
5649:__ZNK9ShaderLab9IntShader6GetTagE11ShaderTagIDb
5650:__ZNK6Shader24GetSubShaderWithTagValueE11ShaderTagIDS0_
5651:__ZN15ReplacementPassD2Ev
5652:__ZN15ReplacementPassD0Ev
5653:__Z20RenderSceneDepthPassRK19SharedRendererSceneRK17ShaderReplaceDatabR17ShaderPassContext
5654:__ZN9DepthPass7PrepareER6CameraRK15RenderNodeQueueRK17ShaderReplaceDatab
5655:__ZN9DepthPass16PerformRenderingER17ShaderPassContext
5656:__ZN14qsort_internal18QSortSingleJobDataIP15RODataDepthPassi17ROSorterDepthPassE7SortJobEPS4_
5657:__ZL12DepthPassJobPN21GfxDeviceAsyncCommand10ArgScratchEPKNS_3ArgE
5658:__Z18SetShadowsKeywordsR17ShaderPassContext9LightType10ShadowType16ShadowProjectionbb
5659:__ZN13BatchRenderer12EndLoopFlushEv
5660:__ZNK6Shader24GetShadowCasterPassToUseEiRi
5661:__ZN12LODFadeCache14ApplyValueOnlyEf
5662:__ZNK17InstancedPropInfo14IsInstanceableERK19ShaderPropertySheet
5663:__ZN13BatchRenderer5FlushE15BatchBreakCause
5664:__Z19SetupLODFadeKeywordR17ShaderPassContexti
5665:__ZN13BatchRenderer15ApplyShaderPassER17ShaderPassContextPK18SharedMaterialDataP6ShaderPN9ShaderLab4PassEi13BatchingFlagsbPKNS7_10GrabPassesE
5666:__ZN13BatchRenderer3AddERK17BatchInstanceData
5667:__ZN20DynamicPropertySheet15SetVectorQueuedERKN9ShaderLab16FastPropertyNameERK8Vector4fN19ShaderPropertySheet8SetFlagsE
5668:__ZN20DynamicPropertySheet14SetValueQueuedEN9ShaderLab16FastPropertyNameEN19ShaderPropertySheet12PropertyTypeEjNS2_8SetFlagsE
5669:__ZN12LODFadeCacheC2ER13BatchRenderer
5670:__ZN14qsort_internal5QSortIP15RODataDepthPassi17ROSorterDepthPassEEvT_S4_T0_T1_
5671:__ZN14qsort_internal30FindAndMovePivotToLastPositionIP15RODataDepthPassi17ROSorterDepthPassEEvT_S4_T0_T1_
5672:__ZN9DepthPass13PrepareSubsetEjRK10RenderNodeifRK17ShaderReplaceData
5673:__ZN9DepthPassD2Ev
5674:__ZN9DepthPassD0Ev
5675:__ZN15QualitySettings29GetShadowDistanceForRenderingEv
5676:__ZN9Scripting32GetScriptingWrapperForInstanceIDEi
5677:__ZN23ScriptableRenderContextC2Ev
5678:__Z36CreateScriptingArrayFromUnityObjectsI13dynamic_arrayIP6CameraLj4EEE17ScriptingArrayPtrRKT_17ScriptingClassPtr
5679:__ZN18ScriptingArguments8AddArrayE17ScriptingArrayPtr
5680:__ZN23ScriptableRenderContextD2Ev
5681:__ZN22RenderingCommandBuffer23CleanupTemporaryRTArrayER13dynamic_arrayINSt3__24pairIN9ShaderLab16FastPropertyNameEP13RenderTextureEELj4EE
5682:__Z19scripting_array_new17ScriptingClassPtrjj
5683:__Z21GetScriptingArraySize17ScriptingArrayPtr
5684:__ZN9Scripting34SetScriptingArrayObjectElementImplE17ScriptingArrayPtri18ScriptingObjectPtr
5685:__Z27scripting_array_element_ptr17ScriptingArrayPtrij
5686:__ZN22PerThreadPageAllocator10InitializeER19AtomicPageAllocator
5687:__ZN22PerThreadPageAllocatorC2Ev
5688:__Z22ExtractRenderNodeQueueRK11CullResults15ExtractionFlagsR15RenderNodeQueue
5689:__Z16CopyActiveLightsRK12ActiveLightsRS_
5690:__Z22CullAllPerObjectLightsiRK15RenderNodeQueueRK12ActiveLightsR27PerObjectLightCullingOutput
5691:__Z19GetReflectionProbesv
5692:__ZN23ReflectionProbesContext8CopyFromERKS_
5693:__ZN28LightProbeProxyVolumeContext8CopyFromERKS_
5694:__ZNK16LightmapSettings17AcquireSharedDataEv
5695:__Z22GetSortingGroupManagerv
5696:__ZN19SortingGroupManager6CopyToER13dynamic_arrayI16SortingGroupDataLj4EE
5697:__ZL25CullAllPerObjectLightsJobP29CullAllPerObjectLightsJobDataj
5698:__ZL32CullAllPerObjectLightsCombineJobP29CullAllPerObjectLightsJobData
5699:__ZN13dynamic_arrayI11CulledLightLj4EE6insertEPS0_PKS0_S4_
5700:__Z29HasBakedDirectLightInLightmap21LightmapModeForRender
5701:__ZL8AddLightRK12ActiveLightsRK8Vector3fiR13dynamic_arrayI11CulledLightLj4EE
5702:__ZL17IsSpotLightCulledRK11ActiveLightibRK4AABBS4_RK10Matrix4x4f
5703:__Z19IntersectAABBSphereRK4AABBRK6Sphere
5704:__Z30IntersectTransformedAABBSphereRK4AABBRK10Matrix4x4f13TransformTypeRK6Sphere
5705:__ZNSt3__26__sortIRNS_6__lessI11CulledLightS2_EEPS2_EEvT0_S6_T_
5706:__ZNSt3__27__sort4IRNS_6__lessI11CulledLightS2_EEPS2_EEjT0_S6_S6_S6_T_
5707:__ZNSt3__227__insertion_sort_incompleteIRNS_6__lessI11CulledLightS2_EEPS2_EEbT0_S6_T_
5708:__ZN10Matrix4x4f8SetBasisERK8Vector3fS2_S2_
5709:__Z17IntersectAABBAABBRK4AABBS1_
5710:__ZN10Matrix4x4f19SetPerspectiveCotanEfff
5711:__Z24IntersectAABBFrustumFullRK4AABBPK5Plane
5712:__Z20LightAttenuateApproxRKfS0_
5713:__Z21GetRenderModeSortBias15LightRenderMode
5714:__Z26BeginRenderQueueExtractionR15RenderNodeQueuePK16RendererCullDataRK13CullingOutputPK12LODDataArray15ExtractionFlagsP18JobBatchDispatcher
5715:__Z24EndRenderQueueExtractionP29RenderNodeQueuePrepareContext
5716:__ZL40PrepareRenderNodesOnMainThreadDeprecatedR35RenderNodeQueuePrepareThreadContext
5717:__ZN9Projector17PrepareRenderNodeEjjPS_R15RenderNodeQueueR22PerThreadPageAllocator
5718:__ZNK6Camera20GetReplacementShaderEv
5719:__ZN9Projector22SetupProjectorSettingsEP8MaterialR23ProjectorRenderSettings
5720:__Z16Projector_RenderRK15RenderNodeQueuejR17ShaderPassContext
5721:__Z17Projector_CleanupR15RenderNodeQueuej
5722:__ZN10Matrix4x4f14SetPerspectiveEffff
5723:__ZN15LODGroupManager16CalculateLODFadeEjhf
5724:__ZN29RenderNodeQueuePrepareContextC2Ev
5725:__ZL21ExecuteRenderQueueJobP29RenderNodeQueuePrepareContextj
5726:__ZL20CopyNodesIntoJobGapsP29RenderNodeQueuePrepareContext
5727:__ZN18JobBatchDispatcher26ScheduleJobForEachInternalER8JobFencePFvPvjES2_iPFvS2_ERKS0_
5728:__Z16RecordForEachJobPFvPvjES_jPFvS_ER21SingleThreadedJobInfo
5729:__ZL35PrepareRenderNodesQueueToMainThreadR35RenderNodeQueuePrepareThreadContext
5730:__Z28QueuePrepareNodeToMainThreadR35RenderNodeQueuePrepareThreadContext
5731:__ZN28LightProbeProxyVolumeContextC2E18MemLabelIdentifier
5732:__ZN16ReflectionSampleC2Ev
5733:__ZN19SharedRendererSceneD2Ev
5734:__ZN19SharedRendererSceneD0Ev
5735:__ZN6Camera28DefaultPerformRenderFunctionclEPS_13RenderingPathP11CullResults
5736:__Z12DoRenderLoopR10RenderLoop13RenderingPathR11CullResultsR14ShadowMapCacheb
5737:__ZN10RenderLoop12PrepareFrameEbb
5738:__Z19EvaluateObjectDepthRK17RenderLoopContextRK4AABBfRfS5_
5739:__ZNK9ShaderLab9IntShader14GetRenderQueueEi
5740:__Z19DoPrePassRenderLoopR17RenderLoopContextR13dynamic_arrayI16RenderObjectDataLj4EES4_RK11CullResultsRP13RenderTextureSA_Pb
5741:__ZL44RenderRemainingObjectsThatCantHandleDeferred13RenderingPathR17RenderLoopContextRK11CullResultsbP13RenderTextureS6_R13dynamic_arrayI16RenderObjectDataLj4EE
5742:__Z20DoDeferredRenderLoopR17RenderLoopContextR13dynamic_arrayI16RenderObjectDataLj4EES4_RK11CullResultsRP13RenderTextureSA_Pb
5743:__Z25DoForwardShaderRenderLoopR17RenderLoopContextR13dynamic_arrayI16RenderObjectDataLj4EERK11CullResultsbbbN6Camera10RenderFlagE
5744:__ZN6Camera12RenderSkyboxEv
5745:__Z24DoMotionVectorRenderLoopR17RenderLoopContext
5746:__ZNK6Camera30GetNonJitteredProjectionMatrixEv
5747:__ZL25UpdateCameraDepthTexturesR17RenderLoopContextP13RenderTextureS2_RK13dynamic_arrayI16RenderObjectDataLj4EEbbbR17ShaderPassContext
5748:__Z20RenderSceneDepthPassRK13dynamic_arrayI16RenderObjectDataLj4EERK19SharedRendererSceneRK17ShaderReplaceDatabR17ShaderPassContext
5749:__ZN16GraphicsSettings24GetBuiltinShaderSettingsENS_17BuiltinShaderTypeE
5750:__ZN15ReplacementPass7PrepareER6CameraRK13dynamic_arrayI16RenderObjectDataLj4EERK15RenderNodeQueueRK17ShaderReplaceData
5751:__ZN9DepthPass7PrepareER6CameraRK13dynamic_arrayI16RenderObjectDataLj4EERK15RenderNodeQueueRK17ShaderReplaceDatab
5752:__Z21SupportsMotionVectorsv
5753:__ZNK6Shader11IsSupportedEv
5754:__ZN25CameraStackRenderingState20GetOrCreateBuiltinRTE24BuiltinRenderTextureTypeii17DepthBufferFormat19RenderTextureFormatj22RenderTextureReadWrite14VRTextureUsagei
5755:__ZNK6Camera16GetProjectionFarEv
5756:__ZN8Material9SetMatrixEN9ShaderLab16FastPropertyNameERK10Matrix4x4f
5757:__ZNK6Camera17GetProjectionNearEv
5758:__Z20RenderFullScreenQuadR9GfxDeviceRK6Camera17ShaderChannelMaskRK5RectTIfEf21MonoOrStereoscopicEye
5759:__ZN14qsort_internal18QSortSingleJobDataIP18RPDataMotionVectoriN22MotionVectorRenderLoop18RenderObjectSorterEE7SortJobEPS5_
5760:__ZN22MotionVectorRenderLoop16PerformRenderingER8JobFence
5761:__Z20CompareApproximatelyRK10Matrix4x4fS1_f
5762:__ZL25MotionVectorRenderLoopJobPN21GfxDeviceAsyncCommand10ArgScratchEPKNS_3ArgE
5763:__ZN29MotionVectorRenderLoopScratchD2Ev
5764:__ZN29MotionVectorRenderLoopScratchD0Ev
5765:__ZN29MotionVectorRenderLoopScratch15ThreadedCleanupEv
5766:__ZN14qsort_internal5QSortIP18RPDataMotionVectoriN22MotionVectorRenderLoop18RenderObjectSorterEEEvT_S5_T0_T1_
5767:__ZN14qsort_internal13Partition3WayIP18RPDataMotionVectoriN22MotionVectorRenderLoop18RenderObjectSorterEEENSt3__24pairIT_S7_EES7_S7_T0_T1_
5768:__ZNSt3__211__sift_downIRN22MotionVectorRenderLoop18RenderObjectSorterEP18RPDataMotionVectorEEvT0_S6_T_NS_15iterator_traitsIS6_E15difference_typeES6_
5769:__ZN14qsort_internal13InsertionSortIP18RPDataMotionVectorN22MotionVectorRenderLoop18RenderObjectSorterEEEvT_S5_T0_
5770:__ZN14qsort_internal30FindAndMovePivotToLastPositionIP18RPDataMotionVectoriN22MotionVectorRenderLoop18RenderObjectSorterEEEvT_S5_T0_T1_
5771:__ZN14qsort_internal17MedianOfThreeSwapIP18RPDataMotionVectorN22MotionVectorRenderLoop18RenderObjectSorterEEEvT_S5_S5_T0_
5772:__ZN22MotionVectorRenderLoopD2Ev
5773:__ZN22MotionVectorRenderLoopD0Ev
5774:__ZN27DeviceViewProjMatricesStateD2Ev
5775:__ZNK6Camera21ViewportToCameraPointERK8Vector3f
5776:__ZN27DeviceViewProjMatricesStateC2ER9GfxDevice
5777:__ZNK6Camera17GetSkyboxMaterialEv
5778:__ZN6Skybox12RenderSkyboxEP8MaterialRK6Camera
5779:__ZNK6Camera6GetFarEv
5780:__ZNK6Camera11GetPositionEv
5781:__ZNK6Camera7GetNearEv
5782:__ZNK6Camera25GetSkyboxProjectionMatrixEfR10Matrix4x4f
5783:__ZN6Skybox8SetupSunERK6CameraR9GfxDevice
5784:__ZNK8Material12GetPassCountEv
5785:__ZN6Skybox16RenderSingleFaceEP8Materiali
5786:__ZN6Skybox14RenderAllFacesEP8Material
5787:__ZN15SkyboxGenerator18GetCubemapSkyboxVBEv
5788:__Z30AddDefaultStreamsToMeshBuffersR9GfxDeviceR11MeshBuffersRK16DrawBuffersRange17ShaderChannelMaskS6_
5789:__ZNK14RenderSettings6GetSunEv
5790:__Z28SetupVertexLightShaderParamsiPK14GfxVertexLightR17ShaderPassContext
5791:__ZN28ApplyBuiltinInstanceProperty4InitER9GfxDevice
5792:__Z14SetSHConstantsR28ApplyBuiltinInstancePropertyRK20SphericalHarmonicsL2
5793:__ZN28ApplyBuiltinInstanceProperty23PerformSubmitPropertiesEv
5794:__Z16ApplySHConstantsI28ApplyBuiltinInstancePropertyEvRT_RK20SphericalHarmonicsL2
5795:__ZN20SphericalHarmonicsL234GetShaderConstantsFromNormalizedSHERKS_RA7_8Vector4f
5796:__Z29FindBrightestDirectionalLightb
5797:__ZNK15SharedLightData29GetLightmappingMaskForRuntimeEv
5798:__ZN10Matrix4x4f16AdjustDepthRangeEfff
5799:__ZNK6Skybox11GetMaterialEv
5800:__ZNK6Camera21CalculateCanDoShadowsEv
5801:__Z23GetCurrentRenderOptionsv
5802:__ZN23ForwardShaderRenderLoop17PrepareShadowMapsEPK11ActiveLightRK11CullResults
5803:__Z30IsUsingLightProbesForRenderingRK18SharedRendererDatabb
5804:__Z33CalculateLightShadowCenterAndTypeRK13ShadowJobDataR8Vector4fRfS4_
5805:__Z24CalculateLightShadowFadeRK6CamerafffR8Vector4f
5806:__Z26FindForwardLightsForObjectR13dynamic_arrayIhLj1EEPK11CulledLightjRK12ActiveLightsRK10RenderNodebRK23FindForwardLightsParamsf
5807:__Z25IsObjectWithinShadowRangeRK13ShadowJobDataRK4AABB
5808:__ZL24PutAdditionalShadowLightRK4AABBRK11ActiveLightRK10Matrix4x4ffR13dynamic_arrayI16ForwardShadowMapLj4EE
5809:__ZN9ShaderLab10GrabPasses3AddEPNS_4PassEPK6Camera
5810:__ZN14qsort_internal18QSortSingleJobDataIP21ForwardRenderPassDataiN23ForwardShaderRenderLoop18RenderObjectSorterILb1EEEE7SortJobEPS6_
5811:__ZN14qsort_internal18QSortSingleJobDataIP21ForwardRenderPassDataiN23ForwardShaderRenderLoop18RenderObjectSorterILb0EEEE7SortJobEPS6_
5812:__ZN23ForwardShaderRenderLoop16PerformRenderingER8JobFencePK11ActiveLightRK13ShadowJobDatabbbN6Camera10RenderFlagE
5813:__ZN23ForwardShaderRenderLoop23RenderForwardShadowMapsEPK11ActiveLightbN6Camera10RenderFlagERK13ShadowJobDataR17ShaderPassContext
5814:__ZNK16LightmapSettings23GetLightmapDecodeValuesEv
5815:__ZNK16LightmapSettings31GetRealtimeLightmapDecodeValuesEv
5816:__Z14SetupLightmapsRK8Vector4fS1_R17ShaderPassContext
5817:__ZN6Camera13ClearNoSkyboxEb
5818:__ZNK14RenderSettings12SetupAmbientEv
5819:__ZN6Camera26InvokeRenderPlaneCallbacksENS_11RenderPlaneE
5820:__ZNK14RenderSettings20GetDefaultSpotCookieEv
5821:__ZN10builtintex21GetAttenuationTextureEv
5822:__ZN23ForwardShaderRenderLoop15StartRenderJobsER8JobFenceb14ShadowMaskModeR17ShaderPassContext
5823:__ZN23ForwardShaderRenderLoop21CleanupAfterRenderingEv
5824:__ZL24AssignProjectorQueuesJobP30AssignProjectorQueuesJobHeader
5825:__ZL20ForwardRenderLoopJobPN21GfxDeviceAsyncCommand10ArgScratchEPKNS_3ArgE
5826:__Z20SetNoShadowsKeywordsR17ShaderPassContext
5827:__Z16ClearScissorRectbRK5RectTIiER9GfxDevice
5828:__ZNK18ForwardLightsBlock7CompareERKS_
5829:__ZN15LightmapSTCache5ApplyERK10RenderNode
5830:__Z14SetSHConstantsR13BatchRendererRK20SphericalHarmonicsL2
5831:__Z25SetLightProbeProxyVolumesR13BatchRendererRK27LightProbeProxyVolumeSampleb
5832:__Z19GetReflectionSampleRK23ReflectionProbesContextRK10RenderNodeRK16ReflectionSamplePS5_
5833:__Z14SetReflectionsR13BatchRendererRK16ReflectionSample
5834:__Z20SetupForwardAddLightRK15SharedLightDatafR17ShaderPassContextRK10TextureRefS6_S6_
5835:__Z25SetupObjectBakedOcclusionbRK15SharedLightDataRK26SharedLightmapSettingsDataRK15LightmapIndicesR17ShaderPassContext
5836:__Z19SetLightScissorRectPK5RectTIfEbRS1_bR9GfxDevice
5837:__ZNK23ForwardShaderRenderLoop19SetLightShadowPropsERK15SharedLightDataRK10TextureRefRK10Matrix4x4fR17ShaderPassContext
5838:__Z22SetupForwardBaseLightsRK18ForwardLightsBlockR17ShaderPassContextRK10TextureRefS6_
5839:__Z17SetupVertexLightsRK18ForwardLightsBlockR17ShaderPassContext
5840:__Z20SetupObjectLightmapsRK26SharedLightmapSettingsDataRK15LightmapIndicesR17ShaderPassContext
5841:__Z20CalculateLightMatrixRK15SharedLightDataP10Matrix4x4f
5842:__ZN19ShaderPropertySheet24SetTextureFromTextureRefEN9ShaderLab16FastPropertyNameEPK10TextureRef
5843:__ZN19ShaderPropertySheet17UpdateTextureInfoEiN9ShaderLab16FastPropertyNameEPK10TextureRef
5844:__Z27SetupBakedOcclusionForLightbRK15SharedLightDataR17ShaderPassContext
5845:__Z30SetupBakedOcclusionForGeometrybRK26SharedLightmapSettingsDataRK15LightmapIndicesR17ShaderPassContext
5846:__Z24GetLightmapModeForRenderRK15SharedLightData
5847:__Z32ApplyReflectionProbeVectorParamsI28ApplyBuiltinInstancePropertyEvRT_RK16ReflectionSample
5848:__ZN19ShaderPropertySheet35SetTextureWithNoAuxiliaryPropertiesEN9ShaderLab16FastPropertyNameE9TextureID16TextureDimension14VRTextureUsage
5849:__Z22SampleReflectionProbesRK23ReflectionProbesContextRK4AABBji20ReflectionProbeUsageR16ReflectionSample
5850:__ZL23CalculateProbeInfluenceRK4AABBS1_
5851:__ZNSt3__26__sortIR23CompareReflectionProbesP31RuntimeReflectionProbeBlendInfoEEvT0_S5_T_
5852:__Z17IsContainedInAABBRK4AABBS1_
5853:__ZNSt3__27__sort3IR23CompareReflectionProbesP31RuntimeReflectionProbeBlendInfoEEjT0_S5_S5_T_
5854:__ZNSt3__27__sort4IR23CompareReflectionProbesP31RuntimeReflectionProbeBlendInfoEEjT0_S5_S5_S5_T_
5855:__ZNSt3__27__sort5IR23CompareReflectionProbesP31RuntimeReflectionProbeBlendInfoEEjT0_S5_S5_S5_S5_T_
5856:__ZNSt3__218__insertion_sort_3IR23CompareReflectionProbesP31RuntimeReflectionProbeBlendInfoEEvT0_S5_T_
5857:__ZNSt3__227__insertion_sort_incompleteIR23CompareReflectionProbesP31RuntimeReflectionProbeBlendInfoEEbT0_S5_T_
5858:__Z20IntersectionAABBAABBRK10MinMaxAABBS1_PS_
5859:__ZN20ReflectionProbeCacheC2ER13BatchRendererR15RenderLoopStats
5860:__ZN15SHConstantCacheC2ER13BatchRendererR15RenderLoopStats
5861:__ZN30ForwardShaderRenderLoopScratchD2Ev
5862:__ZN30ForwardShaderRenderLoopScratchD0Ev
5863:__ZL16ClearFramebufferN6Camera9ClearModeE5RectTIfERK10ColorRGBAfbb
5864:__Z21GetSoftShadowsEnabledbbN15QualitySettings13ShadowQualityEf
5865:__ZN23ForwardShaderRenderLoop21RenderLightShadowMapsER16ForwardShadowMapbbR17ShaderPassContext
5866:__ZNK6Camera15SaveMatrixStateERNS_11MatrixStateE
5867:__ZN6Camera22SetWorldToCameraMatrixERK10Matrix4x4f
5868:__Z16RenderShadowMapsPK18ShadowMapJobHeaderR17ShaderPassContextN13RenderTexture14SetActiveFlagsE
5869:__ZN6Camera18RestoreMatrixStateERKNS_11MatrixStateE
5870:__ZN23ForwardShaderRenderLoop14CollectShadowsER17ShadowCachingDataRK15SharedLightDatabbR17ShaderPassContext
5871:__Z21StoreShadowMapInCacheP14ShadowMapCacheRK17ShadowCachingDatai
5872:__ZNK23ForwardShaderRenderLoop19SetLightShadowPropsERK15SharedLightDataP7TextureRK10Matrix4x4fR17ShaderPassContext
5873:__Z29SetCascadedShadowShaderParamsPK10Matrix4x4fiPKfPK8Vector4fRK8Vector2fR17ShaderPassContext
5874:__Z26SetupLightShaderPropertiesRK15SharedLightDatafR17ShaderPassContextRK10TextureRefS6_S6_
5875:__Z27ComputeScreenSpaceShadowMapRK6CameraRK15SharedLightDataP13RenderTexture10ShadowType16ShadowProjectionR17ShaderPassContextNS5_14SetActiveFlagsE
5876:__ZNK6Camera20ViewportToWorldPointERK8Vector3f
5877:__ZNK6Camera18ScreenToWorldPointERK8Vector3f
5878:__Z15CameraUnProjectRK8Vector3fRK10Matrix4x4fS4_RK5RectTIiERS_b
5879:__ZNSt3__26vectorI16ShadowCasterData13stl_allocatorIS1_L18MemLabelIdentifier2ELi16EEE6assignINS_11__wrap_iterIPKS1_EEEENS_9enable_ifIXaasr21__is_forward_iteratorIT_EE5valuesr16is_constructibleIS1_NS_15iterator_traitsISC_E9referenceEEE5valueEvE4typeESC_SC_
5880:__ZN21BillboardBatchManager24AutoBillboardShaderProps5ApplyEbRK10Matrix4x4fRK8Vector3f
5881:__ZL12ShadowMapJobPN21GfxDeviceAsyncCommand10ArgScratchEPKNS_3ArgE
5882:__ZN21BillboardBatchManager24AutoBillboardShaderPropsD2Ev
5883:__ZL13RenderCastersiRK8Vector3fS1_RK13ShadowJobDataR17ShaderPassContextRKNSt3__26vectorI16ShadowCasterData13stl_allocatorIS9_L18MemLabelIdentifier2ELi16EEEERKNS8_I20ShadowCasterPartDataSA_ISG_LSB_2ELi16EEEERK15RenderNodeQueuebPKj
5884:__Z20IntersectAABBFrustumRK4AABBPK5Planej
5885:__Z33GenerateShadowCasterPartsSortDataRK16ShadowCasterDatajRK15RenderNodeQueueRKNSt3__26vectorI20ShadowCasterPartData13stl_allocatorIS7_L18MemLabelIdentifier2ELi16EEEERK10Matrix4x4fRjP20ShadowCasterSortData
5886:__ZN14qsort_internal5QSortIP20ShadowCasterSortDatai26ShadowCasterSortDataSorterEEvT_S4_T0_T1_
5887:__ZN14qsort_internal30FindAndMovePivotToLastPositionIP20ShadowCasterSortDatai26ShadowCasterSortDataSorterEEvT_S4_T0_T1_
5888:__ZN21BillboardBatchManager24AutoBillboardShaderPropsC2ER16ShaderKeywordSetR24BuiltinShaderParamValues
5889:__ZN25ShadowMapJobHeaderScratchD2Ev
5890:__ZN25ShadowMapJobHeaderScratchD0Ev
5891:__ZN14qsort_internal5QSortIP21ForwardRenderPassDataiN23ForwardShaderRenderLoop18RenderObjectSorterILb0EEEEEvT_S6_T0_T1_
5892:__ZN14qsort_internal30FindAndMovePivotToLastPositionIP21ForwardRenderPassDataiN23ForwardShaderRenderLoop18RenderObjectSorterILb0EEEEEvT_S6_T0_T1_
5893:__ZNK23ForwardShaderRenderLoop18RenderObjectSorterILb0EEclERK21ForwardRenderPassDataS4_
5894:__ZNSt3__211__sift_downIRN23ForwardShaderRenderLoop18RenderObjectSorterILb0EEEP21ForwardRenderPassDataEEvT0_S7_T_NS_15iterator_traitsIS7_E15difference_typeES7_
5895:__ZN14qsort_internal5QSortIP21ForwardRenderPassDataiN23ForwardShaderRenderLoop18RenderObjectSorterILb1EEEEEvT_S6_T0_T1_
5896:__ZN14qsort_internal30FindAndMovePivotToLastPositionIP21ForwardRenderPassDataiN23ForwardShaderRenderLoop18RenderObjectSorterILb1EEEEEvT_S6_T0_T1_
5897:__ZNK23ForwardShaderRenderLoop18RenderObjectSorterILb1EEclERK21ForwardRenderPassDataS4_
5898:__ZNSt3__211__sift_downIRN23ForwardShaderRenderLoop18RenderObjectSorterILb1EEEP21ForwardRenderPassDataEEvT0_S7_T_NS_15iterator_traitsIS7_E15difference_typeES7_
5899:__ZNK13RenderTexture12FitGivenRectERiS0_S0_S0_
5900:__Z24IntersectAABBPlaneBoundsRK4AABBPK5Planei
5901:__Z30FindDirectAttenuationFromProbeP18ForwardLightsBlockbiRK10RenderNodeRK23FindForwardLightsParamsf
5902:__ZL12AddLightToSHRK4AABBRK15SharedLightDataP18ForwardLightsBlockf
5903:__Z28GetNonInterpolatedLightProbeRK17LightProbeContextjR20SphericalHarmonicsL2
5904:__ZN20SphericalHarmonicsL2pLERKS_
5905:__ZN20SphericalHarmonicsL219AddDirectionalLightERKN4math7_float3ERKNS0_7_float4E
5906:__ZN20SphericalHarmonicsL217AddToCoefficientsEPKN4math7_float4EPKf
5907:__Z32GetNonInterpolatedLightOcclusionRK17LightProbeContextji
5908:__Z29GetInterpolatedLightOcclusionRK17LightProbeContextRK29LightProbeSamplingCoordinatesi
5909:__Z20FindShadowMapInCacheP14ShadowMapCachei
5910:__Z17PrepareShadowMapsRK11CullResultsRK11ActiveLightRK10MinMaxAABB
5911:__Z20SendCullingCallbacksRK13CullingOutputRK14ShadowCullDataRK15SharedLightData
5912:__ZN13ShadowJobDataC2ERKS_
5913:__Z22CalculateShadowMapSizeRK13ShadowJobData9LightTypeRK8Vector2fii
5914:__ZL20PrepareShadowMapsJobP18ShadowMapJobHeader
5915:__ZNSt3__26vectorI20ShadowCasterPartData13stl_allocatorIS1_L18MemLabelIdentifier2ELi16EEE21__push_back_slow_pathIKS1_EEvRT_
5916:__ZNSt3__26vectorI16ShadowCasterData13stl_allocatorIS1_L18MemLabelIdentifier2ELi16EEE21__push_back_slow_pathIKS1_EEvRT_
5917:__ZN10Matrix4x4f18SetBasisTransposedERK8Vector3fS2_S2_
5918:__Z23CullDirectionalCascadesRNSt3__26vectorI16ShadowCasterData13stl_allocatorIS1_L18MemLabelIdentifier2ELi16EEEEPK17ShadowCascadeInfoiRK10Matrix4x4fRK8Vector3fRK13ShadowJobData16ShadowProjection
5919:__Z16GetFrustumPointsRK10Matrix4x4fP8Vector3f
5920:__Z17GetFrustumPortionPK8Vector3fffPS_
5921:__Z25CalculateFocusedLightHullPK8Vector3fRS0_RK10MinMaxAABBR13dynamic_arrayIS_Lj4EE
5922:__ZN10Matrix4x4f30SetPositionAndOrthoNormalBasisERK8Vector3fS2_S2_S2_
5923:__Z40CalculateBoundingSphereFromFrustumPointsPK8Vector3fRS_Rf
5924:__Z26CalculateSphereFrom4PointsPK8Vector3fRS_Rf
5925:__ZNK10Matrix4x4f14GetDeterminantEv
5926:__Z16ClipPolysByPlanehPK8Vector3fRK5PlanePhPS_S5_S6_
5927:__Z25CalculateShadowCasterCullbPK5PlaneRK10Matrix4x4fRK8Vector3fff9LightTypeS7_R16ShadowCasterCullPKb
5928:__ZL24AddShadowCasterCullPlanebPK5PlaneRK10Matrix4x4fRK8Vector3fffiii9LightTypeS7_RS_
5929:__ZN18ShadowMapJobHeaderD2Ev
5930:__ZN18ShadowMapJobHeaderD0Ev
5931:__ZN9ShaderLab10GrabPassesC2E18MemLabelIdentifier
5932:__ZN23ForwardShaderRenderLoopD2Ev
5933:__ZN23ForwardShaderRenderLoopD0Ev
5934:__ZN9ShaderLab10GrabPassesD2Ev
5935:__ZNSt3__26__treeINS_12__value_typeIiPN9ShaderLab10GrabPasses5EntryEEENS_19__map_value_compareIiS6_NS_4lessIiEELb1EEENS_9allocatorIS6_EEE7destroyEPNS_11__tree_nodeIS6_PvEE
5936:__ZN14qsort_internal18QSortSingleJobDataIP16RenderObjectDatai26RenderDeferredObjectSorterE7SortJobEPS4_
5937:__ZL24CollectForwardObjectsJobP27CollectForwardObjectsHeader
5938:__ZNK14RenderSettings19GetFlatAmbientColorEv
5939:__ZN18DeferredRenderLoop13RenderGBufferEP13RenderTexturePS1_b8JobFencePK25DeferredRenderLoopScratchRi
5940:__Z24SetupActiveLightsContextR21ActiveLightingContextRK12ActiveLightsRK11CullResultsP14ShadowMapCacheRK10MinMaxAABB
5941:__Z29RenderForwardObjectsIntoDepthRK17RenderLoopContextP13RenderTextureP13dynamic_arrayI16RenderObjectDataLj4EE12ObjectHandleI17RenderSurface_TagP17RenderSurfaceBaseESC_iib
5942:__Z31ResolveDepthIntoTextureIfNeededR9GfxDeviceR10RenderLoop17DepthBufferFormatRP13RenderTextureP9TextureIDPb
5943:__ZN19ShaderPropertySheet26SetTextureWithExplicitSizeEN9ShaderLab16FastPropertyNameE9TextureIDiiff
5944:__ZN18DeferredRenderLoop17RenderReflectionsEP13RenderTexturePS1_
5945:__ZN18DeferredRenderLoop24AddReflectionsToEmissionEP13RenderTextureS1_
5946:__ZN18DeferredRenderLoop14RenderLightingER21ActiveLightingContextP13RenderTexture9TextureIDPS3_iRK8Vector4fRK14LightingLayersR10MinMaxAABBb
5947:__ZN18DeferredRenderLoop15RenderFinalPassEP13RenderTextureS1_
5948:__Z26CombineDepthNormalsTextureRK17RenderLoopContextR13dynamic_arrayI16RenderObjectDataLj4EE
5949:__ZN12ImageFilters4BlitER17ShaderPassContextP7TextureP13RenderTextureP8MaterialiNS_9BlitFlagsE11CubemapFaceRK8Vector2fSC_
5950:__Z15InitLightMeshesv
5951:__ZL19RenderLightDeferredRK17RenderLoopContextRK15LightingContextN15QualitySettings13ShadowQualityE16ShadowProjectionP13RenderTextureS9_iiPK18DeviceStencilStateRK22DeviceMVPMatricesStateRK8Vector4fRK14LightingLayersbR17ShaderPassContext
5952:__Z23SetupLightShaderKeywordRK15SharedLightDataR17ShaderPassContext
5953:__Z22AssignCookieToMaterialRK15SharedLightDataP8Material
5954:__ZL31SetRenderStateForStencilMarkingR9GfxDeviceR17ShaderPassContextjj
5955:__Z15RenderLightGeomR9GfxDeviceRK6CameraRK11ActiveLightRK8Vector3fRK10Matrix4x4fb17ShaderChannelMask
5956:__ZN8Material8SetFloatEN9ShaderLab16FastPropertyNameEf
5957:__ZN8DrawUtil8DrawMeshE17ShaderChannelMaskR4MeshRK10Matrix4x4fi
5958:__ZN8DrawUtil8DrawMeshE17ShaderChannelMaskR4MeshiRK10Matrix4x4f13TransformType
5959:__ZN8DrawUtil11DrawMeshRawE17ShaderChannelMaskR4MeshiiPS1_
5960:__ZNK4Mesh15GetSubMeshCountEv
5961:__ZN4Mesh14GetMeshBuffersER11MeshBuffers17ShaderChannelMaskPS_b
5962:__ZNK4Mesh26GetSubMeshDrawBuffersRangeEib
5963:__ZN8Material23GetStencilWriteMaterialEv
5964:__ZNK6Camera22GetCameraToWorldMatrixEv
5965:__ZNK16ReflectionProbes17GetDefaultTextureEPb
5966:__ZNK16ReflectionProbes41CalculateHDRDecodeValuesForDefaultTextureEP7Texture
5967:__ZNSt3__26__sortIR15ReflProbeSorterPP15ReflectionProbeEEvT0_S6_T_
5968:__ZNK15ReflectionProbe13GetGlobalAABBEv
5969:__ZNK15ReflectionProbe10GetTextureEv
5970:__ZNK15ReflectionProbe24CalculateHDRDecodeValuesEv
5971:__Z35GetTextureDecodeValuesWithIntensity16TextureUsageMode17TextureColorSpace10ColorSpacef
5972:__ZN15ReflProbeSorterclEPK15ReflectionProbeS2_
5973:__ZNSt3__27__sort3IR15ReflProbeSorterPP15ReflectionProbeEEjT0_S6_S6_T_
5974:__ZNSt3__27__sort4IR15ReflProbeSorterPP15ReflectionProbeEEjT0_S6_S6_S6_T_
5975:__ZNSt3__27__sort5IR15ReflProbeSorterPP15ReflectionProbeEEjT0_S6_S6_S6_S6_T_
5976:__ZNSt3__227__insertion_sort_incompleteIR15ReflProbeSorterPP15ReflectionProbeEEbT0_S6_T_
5977:__ZNK15ReflectionProbe16GetGlobalExtentsEv
5978:__ZN10builtintex12GetBlackCubeEv
5979:__ZL21DeferredRenderLoopJobPN21GfxDeviceAsyncCommand10ArgScratchEPKNS_3ArgE
5980:__ZN10builtintex21GetBlackCubeTextureIDEv
5981:__Z7ApplySHR15SHConstantCacheRK17LightProbeContextRK10RenderNodeb
5982:__Z18ApplyOcclusionMaskR19ProbeOcclusionCacheRK17LightProbeContextRK10RenderNodeb
5983:__ZN25DeferredRenderLoopScratchD2Ev
5984:__ZN25DeferredRenderLoopScratchD0Ev
5985:__ZN14qsort_internal5QSortIP16RenderObjectDatai26RenderDeferredObjectSorterEEvT_S4_T0_T1_
5986:__ZN14qsort_internal30FindAndMovePivotToLastPositionIP16RenderObjectDatai26RenderDeferredObjectSorterEEvT_S4_T0_T1_
5987:__ZNK26RenderDeferredObjectSorterclERK16RenderObjectDataS2_
5988:__ZNSt3__211__sift_downIR26RenderDeferredObjectSorterP16RenderObjectDataEEvT0_S5_T_NS_15iterator_traitsIS5_E15difference_typeES5_
5989:__ZN18DeferredRenderLoopD2Ev
5990:__ZN18DeferredRenderLoopD0Ev
5991:__ZN14RenderSettings16SetUseFogNoDirtyEb
5992:__ZN14RenderSettings14ApplyFogParamsEv
5993:__ZN14qsort_internal5QSortIP16RenderObjectDatai25RenderPrePassObjectSorterEEvT_S4_T0_T1_
5994:__ZN17PrePassRenderLoop14RenderBasePassEP13RenderTextureRK14LightingLayersR13dynamic_arrayI16RenderObjectDataLj4EERbR10MinMaxAABB
5995:__Z19RenderBasePassDepthRK17RenderLoopContextR13dynamic_arrayI16RenderObjectDataLj4EERS2_I17PrePassRenderDataLj4EER17ShaderPassContext
5996:__ZN17PrePassRenderLoop14RenderLightingER21ActiveLightingContextP13RenderTexture9TextureIDS3_RS3_RK8Vector4fRK14LightingLayersR10MinMaxAABBb
5997:__ZN17PrePassRenderLoop15RenderFinalPassEP13RenderTextureS1_b
5998:__ZN10builtintex15GetBlackTextureEv
5999:__ZL11RenderLightRK17RenderLoopContextRK15LightingContextN15QualitySettings13ShadowQualityE16ShadowProjectionRP13RenderTextureS9_iiPK18DeviceStencilStateRK10MinMaxAABBRK22DeviceMVPMatricesStateRK8Vector4fRK14LightingLayersbR17ShaderPassContext
6000:__ZN14qsort_internal30FindAndMovePivotToLastPositionIP16RenderObjectDatai25RenderPrePassObjectSorterEEvT_S4_T0_T1_
6001:__ZNK25RenderPrePassObjectSorterclERK16RenderObjectDataS2_
6002:__ZNSt3__211__sift_downIR25RenderPrePassObjectSorterP16RenderObjectDataEEvT0_S5_T_NS_15iterator_traitsIS5_E15difference_typeES5_
6003:__ZN6Camera10CustomCullERK23CameraCullingParametersR11CullResults
6004:__ZN13RenderManager29SetCurrentCameraAndStackStateEP6CameraP25CameraStackRenderingState
6005:__ZN6Camera24PrepareCullingParametersERK23CameraCullingParameters13RenderingPathR11CullResults
6006:__Z24CullStaticSceneWithUmbraR8JobFenceRK22SceneCullingParametersR13CullingOutput
6007:__ZN19CullingGroupManager17CullAndSendEventsERK22SceneCullingParameters4PPtrI6CameraERK13CullingOutputRK8JobFence
6008:__ZN6Camera38PrepareCullingParametersRendererArraysERKS_R11CullResults
6009:__Z19SetupShadowCullDataR6CameraRK17ShaderReplaceDataPK22SceneCullingParametersf16ShadowProjectionR14ShadowCullData
6010:__Z9CullSceneR22SceneCullingParametersPK6CameraR11CullResults
6011:__Z16CullDynamicSceneR8JobFenceS0_RK22SceneCullingParametersR13CullingOutput
6012:__Z17PrepareSceneNodesP11CullResults
6013:__ZL10CullLightsRK22SceneCullingParametersR11CullResults
6014:__Z15GetLightManagerv
6015:__Z16FindActiveLightsR13dynamic_arrayIPK5LightLj4EEPS2_P8Vector4fRS_IhLj1EERK14ShadowCullDataRj
6016:__Z20AddDirectionalLightsPPK5LightjR12ActiveLights
6017:__Z31InitLocalLightCullingParametersRK11CullResultsR27LocalLightCullingParameters
6018:__Z21AddActiveCustomLightsRK27LocalLightCullingParametersR11CullResultsR12ActiveLights
6019:__Z15CullLocalLightsR8JobFenceS0_RK22SceneCullingParametersiPK8Vector4fRK13dynamic_arrayIhLj1EER9IndexListSC_PfP5RectTIfEP13TargetEyeMaskPPK5LightRK14ShadowCullData
6020:__Z28CullDirectionalShadowCastersiRK22SceneCullingParametersR11CullResults
6021:__ZL17AddLocalLightsJobP21AddLocalLightsJobInfo
6022:__Z20AddActiveLocalLightsR11CullResultsR27LocalLightCullingParametersPPK5LightPK8Vector4fRK9IndexListPfRSA_R12ActiveLightsSG_P5RectTIfEP13TargetEyeMask
6023:__Z27CullLocalLightShadowCastersiibR11CullResults
6024:__Z34PrepareParametersCullShadowCastersRK11ActiveLightRK14ShadowCullDataR22SceneCullingParametersR13ShadowedLight
6025:__Z32CountListsWithValidRendererCountPK16RendererCullData
6026:__ZL25CullLocalShadowCastersJobP25LocalShadowCullingJobDataj
6027:__ZL54CombineLocalShadowCasterCullingIndexListsAndDestroyJobP25LocalShadowCullingJobData
6028:__Z32ScheduleJobForEachJobSetInternalR8JobFencePFvPvjES1_iRKS_PFvS1_E11JobPriority
6029:__Z29CullShadowCastersWithoutUmbraR9IndexListRK17CullingParametersPK4AABBjj
6030:__Z41ProcessShadowsIndexListIsNodeVisibleInOutRK22SceneCullingParametersPK9SceneNodePK4AABBR9IndexList
6031:__Z16CullPointShadowsR9IndexListPK9SceneNodePK4AABBR16PointCullContext
6032:__Z15CullSpotShadowsR9IndexListPK9SceneNodePK4AABBR15SpotCullContext
6033:__Z22CombineBoundingVolumesPK4AABBRK9IndexList
6034:__Z13IsNodeVisibleRK9SceneNodeRK4AABBRK22SceneCullingParameters
6035:__Z22PrepareOptimizedPlanesPK5PlaneiPKN4math7_float4Ei
6036:__Z33IntersectAABBPlaneBoundsOptimizedRK4AABBPKN4math7_float4Ei
6037:__Z22PrepareOptimizedPlanesPK5PlaneiPKN4math7_float4E
6038:__Z19CreateCullingOutputPK16RendererCullDataR13CullingOutput
6039:__Z32CalculateCustomCullingParametersR17CullingParametersRK13LODParametersjPK5Planei
6040:__Z21SetupActiveLocalLightRK27LocalLightCullingParametersRK13ShadowJobDataRK8Vector4fPK5RectTIfEbbfR11ActiveLight
6041:__Z24CalculateSpotLightBoundsffRK10Matrix4x4fR15SpotLightBounds
6042:__Z37GenerateCombinedDynamicVisibleListJobP11CullResults
6043:__Z21CreateShadowCullerJobP30CreateUmbraShadowCullerJobData
6044:__Z31CullDirectionalShadowCastersJobP20ShadowCullingJobDataj
6045:__ZL60CombineDirectionalShadowCasterCullingIndexListsAndDestroyJobP20ShadowCullingJobData
6046:__Z22CullDirectionalShadowsR9IndexListPK9SceneNodePK4AABBR22DirectionalCullContext
6047:__ZL38FrustumAndOcculusionCullLocalLightsJobP21LocalLightCullJobDataj
6048:__ZL45FrustumAndOcculusionCullLocalLightsCombineJobP21LocalLightCullJobData
6049:__Z22PointDistanceToFrustumRK8Vector4fPK5Planei
6050:__Z26CalculateLightScreenBoundsRK13ShadowJobDataRK15SharedLightDataP5RectTIfER13TargetEyeMask
6051:__Z14CalcHullBoundsPK8Vector3fPKhhRK5PlaneRK10Matrix4x4fR10MinMaxAABB
6052:__ZL27SetupActiveDirectionalLightRK5LightR11ActiveLight
6053:__ZL16PresizeOutputJobP25ScheduleSceneNodesJobData
6054:__ZL22ScheduleSceneNodesJobsP25ScheduleSceneNodesJobDataj
6055:__ZL27PrepareSceneNodesJobCombineP25ScheduleSceneNodesJobData
6056:__ZN25ScheduleSceneNodesJobDataD2Ev
6057:__ZL20PrepareSceneNodesJobP24PrepareSceneNodesJobDataj
6058:__Z20ConfigureBlockRangesP10BlockRangeii
6059:__ZL21CullDynamicObjectsJobP14CullingJobDataj
6060:__ZL26CullDynamicSceneCombineJobP14CullingJobData
6061:__Z40ProcessCameraIndexListIsNodeVisibleInOutRK22SceneCullingParametersPK9SceneNodePK4AABBR9IndexList
6062:__Z40ProcessCameraIndexListIsNodeVisibleStep1RK22SceneCullingParametersPK9SceneNodejjR9IndexList
6063:__Z23CullDynamicObjectsUmbraPK4AABBPKN5Umbra15OcclusionBufferER9IndexList
6064:__Z23CullObjectsWithoutUmbraRK17CullingParametersPK4AABBR9IndexList
6065:__Z34ProcessIndexListIsNodeVisibleStep2RK22SceneCullingParametersPK9SceneNodePK4AABBR9IndexList
6066:__ZNK6Camera16GetCullingMatrixEv
6067:__ZNK6Camera6GetFovEv
6068:__ZNK6Camera9GetAspectEv
6069:__ZNK6Camera27GetImplicitProjectionMatrixEffffR10Matrix4x4f
6070:__ZNK6Camera26GetStereoWorldToClipMatrixE15StereoscopicEye
6071:__ZNK6Camera22CalculateFrustumPlanesEP5PlaneRK10Matrix4x4ffRfb
6072:__ZNK13RendererScene22GetStaticBoundingBoxesEv
6073:__ZNK13RendererScene20GetStaticObjectCountEv
6074:__ZNK13RendererScene23GetDynamicBoundingBoxesEv
6075:__ZNK13RendererScene20GetDynamicSceneNodesEv
6076:__ZNK13RendererScene21GetDynamicObjectCountEv
6077:__ZN11CullResults11InitDynamicEPK16RendererCullData
6078:__ZN6Camera21PrepareLODCullingDataER11CullResultsPKS_
6079:__ZN15LODGroupManager26CollectAllLODGroupManagersEPK6CameraR13dynamic_arrayIPS_Lj4EEb
6080:__ZN15LODGroupManager21CalculateLODDataArrayERK13LODParametersPK6Cameraf
6081:__ZN15LODGroupManager27GarbageCollectCameraLODDataEv
6082:__ZNK15LODGroupManager17CalculateLODMasksERK13LODParametersfPhPf
6083:__ZN15LODGroupManager16CalculateLODMaskERKNS_12LODGroupDescEfjhfPhPfRb
6084:__Z24ScheduleCullingAllGroupsR8JobFenceRK22SceneCullingParameters4PPtrI6CameraERK13CullingOutputRK13dynamic_arrayIP12CullingGroupLj4EERKS_
6085:__ZN12CullingGroup13NotifyVisibleEv
6086:__ZN12CullingGroup15NotifyInvisibleEv
6087:__ZN12CullingGroup10SendEventsEPK17CullingGroupEventj
6088:__ZN18ScriptingArguments6AddIntEi
6089:__ZNK12CullingGroup34GetEffectiveDistanceReferencePointEv
6090:__ZL12CullGroupJobP20CullingGroupsJobDataj
6091:__ZL10CleanUpJobP20CullingGroupsJobData
6092:__Z18AddGroupToWorkloadR26BlockRangeBalancedWorkloadjR13dynamic_arrayI10BlockRangeLj4EERS1_IjLj4EE
6093:__Z35IntersectSpherePlaneBoundsOptimizedRKN4math7_float4EPS1_i
6094:__ZL24CalculateDistanceIndicesR16CullingGroupDataR10BlockRangeR20CullingGroupsJobData
6095:__ZL24QueryPortalVisibilityJobP28QueryPortalVisibilityJobDataj
6096:__ZL31QueryPortalVisibilityCombineJobP28QueryPortalVisibilityJobData
6097:__ZNK6Camera26CalculateCullingParametersER17CullingParameters
6098:__ZN11CullResultsC2Ev
6099:__ZN6Camera31DefaultPerformEyeRenderFunctionclEPS_P11CullResultsNS_10RenderFlagE
6100:__ZN6Camera6RenderER11CullResultsR17ShaderPassContextPK21CameraRenderingParamsNS_10RenderFlagE
6101:__ZN13RendererScene15InitializeUmbraEv
6102:__Z30GetOcclusionCullingSettingsPtrv
6103:__ZNK20OcclusionCullingData22GetStaticRendererCountEv
6104:__ZN19RuntimeSceneManager15GetLoadedScenesER13dynamic_arrayIP10UnitySceneLj4EE
6105:__ZNK20OcclusionCullingData8GetSceneERK9UnityGUID
6106:__ZN13RendererScene19AddRendererInternalEP8Rendereri
6107:__ZN19StereoRenderTextureD2Ev
6108:__ZN19StereoRenderTexture11ReleaseTempEv
6109:__ZNK25CameraStackRenderingState24ResolveTempToEyeTexturesEv
6110:__ZN13RenderTexture25ResolveAntiAliasedSurfaceEPKS_
6111:__ZN25CameraStackRenderingState19SetupLastEyeCamerasERK11CameraStack
6112:__ZNK25CameraStackRenderingState25CalculateCameraTargetTypeEv
6113:__ZN25CameraStackRenderingStateC2Ev
6114:__ZN19StereoRenderTextureC2Ev
6115:__ZL20GetTargetsFromCameraRK6CameraR20CameraTargetsAndRect
6116:__ZNSt3__26vectorI11CameraStackNS_9allocatorIS1_EEE8__appendEj
6117:__ZNK20CameraTargetsAndRecteqERKS_
6118:__Z25GetRenderLoopImageFiltersR10RenderLoop
6119:__ZN13RenderManager15BatchModeUpdateEv
6120:__Z12PlayerRenderb
6121:__ZN13RenderManager22RenderOffscreenCamerasEv
6122:__Z23DrawSplashAndWatermarksv
6123:__ZN7Cursors20RenderSoftwareCursorEv
6124:__ZN7Cursors17GetSoftwareCursorEv
6125:__ZN7Cursors16GetCursorHotspotEv
6126:__Z14DrawGUITextureRK5RectTIfEP7Texture11ColorRGBA32P8Materiali
6127:__Z14DrawGUITextureRK5RectTIfEP7TextureS2_iiiif11ColorRGBA32P8Materiali
6128:__ZN24MaterialDisplayListCache22InvalidateDisplayListsER18SharedMaterialData
6129:__Z21HandleGUITexturePropsP19ShaderPropertySheetP7Texture
6130:__ZN19ShaderPropertySheet18SetTextureUnscaledEN9ShaderLab16FastPropertyNameEP7Texture8Vector2fS4_
6131:__ZN10systeminfo18GetRuntimePlatformEv
6132:__ZN10systeminfo19IsPlatformWebPlayerE15RuntimePlatform
6133:__Z13DrawWaterMarkb
6134:__ZL19DrawSimpleWatermark13WatermarkEnumff
6135:__ZN11TimeManager11GetRealtimeEv
6136:__ZN15ReflectionProbe14ScheduleRenderENS_15TimeSlicingModeE4PPtrI13RenderTextureEb
6137:__ZN16ReflectionProbes16UpdateSampleDataEv
6138:__ZN16ReflectionProbes40UpdateRealtimeReflectionProbesTimeslicedEv
6139:__ZN18ReflectionProbeJob3RunEv
6140:__ZN16ReflectionProbes16RenderProbeFacesEP15ReflectionProbei
6141:__ZN16ReflectionProbes15AcquireRendererEPK15ReflectionProbe
6142:__Z21CubemapGPUConvolutionP13RenderTextureS0_bijjb
6143:__ZN15ReflectionProbe17UseRendererResultEP13ProbeRenderer
6144:__ZN16ReflectionProbes11UpdateProbeER15ReflectionProbej
6145:__Z15CubemapGPUBlendP7TextureS0_fP13RenderTexture
6146:__ZN16ReflectionProbes21AllocateRenderTextureERK15ReflectionProbeb
6147:__ZN13RenderTexture8SetWidthEi
6148:__ZN13RenderTexture9SetHeightEi
6149:__ZN13RenderTexture14SetDepthFormatE17DepthBufferFormat
6150:__ZN13RenderTexture16SetSRGBReadWriteEb
6151:__ZN13RenderTexture19SetAutoGenerateMipsEb
6152:__ZN7Texture13SetAnisoLevelEi
6153:__ZN13RenderTextureC2E18MemLabelIdentifier18ObjectCreationMode
6154:__ZNK13RenderTexture32CalculateNeedsInvertedProjectionEv
6155:__ZL10RenderFaceR9GfxDeviceR18MaterialStateCacheP13RenderTextureiif
6156:__ZN10SpookyHash7Hash128EPKvjPyS2_
6157:__ZN7Hash1285ResetEv
6158:__ZN10SpookyHash5ShortEPKvjPyS2_
6159:__ZN13ProbeRenderer10RenderCubeEP15ReflectionProbeP13RenderTextureib
6160:__ZN13ProbeRenderer10RenderQuadEP15ReflectionProbeP13RenderTextureib
6161:__ZNK9Transform28GetLocalToWorldMatrixNoScaleEv
6162:__ZNK9Transform18GetWorldScaleLossyEv
6163:__ZN16ReflectionProbes9GetCameraEv
6164:__ZN9Transform11SetPositionERK8Vector3f
6165:__Z24LookRotationToQuaternionRK8Vector3fS1_P11Quaternionf
6166:__ZN9Transform11SetRotationERK11Quaternionf
6167:__ZN15QualitySettings28SetShadowDistanceTemporarilyEf
6168:__ZN6Camera7SetNearEf
6169:__ZN6Camera6SetFarEf
6170:__ZN6Camera13SetClearFlagsEi
6171:__ZN6Camera18SetBackgroundColorERK10ColorRGBAf
6172:__ZN6Camera14SetCullingMaskEj
6173:__ZN6Camera15SetOrthographicEb
6174:__ZN6Camera19SetOrthographicSizeEf
6175:__ZN6Camera9SetAspectEf
6176:__ZN6Camera16SetTargetTextureEP13RenderTexture
6177:__ZN6Camera16StandaloneRenderENS_10RenderFlagEP6ShaderRKN4core12basic_stringIcNS3_20StringStorageDefaultIcEEEE
6178:__ZN6Camera22StandaloneCustomRenderENS_10RenderFlagEP6ShaderRKN4core12basic_stringIcNS3_20StringStorageDefaultIcEEEEPNS_21PerformRenderFunctionE
6179:__Z16StoreRenderStateR20CameraRenderOldStateRK17ShaderPassContext
6180:__ZN25CameraStackRenderingState23BeginRenderingOneCameraER6Camera
6181:__Z18RestoreRenderStateR20CameraRenderOldStateR17ShaderPassContext
6182:__ZN19ShaderPropertySheet18SetTexturePropertyEN9ShaderLab16FastPropertyNameERKNS_15TexturePropertyE
6183:__Z10SetGlobalR15TransformAccessRKN4math7_float4E
6184:__ZL24SendTransformChangedMaskRK18TransformHierarchyii
6185:__ZN23TransformChangeDispatch32QueueTransformChangeIfHasChangedER18TransformHierarchy
6186:__Z24InverseTransformRotationRK23TransformAccessReadOnlyRKN4math7_float4E
6187:__Z18MatrixToQuaternionRK10Matrix3x3fR11Quaternionf
6188:__Z10SetGlobalT15TransformAccessRKN4math7_float3E
6189:__Z24InverseTransformPosition23TransformAccessReadOnlyRKN4math7_float3E
6190:__Z29CreateGameObjectWithHideFlagsRKN4core12basic_stringIcNS_20StringStorageDefaultIcEEEEbN6Object9HideFlagsEPKcz
6191:__ZN10GameObject8ActivateEv
6192:__Z23AddComponentsFromVAListR10GameObjectPKcPi
6193:__Z12AddComponentR10GameObjectPKcPN4core12basic_stringIcNS3_20StringStorageDefaultIcEEEE
6194:__Z10BeginsWithPKcS0_
6195:__Z12AddComponentR10GameObjectPKN5Unity4TypeE17ScriptingClassPtrPN4core12basic_stringIcNS6_20StringStorageDefaultIcEEEE
6196:__ZNK17MonoScriptManager17FindRuntimeScriptERKN4core12basic_stringIcNS0_20StringStorageDefaultIcEEEE
6197:__ZN15ScriptsIterator4NextEv
6198:__ZL30CollectComponentsWithoutAddingR10GameObjectPKN5Unity4TypeE17ScriptingClassPtrR13dynamic_arrayI16AddComponentDataLj4EES9_PN4core12basic_stringIcNSA_20StringStorageDefaultIcEEEE
6199:__ZNK17MonoScriptManager17FindRuntimeScriptE17ScriptingClassPtr
6200:__ZL21AddComponentUncheckedR10GameObjectPKN5Unity4TypeE17ScriptingClassPtrP10MonoScriptPN4core12basic_stringIcNS8_20StringStorageDefaultIcEEEE
6201:__ZNK10GameObject25QueryComponentByExactTypeEPKN5Unity4TypeE
6202:__ZN10GameObject20AddComponentInternalEPN5Unity9ComponentE
6203:__ZL27SetupScriptForMonoBehaviourP13MonoBehaviour17ScriptingClassPtrP10MonoScript
6204:__ZN10GameObject21EnsureUniqueTransformEbb
6205:__Z31PrepareMergeTransformComponentsR9TransformRb
6206:__Z24MergeTransformComponentsR9TransformS0_b
6207:__ZN9Transform7GetRootEv
6208:__Z30AddTransformComponentUncheckedR10GameObjectPKN5Unity4TypeE
6209:__ZN9Transform30EnsureTransformHierarchyExistsEv
6210:__ZNK9Transform16GetLocalRotationEv
6211:__ZN9Transform47ClearTransformHierarchyAndApplyToSerializedDataEv
6212:__ZN9Transform8GetSceneEv
6213:__ZN10UnityScene19RemoveRootFromSceneER9Transformb
6214:__ZN10UnityScene14AddRootToSceneERS_R9Transform
6215:__ZN9Transform4FindEPKS_
6216:__ZN9Transform25RebuildTransformHierarchyEv
6217:__ZN9Transform35SetLocalPositionWithoutNotificationERKN4math7_float3E
6218:__ZN9Transform35SetLocalRotationWithoutNotificationERKN4math7_float4E
6219:__ZN9Transform32SetLocalScaleWithoutNotificationERKN4math7_float3E
6220:__ZN2UI13RectTransform38SetAnchoredPositionWithoutNotificationERK8Vector2f
6221:__Z9SetLocalS15TransformAccessRKN4math7_float3E
6222:__Z9SetLocalR15TransformAccessRKN4math7_float4E
6223:__ZNK9Transform14CountNodesDeepEv
6224:__ZN17TransformInternal24CreateTransformHierarchyEj
6225:__ZN9Transform37InitializeTransformHierarchyRecursiveER18TransformHierarchyRii
6226:__ZN10GameObject17WillHandleMessageERK17MessageIdentifier
6227:__ZN14MessageHandler17WillHandleMessageEPvjRK17MessageIdentifier
6228:__ZN13BitSetUtility17GetNumberOfBlocksEj
6229:__ZN13MonoBehaviour9SetScriptERK4PPtrI10MonoScriptE18ScriptingObjectPtr
6230:__ZN13MonoBehaviour8SetClassE17ScriptingClassPtr18ScriptingObjectPtr
6231:__ZN13MonoBehaviour22DoScriptRebuildWarningEv
6232:__ZNK10MonoScript13GetScriptTypeEv
6233:__ZN13MonoBehaviour35RebuildMonoInstanceFromScriptChangeE17ScriptingClassPtr18ScriptingObjectPtr
6234:__ZNK13MonoBehaviour15CanAssignScriptERK4PPtrI10MonoScriptE
6235:__ZN10MonoScript7ReleaseEv
6236:__Z25FindConflictingComponentsPKN5Unity4TypeE
6237:__Z15CanAddComponentR10GameObjectPKN5Unity4TypeE
6238:__Z21CheckForAbstractClassR10GameObjectPKN5Unity4TypeEPN4core12basic_stringIcNS5_20StringStorageDefaultIcEEEE
6239:__Z12CanAddScriptR10GameObject17ScriptingClassPtrPS1_S2_
6240:__Z20RequiredComponentsOf17ScriptingClassPtr
6241:__Z39scripting_class_from_systemtypeinstance28ScriptingSystemTypeObjectPtr
6242:__ZN23ManagedAttributeManager21GetRequiredComponentsE17ScriptingClassPtr
6243:__ZN23ManagedAttributeManager32CallManagedGetRequiredComponentsE17ScriptingClassPtr
6244:__ZN23ManagedAttributeManager41GetParentTypeDisallowingMultipleInclusionE17ScriptingClassPtr
6245:__ZN23ManagedAttributeManager52CallManagedGetParentTypeDisallowingMultipleInclusionE17ScriptingClassPtr
6246:__ZN10GameObjectC2E18MemLabelIdentifier18ObjectCreationMode
6247:__ZN10GameObjectD2Ev
6248:__ZN10GameObjectD0Ev
6249:__ZN10GameObject13AwakeFromLoadE17AwakeFromLoadMode
6250:__ZN10GameObject16CheckConsistencyEv
6251:__ZN10GameObject5ResetEv
6252:__ZNK10GameObject26GetTypeInfoVirtualInternalEv
6253:__ZNK10GameObject7GetNameEv
6254:__ZN10GameObject7SetNameEPKc
6255:__ZN10GameObject12SetHideFlagsEN6Object9HideFlagsE
6256:__ZN10GameObject23VirtualRedirectTransferER19StreamedBinaryWriteILb0EE
6257:__ZN10GameObject23VirtualRedirectTransferER18StreamedBinaryReadILb0EE
6258:__ZN10GameObject23VirtualRedirectTransferER17RemapPPtrTransfer
6259:__ZN10GameObject23VirtualRedirectTransferER24GenerateTypeTreeTransfer
6260:__ZN10GameObject23VirtualRedirectTransferER14SafeBinaryRead
6261:__ZN10GameObject8TransferI14SafeBinaryReadEEvRT_
6262:__ZN10GameObject18TransferComponentsI14SafeBinaryReadEEvRT_
6263:__ZN14SafeBinaryRead21TransferSTLStyleArrayI13dynamic_arrayINSt3__24pairIi12ImmediatePtrIN5Unity9ComponentEEEELj4EEEEvRT_17TransferMetaFlags
6264:__ZN14SafeBinaryRead21TransferSTLStyleArrayI13dynamic_arrayIN10GameObject13ComponentPairELj4EEEEvRT_17TransferMetaFlags
6265:__ZN15SerializeTraitsI13dynamic_arrayIN10GameObject13ComponentPairELj4EEE19ResizeSTLStyleArrayERS3_i18MemLabelIdentifier
6266:__ZN12ImmediatePtrIN5Unity9ComponentEE8TransferI14SafeBinaryReadEEvRT_
6267:__ZN15SerializeTraitsINSt3__24pairIi12ImmediatePtrIN5Unity9ComponentEEEEE8TransferI14SafeBinaryReadEEvRS6_RT_
6268:__ZN10GameObject8TransferI24GenerateTypeTreeTransferEEvRT_
6269:__ZN10GameObject18TransferComponentsI24GenerateTypeTreeTransferEEvRT_
6270:__ZN10GameObject18TransferComponentsI17RemapPPtrTransferEEvRT_
6271:__ZN17RemapPPtrTransfer12PushMetaFlagE17TransferMetaFlags
6272:__ZN17RemapPPtrTransfer11PopMetaFlagEv
6273:__ZN10GameObject8TransferI18StreamedBinaryReadILb0EEEEvRT_
6274:__ZN12ImmediatePtrIN5Unity9ComponentEE8TransferI18StreamedBinaryReadILb0EEEEvRT_
6275:__ZN10GameObject8TransferI19StreamedBinaryWriteILb0EEEEvRT_
6276:__ZN12ImmediatePtrIN5Unity9ComponentEE8TransferI19StreamedBinaryWriteILb0EEEEvRT_
6277:__ZN13RenderTexture15DiscardContentsEbb
6278:__ZN6Camera25StandaloneRenderToCubemapEP7TextureiPFvPK9SceneNodePK4AABBR9IndexListPvESA_
6279:__ZN12_GLOBAL__N_1L37PostProcessCullResultsForSkyboxProbesEPK9SceneNodePK4AABBR9IndexListPv
6280:__Z27IsSupportedReadPixelsFormat13TextureFormat17GfxDeviceRenderer
6281:__ZN9Texture2D10ReadPixelsEiiiiiiibb
6282:__ZN13RenderTexture15DiscardContentsEv
6283:__ZN7Texture19SetStoredColorSpaceE17TextureColorSpace
6284:__ZN17SharedTextureData17GetImageReferenceEP14ImageReferenceii
6285:__ZN14ImageReference10FlipImageYEv
6286:__ZN6prcore10FlipImageYER14ImageReference
6287:__ZN6prcoreL10inner_flipILj2EEEvPhS1_j
6288:__ZN6prcoreL10inner_flipILj3EEEvPhS1_j
6289:__ZN6prcoreL10inner_flipILj4EEEvPhS1_j
6290:__ZN6prcoreL10inner_flipILj1EEEvPhS1_j
6291:__ZN13dynamic_arrayIN23ReflectionProbesContext23ReflectionProbeCubeInfoELj4EE18resize_initializedEjRKS1_12ResizePolicy
6292:__ZNK16ReflectionProbes21GenerateDefaultSampleEv
6293:__ZN16ReflectionProbes8ScheduleEN18ReflectionProbeJob7JobTypeEP15ReflectionProbei
6294:__ZNSt3__25dequeI18ReflectionProbeJobNS_9allocatorIS1_EEE19__add_back_capacityEv
6295:__ZNSt3__214__split_bufferIP18ReflectionProbeJobNS_9allocatorIS2_EEE10push_frontERKS2_
6296:__Z29GetCustomRenderTextureManagerv
6297:__ZN26CustomRenderTextureManager6UpdateEb
6298:__ZN26CustomRenderTextureManager17RecreateResourcesEv
6299:__ZN19CustomRenderTexture26ComputeTextureDependenciesEv
6300:__ZN19CustomRenderTexture26CheckUpdateDataConsistencyEv
6301:__ZN19CustomRenderTexture29CheckDoubleBufferConsistentcyEv
6302:__ZN19CustomRenderTexture22NeedUpdateDependenciesEv
6303:__ZN26CustomRenderTextureManager13TriggerUpdateEP19CustomRenderTexturej
6304:__ZN26CustomRenderTextureManager24InitCustomRenderTexturesERK13dynamic_arrayIP19CustomRenderTextureLj4EE
6305:__ZN26CustomRenderTextureManager26UpdateCustomRenderTexturesER13dynamic_arrayIP19CustomRenderTextureLj4EEb
6306:__ZNSt3__26__sortIR11SortFunctorPP19CustomRenderTextureEEvT0_S6_T_
6307:__ZN26CustomRenderTextureManager25UpdateCustomRenderTextureEP19CustomRenderTexturei
6308:__ZN8Material9SetVectorEN9ShaderLab16FastPropertyNameERK8Vector4f
6309:__ZN8Material14SetVectorArrayEN9ShaderLab16FastPropertyNameEPK8Vector4fj
6310:__ZN8Material13SetFloatArrayEN9ShaderLab16FastPropertyNameEPKfj
6311:__ZN11SortFunctorclEP19CustomRenderTextureS1_
6312:__ZNSt3__27__sort3IR11SortFunctorPP19CustomRenderTextureEEjT0_S6_S6_T_
6313:__ZNSt3__27__sort4IR11SortFunctorPP19CustomRenderTextureEEjT0_S6_S6_S6_T_
6314:__ZNSt3__27__sort5IR11SortFunctorPP19CustomRenderTextureEEjT0_S6_S6_S6_S6_T_
6315:__ZNSt3__227__insertion_sort_incompleteIR11SortFunctorPP19CustomRenderTextureEEbT0_S6_T_
6316:__Z24GetDependenciesRecursive4PPtrI19CustomRenderTextureEPKS0_RNSt3__23setIS1_NS4_4lessIS1_EENS4_9allocatorIS1_EEEE
6317:__ZNSt3__26__treeI4PPtrI19CustomRenderTextureENS_4lessIS3_EENS_9allocatorIS3_EEE7destroyEPNS_11__tree_nodeIS3_PvEE
6318:__ZN26CustomRenderTextureManager23InitCustomRenderTextureEP19CustomRenderTexturei
6319:__ZN8Material8SetColorEN9ShaderLab16FastPropertyNameERK10ColorRGBAf
6320:__ZN8Material10ComputeCRCEv
6321:__Z7CRCFeedjPKhj
6322:__Z7CRCDonej
6323:__ZN19CustomRenderTexture18CreateDoubleBufferEv
6324:__ZN13RenderTexture14SetVolumeDepthEi
6325:__ZN19CustomRenderTexture20AddUpdateZoneGPUDataERK8Vector4fS2_jib
6326:__ZN19CustomRenderTexture22HandleBoundaryWrappingERKNS_14UpdateZoneInfoEj
6327:__ZN19CustomRenderTexture22ClearChildDependenciesEv
6328:__ZN19CustomRenderTexture8AddChildE4PPtrIS_E
6329:__ZN19CustomRenderTexture9AddParentE4PPtrIS_E
6330:__ZN19CustomRenderTexture26ComputeTextureDependenciesEP8Material
6331:__ZN7Texture15FindTextureByIDE9TextureID
6332:__ZN12InputManager17GetTextFieldInputEv
6333:__ZN12InputManager14ResetInputAxesEv
6334:__ZN12InputManager12ProcessInputEv
6335:__ZN13RendererScene15NotifyInvisibleEv
6336:__ZN14PreloadManager16UpdatePreloadingEv
6337:__ZN14UnityWebStream24UpdateAllUnityWebStreamsEv
6338:__Z17HasFrameToPresentv
6339:__Z21GetBackgroundJobQueuev
6340:__ZN18BackgroundJobQueue21ExecuteMainThreadJobsEv
6341:__ZN13RenderManager28AreCamerasUsingMotionVectorsEv
6342:__ZN13RenderManager27UpdatePreviousFrameMatricesEv
6343:__ZN6Camera34UpdatePreviousViewProjectionMatrixEv
6344:__ZN18ScreenManagerWebGLC2Ev
6345:__ZN13ScreenManagerC2Ev
6346:__Z24FullscreenChangeCallbackiPK31EmscriptenFullscreenChangeEventPv
6347:__Z13FocusCallbackiPK20EmscriptenFocusEventPv
6348:__Z14SetPlayerFocusb
6349:__Z30GetPlayerShouldRunInBackgroundv
6350:__ZNK13ScreenManager20GetCurrentResolutionEv
6351:__ZN13ScreenManager21SetCursorInsideWindowEb
6352:__ZNK13ScreenManager12IsFullScreenEv
6353:__ZN35RegisterRuntimeInitializeAndCleanup22ExecuteInitializationsEv
6354:__ZNSt3__26__sortIRNS_6__lessI15OrderedCallbackS2_EEPS2_EEvT0_S6_T_
6355:__ZNSt3__27__sort4IRNS_6__lessI15OrderedCallbackS2_EEPS2_EEjT0_S6_S6_S6_T_
6356:__ZNSt3__227__insertion_sort_incompleteIRNS_6__lessI15OrderedCallbackS2_EEPS2_EEbT0_S6_T_
6357:__ZN13RuntimeStaticI13ModuleManagerLb0EE10InitializeEv
6358:__ZN14ManagerContext17InitializeClassesEv
6359:__ZN17MessageIdentifier14CheckIntegrityEv
6360:__ZN13sorted_vectorINSt3__24pairIN4core12basic_stringIcNS2_20StringStorageDefaultIcEEEEPK17MessageIdentifierEEN10vector_mapIS6_S9_NS0_4lessIS6_EENS0_9allocatorISA_EEE13value_compareESF_E4findIS6_EENS0_11__wrap_iterIPSA_EERKT_
6361:__ZN13sorted_vectorINSt3__24pairIN4core12basic_stringIcNS2_20StringStorageDefaultIcEEEEPK17MessageIdentifierEEN10vector_mapIS6_S9_NS0_4lessIS6_EENS0_9allocatorISA_EEE13value_compareESF_E10insert_oneERKSA_
6362:__ZZN17MessageIdentifier14CheckIntegrityEvEN27ByMessageOptimizationSorter7CompareEPKS_S2_
6363:__ZN14qsort_internal5QSortIPPK17MessageIdentifieriPFbS3_S3_EEEvT_S7_T0_T1_
6364:__ZN14qsort_internal30FindAndMovePivotToLastPositionIPPK17MessageIdentifieriPFbS3_S3_EEEvT_S7_T0_T1_
6365:__ZNSt3__26vectorINS_4pairIN4core12basic_stringIcNS2_20StringStorageDefaultIcEEEEPK17MessageIdentifierEENS_9allocatorISA_EEE6insertENS_11__wrap_iterIPKSA_EERSF_
6366:__ZNSt3__26vectorINS_4pairIN4core12basic_stringIcNS2_20StringStorageDefaultIcEEEEPK17MessageIdentifierEENS_9allocatorISA_EEE12__move_rangeEPSA_SE_SE_
6367:__ZNSt3__26vectorINS_4pairIN4core12basic_stringIcNS2_20StringStorageDefaultIcEEEEPK17MessageIdentifierEENS_9allocatorISA_EEE26__swap_out_circular_bufferERNS_14__split_bufferISA_RSC_EEPSA_
6368:__ZN13OpenFileCacheC2E18MemLabelIdentifier
6369:__ZN4FileC2Ev
6370:__ZN11TypeManager25InitializeDerivedFromInfoEv
6371:__ZN11TypeManager7Builder5BuildERK14dense_hash_mapIiP4RTTINS_27HashFunctorPersistentTypeIDENSt3__28equal_toIiEE13stl_allocatorINS5_4pairIKiS3_EEL18MemLabelIdentifier6ELi16EEE
6372:__ZN11TypeManager7Builder3AddEP4RTTI
6373:__ZN11TypeManager7Builder18TraverseDepthFirstERKNS0_4NodeEj
6374:__ZN17PersistentManager12SetPathRemapERKN4core12basic_stringIcNS0_20StringStorageDefaultIcEEEES6_
6375:__ZN13sorted_vectorINSt3__24pairIN4core12basic_stringIcNS2_20StringStorageDefaultIcEEEES6_EEN10vector_mapIS6_S6_27compare_tstring_insensitiveIS6_E13stl_allocatorIS7_L18MemLabelIdentifier37ELi16EEE13value_compareESD_E10insert_oneERKS7_
6376:__ZN13sorted_vectorINSt3__24pairIN4core12basic_stringIcNS2_20StringStorageDefaultIcEEEES6_EEN10vector_mapIS6_S6_27compare_tstring_insensitiveIS6_E13stl_allocatorIS7_L18MemLabelIdentifier37ELi16EEE13value_compareESD_E9erase_oneIS6_EEjRKT_
6377:__ZNSt3__26vectorINS_4pairIN4core12basic_stringIcNS2_20StringStorageDefaultIcEEEES6_EE13stl_allocatorIS7_L18MemLabelIdentifier37ELi16EEE6insertENS_11__wrap_iterIPKS7_EERSD_
6378:__ZNSt3__26vectorINS_4pairIN4core12basic_stringIcNS2_20StringStorageDefaultIcEEEES6_EE13stl_allocatorIS7_L18MemLabelIdentifier37ELi16EEE12__move_rangeEPS7_SC_SC_
6379:__ZNSt3__26vectorINS_4pairIN4core12basic_stringIcNS2_20StringStorageDefaultIcEEEES6_EE13stl_allocatorIS7_L18MemLabelIdentifier37ELi16EEE26__swap_out_circular_bufferERNS_14__split_bufferIS7_RSA_EEPS7_
6380:__ZN17PersistentManagerC2Eii
6381:__ZN25PathNamePersistentManagerD2Ev
6382:__ZN25PathNamePersistentManagerD0Ev
6383:__ZN25PathNamePersistentManager28InsertFileIdentifierInternalE14FileIdentifierb
6384:__ZN25PathNamePersistentManager22InsertPathNameInternalERKN4core12basic_stringIcNS0_20StringStorageDefaultIcEEEEb
6385:__ZN25PathNamePersistentManager24PathIDToPathNameInternalEi
6386:__ZN25PathNamePersistentManager30PathIDToFileIdentifierInternalEi
6387:__ZN17PersistentManager9AddStreamEv
6388:__ZNSt3__26vectorI10vector_mapIiiNS_4lessIiEE13stl_allocatorINS_4pairIiiEEL18MemLabelIdentifier37ELi16EEES4_IS9_LS7_37ELi16EEE21__push_back_slow_pathIKS9_EEvRT_
6389:__ZNSt3__26vectorI10vector_mapIiiNS_4lessIiEE13stl_allocatorINS_4pairIiiEEL18MemLabelIdentifier37ELi16EEES4_IS9_LS7_37ELi16EEE26__swap_out_circular_bufferERNS_14__split_bufferIS9_RSA_EE
6390:__ZNSt3__26__treeINS_12__value_typeIN4core12basic_stringIcNS2_20StringStorageDefaultIcEEEEiEENS_19__map_value_compareIS6_S7_NS_4lessIS6_EELb1EEENS_9allocatorIS7_EEE7destroyEPNS_11__tree_nodeIS7_PvEE
6391:__ZN17PersistentManagerD2Ev
6392:__ZNSt3__26__treeINS_12__value_typeIi26SerializedObjectIdentifierEENS_19__map_value_compareIiS3_NS_4lessIiEELb1EEENS_9allocatorIS3_EEE7destroyEPNS_11__tree_nodeIS3_PvEE
6393:__ZNSt3__26__treeINS_12__value_typeI26SerializedObjectIdentifieriEENS_19__map_value_compareIS2_S3_NS_4lessIS2_EELb1EEENS_9allocatorIS3_EEE7destroyEPNS_11__tree_nodeIS3_PvEE
6394:__Z20CleanupStdConvertersv
6395:__ZNSt3__26__treeIN4core12basic_stringIcNS1_20StringStorageDefaultIcEEEENS_4lessIS5_EE13stl_allocatorIS5_L18MemLabelIdentifier37ELi16EEE7destroyEPNS_11__tree_nodeIS5_PvEE
6396:__ZN14SafeBinaryRead21CleanupConverterTableEv
6397:__ZN17PersistentManagerD0Ev
6398:__ZN15dense_hashtableINSt3__24pairIKi17ThreadedAwakeDataEEi21InstanceIDHashFunctorN14dense_hash_mapIiS3_S5_NS0_8equal_toIiEENS0_9allocatorIS4_EEE9SelectKeyES8_SA_E14squash_deletedEv
6399:__Z23InitializeStdConvertersv
6400:__Z29StdTemplateConversionFunctionIfdEbPvR14SafeBinaryRead
6401:__ZN14SafeBinaryRead17RegisterConverterEPKcS1_PFbPvRS_E
6402:__Z29StdTemplateConversionFunctionIdfEbPvR14SafeBinaryRead
6403:__Z29StdTemplateConversionFunctionIifEbPvR14SafeBinaryRead
6404:__Z29StdTemplateConversionFunctionIyyEbPvR14SafeBinaryRead
6405:__Z29StdTemplateConversionFunctionIyiEbPvR14SafeBinaryRead
6406:__Z29StdTemplateConversionFunctionIytEbPvR14SafeBinaryRead
6407:__Z29StdTemplateConversionFunctionIyhEbPvR14SafeBinaryRead
6408:__Z29StdTemplateConversionFunctionIybEbPvR14SafeBinaryRead
6409:__Z29StdTemplateConversionFunctionIiyEbPvR14SafeBinaryRead
6410:__Z29StdTemplateConversionFunctionIiiEbPvR14SafeBinaryRead
6411:__Z29StdTemplateConversionFunctionIitEbPvR14SafeBinaryRead
6412:__Z29StdTemplateConversionFunctionIihEbPvR14SafeBinaryRead
6413:__Z29StdTemplateConversionFunctionIibEbPvR14SafeBinaryRead
6414:__Z29StdTemplateConversionFunctionIjyEbPvR14SafeBinaryRead
6415:__Z29StdTemplateConversionFunctionItyEbPvR14SafeBinaryRead
6416:__Z29StdTemplateConversionFunctionItiEbPvR14SafeBinaryRead
6417:__Z29StdTemplateConversionFunctionIttEbPvR14SafeBinaryRead
6418:__Z29StdTemplateConversionFunctionIthEbPvR14SafeBinaryRead
6419:__Z29StdTemplateConversionFunctionItbEbPvR14SafeBinaryRead
6420:__Z29StdTemplateConversionFunctionIsyEbPvR14SafeBinaryRead
6421:__Z29StdTemplateConversionFunctionIsiEbPvR14SafeBinaryRead
6422:__Z29StdTemplateConversionFunctionIhyEbPvR14SafeBinaryRead
6423:__Z29StdTemplateConversionFunctionIhiEbPvR14SafeBinaryRead
6424:__Z29StdTemplateConversionFunctionIhtEbPvR14SafeBinaryRead
6425:__Z29StdTemplateConversionFunctionIhhEbPvR14SafeBinaryRead
6426:__Z29StdTemplateConversionFunctionIhbEbPvR14SafeBinaryRead
6427:__Z29StdTemplateConversionFunctionIayEbPvR14SafeBinaryRead
6428:__Z29StdTemplateConversionFunctionIaiEbPvR14SafeBinaryRead
6429:__Z29StdTemplateConversionFunctionIatEbPvR14SafeBinaryRead
6430:__Z23ConvertIntegerToTypePtrIsEbPvR14SafeBinaryRead
6431:__Z23ConvertIntegerToTypePtrItEbPvR14SafeBinaryRead
6432:__Z23ConvertIntegerToTypePtrIiEbPvR14SafeBinaryRead
6433:__ZNSt3__23mapINS_4pairIPcS2_EEPFbPvR14SafeBinaryReadE20smaller_tstring_pairIPKcENS_9allocatorINS1_IKS3_S8_EEEEEixERSE_
6434:__ZN10FileSystem19SetCurrentDirectoryERKN4core12basic_stringIcNS0_20StringStorageDefaultIcEEEE
6435:__Z3md5PhiS_
6436:__Z11MD5ToStringPh
6437:__Z24CreateDirectoryRecursiveRKN4core12basic_stringIcNS_20StringStorageDefaultIcEEEE
6438:__ZL11md5_processP11md5_contextPh
6439:__Z10md5_finishP11md5_contextPh
6440:__ZN10FileSystem5StartEv
6441:__ZN16MemoryFileSystemC2EPKc
6442:__ZN16MemoryFileSystem16FindNodeOrCreateEPKcb
6443:__Z14SkipPathPrefixPKcS0_jb
6444:__ZN16MemoryFileSystemD2Ev
6445:__ZN16MemoryFileSystemD0Ev
6446:__ZN16MemoryFileSystem4OpenER13FileEntryData14FilePermission16FileAutoBehavior
6447:__ZN16MemoryFileSystem5CloseER13FileEntryData
6448:__ZN16MemoryFileSystem9SetLengthER13FileEntryDatay
6449:__ZNK16MemoryFileSystem4SizeERK13FileEntryData
6450:__ZNK16MemoryFileSystem9CanHandleEPKc
6451:__ZN16MemoryFileSystem10ToAbsoluteEPKc
6452:__ZN16MemoryFileSystem18IsAbsoluteFilePathEPKc
6453:__ZN16MemoryFileSystem4NameEv
6454:__ZNK16MemoryFileSystem6ParentERK13FileEntryDataRN4core12basic_stringIcNS3_20StringStorageDefaultIcEEEE
6455:__ZNK16MemoryFileSystem8FilenameERK13FileEntryData
6456:__ZNK16MemoryFileSystem5IsDirERK13FileEntryData
6457:__ZNK16MemoryFileSystem8IsHiddenERK13FileEntryData
6458:__ZNK16MemoryFileSystem12LastModifiedERK13FileEntryData
6459:__ZN16MemoryFileSystem8IsLockedERK13FileEntryData
6460:__ZN16MemoryFileSystem8SetFlagsER13FileEntryDatajj
6461:__ZN16MemoryFileSystem12CreateAsFileER13FileEntryData
6462:__ZN16MemoryFileSystem11CreateAsDirER13FileEntryData
6463:__ZN16MemoryFileSystem6DeleteER13FileEntryDatab
6464:__ZN16MemoryFileSystem4CopyER13FileEntryDataS1_
6465:__ZN16MemoryFileSystem10AtomicMoveER13FileEntryDataS1_
6466:__ZNK16MemoryFileSystem9EnumerateEPKcP13dynamic_arrayI13FileEntryInfoLj8EEbPPv19FileEnumerationFlag
6467:__ZNK16MemoryFileSystem6ExistsERK13FileEntryData
6468:__ZNK16MemoryFileSystem30GetRelativeCaseInsensitivePathEPKcRN4core12basic_stringIcNS2_20StringStorageDefaultIcEEEE
6469:__Z22ReplaceDirectoryInPathRKN4core12basic_stringIcNS_20StringStorageDefaultIcEEEES5_S5_
6470:__Z19StandardizePathNameRKN4core12basic_stringIcNS_20StringStorageDefaultIcEEEE
6471:__ZNSt3__26__treeINS_12__value_typeIN4core12basic_stringIcNS2_20StringStorageDefaultIcEEEEPN16MemoryFileSystem4NodeEEENS_19__map_value_compareIS6_SA_NS_4lessIS6_EELb1EEE13stl_allocatorISA_L18MemLabelIdentifier54ELi16EEE7destroyEPNS_11__tree_nodeISA_PvEE
6472:__Z24RegisterAllInternalCallsv
6473:__Z33SetCaptureAllKeyboardInputEnabledb
6474:__ZL18MouseButtonHandleriPK20EmscriptenMouseEventPv
6475:__ZL16MouseMoveHandleriPK20EmscriptenMouseEventPv
6476:__ZL17MouseWheelHandleriPK20EmscriptenWheelEventPv
6477:__ZL12TouchHandleriPK20EmscriptenTouchEventPv
6478:__ZL13MotionHandleriPK27EmscriptenDeviceMotionEventPv
6479:__Z19NormalizeWheelInputf
6480:__ZN10InputEvent4InitEi
6481:__ZN15GUIEventManager10QueueEventERK10InputEvent
6482:__ZNSt3__25dequeI10InputEventNS_9allocatorIS1_EEE19__add_back_capacityEv
6483:__ZN10InputEventC2ERKS_
6484:__ZL10KeyHandleriPK23EmscriptenKeyboardEventPv
6485:__ZL11TextHandleriPK23EmscriptenKeyboardEventPv
6486:__Z18ConvertUTF16toUTF8PKtiRN4core12basic_stringIcNS1_20StringStorageDefaultIcEEEE
6487:__Z16SanitizeKeyEventR10InputEvent
6488:__ZN12InputManager30GetEatKeyPressOnTextFieldFocusEv
6489:__ZN10systeminfo24GetOperatingSystemFamilyEv
6490:__ZN10systeminfo18GetOperatingSystemEv
6491:__ZN13MemoryManager16ThreadInitializeEj
6492:__ZN13MemoryManager27InitializeDefaultAllocatorsEv
6493:__ZN14StackAllocatorC2Ej18MemLabelIdentifierPKc
6494:__ZN14StackAllocatorD2Ev
6495:__ZN14StackAllocatorD0Ev
6496:__ZNK14StackAllocator8ContainsEPKv
6497:__ZNK14StackAllocator10GetPtrSizeEPKv
6498:__ZN14StackAllocator16FrameMaintenanceEb
6499:__ZN13MemoryManager18LowLevelReallocateEPvjj
6500:__ZN12TLSAllocatorI14StackAllocatorEC2EPKc
6501:__ZN13BaseAllocatorC2EPKc
6502:__ZN12TLSAllocatorI14StackAllocatorED2Ev
6503:__ZN12TLSAllocatorI14StackAllocatorED0Ev
6504:__ZN12TLSAllocatorI14StackAllocatorE10DeallocateEPv
6505:__ZNK12TLSAllocatorI14StackAllocatorE8ContainsEPKv
6506:__ZNK12TLSAllocatorI14StackAllocatorE10IsAssignedEv
6507:__ZNK12TLSAllocatorI14StackAllocatorE22GetAllocatedMemorySizeEv
6508:__ZNK12TLSAllocatorI14StackAllocatorE21GetReservedMemorySizeEv
6509:__ZNK12TLSAllocatorI14StackAllocatorE24GetBookKeepingMemorySizeEv
6510:__ZN12TLSAllocatorI14StackAllocatorE16ThreadInitializeEP13BaseAllocator
6511:__ZN12TLSAllocatorI14StackAllocatorE13ThreadCleanupEv
6512:__ZN12TLSAllocatorI14StackAllocatorE16FrameMaintenanceEb
6513:__ZNK14StackAllocator20IsOverflowAllocationEPKv
6514:__ZN13BaseAllocator13TryDeallocateEPv
6515:__ZN25ThreadsafeLinearAllocatorC2EiiPKc
6516:__ZN25ThreadsafeLinearAllocatorD2Ev
6517:__ZN25ThreadsafeLinearAllocatorD0Ev
6518:__ZN25ThreadsafeLinearAllocator8AllocateEji
6519:__ZN25ThreadsafeLinearAllocator10ReallocateEPvji
6520:__ZN25ThreadsafeLinearAllocator10DeallocateEPv
6521:__ZN25ThreadsafeLinearAllocator13TryDeallocateEPv
6522:__ZNK25ThreadsafeLinearAllocator8ContainsEPKv
6523:__ZNK25ThreadsafeLinearAllocator10GetPtrSizeEPKv
6524:__ZNK25ThreadsafeLinearAllocator22GetAllocatedMemorySizeEv
6525:__ZNK25ThreadsafeLinearAllocator21GetReservedMemorySizeEv
6526:__ZN25ThreadsafeLinearAllocator16FrameMaintenanceEb
6527:__ZN21UnityDefaultAllocatorI17LowLevelAllocatorEC2EPKc
6528:__ZN21UnityDefaultAllocatorI17LowLevelAllocatorED2Ev
6529:__ZN21UnityDefaultAllocatorI17LowLevelAllocatorED0Ev
6530:__ZN21UnityDefaultAllocatorI17LowLevelAllocatorE8AllocateEji
6531:__ZN21UnityDefaultAllocatorI17LowLevelAllocatorE10ReallocateEPvji
6532:__ZN21UnityDefaultAllocatorI17LowLevelAllocatorE10DeallocateEPv
6533:__ZNK21UnityDefaultAllocatorI17LowLevelAllocatorE8ContainsEPKv
6534:__ZNK21UnityDefaultAllocatorI17LowLevelAllocatorE14AllocationPageIL11RequestType1EEEbPKv
6535:__ZN17LowLevelAllocator4FreeEPvj
6536:__ZN17LowLevelAllocator7ReallocEPvjj
6537:__ZNK21UnityDefaultAllocatorI17LowLevelAllocatorE14AllocationPageIL11RequestType0EEEbPKv
6538:__ZN13MemoryManager17LowLevelCAllocateEjj
6539:__ZN17LowLevelAllocator6MallocEj
6540:__Z20SetStackTraceLogType17StackTraceLogType
6541:__ZN13ScreenManager24SetIsFullScreenImmediateEb
6542:__Z27FindActiveTransformWithPathPKc
6543:__ZN9Scripting20SendScriptingMessageER10GameObjectPKc18ScriptingObjectPtr
6544:__ZN9Scripting16FindMethodCachedE17ScriptingClassPtrPKc
6545:__ZN9Scripting26GetMethodWithSearchOptionsE17ScriptingClassPtrPKcN24ScriptingMethodFiltering18MethodSearchFilterE
6546:__Z20GetGameObjectManagerv
6547:__ZL31FindActiveTransformWithPathImplPKcR10GameObjectb
6548:__Z29FindRelativeTransformWithPathR9TransformPKcb
6549:__ZN5Unity9Component16CheckConsistencyEv
6550:__ZNK5Unity9Component7GetNameEv
6551:__ZN5Unity9Component7SetNameEPKc
6552:__ZN9Behaviour10DeactivateE19DeactivateOperation
6553:__ZN9Behaviour10SetEnabledEb
6554:__Z25FindAncestorComponentImplR10GameObjectPKN5Unity4TypeE
6555:__ZN9Behaviour8TransferI14SafeBinaryReadEEvRT_
6556:__ZN5Unity9Component8TransferI14SafeBinaryReadEEvRT_
6557:__ZN9Behaviour8TransferI24GenerateTypeTreeTransferEEvRT_
6558:__ZN5Unity9Component8TransferI24GenerateTypeTreeTransferEEvRT_
6559:__ZN9Behaviour8TransferI17RemapPPtrTransferEEvRT_
6560:__ZN5Unity9Component8TransferI17RemapPPtrTransferEEvRT_
6561:__ZN9Behaviour8TransferI18StreamedBinaryReadILb0EEEEvRT_
6562:__ZN5Unity9Component8TransferI18StreamedBinaryReadILb0EEEEvRT_
6563:__ZN9Behaviour8TransferI19StreamedBinaryWriteILb0EEEEvRT_
6564:__ZN5Unity9Component8TransferI19StreamedBinaryWriteILb0EEEEvRT_
6565:__ZN9Behaviour13AwakeFromLoadE17AwakeFromLoadMode
6566:__ZNK5Unity9Component26GetTypeInfoVirtualInternalEv
6567:__ZN5Unity9Component23VirtualRedirectTransferER24GenerateTypeTreeTransfer
6568:__ZN5Unity9Component23VirtualRedirectTransferER14SafeBinaryRead
6569:__ZN5Unity9Component10SetEnabledEb
6570:__ZN9BehaviourD2Ev
6571:__ZN9BehaviourD0Ev
6572:__ZNK9Behaviour26GetTypeInfoVirtualInternalEv
6573:__ZN9Behaviour23VirtualRedirectTransferER24GenerateTypeTreeTransfer
6574:__ZN9Behaviour23VirtualRedirectTransferER14SafeBinaryRead
6575:__ZN11AssetBundleD2Ev
6576:__ZN11AssetBundleD0Ev
6577:__ZNK11AssetBundle26GetTypeInfoVirtualInternalEv
6578:__ZN11AssetBundle23VirtualRedirectTransferER19StreamedBinaryWriteILb0EE
6579:__ZN11AssetBundle23VirtualRedirectTransferER18StreamedBinaryReadILb0EE
6580:__ZN11AssetBundle23VirtualRedirectTransferER17RemapPPtrTransfer
6581:__ZN11AssetBundle23VirtualRedirectTransferER24GenerateTypeTreeTransfer
6582:__ZN11AssetBundle23VirtualRedirectTransferER14SafeBinaryRead
6583:__ZN11AssetBundle8TransferI14SafeBinaryReadEEvRT_
6584:__ZN14SafeBinaryRead12IsOldVersionEi
6585:__ZN14SafeBinaryRead19TransferSTLStyleMapINSt3__28multimapIN4core12basic_stringIcNS3_20StringStorageDefaultIcEEEE4PPtrI6ObjectENS1_4lessIS7_EENS1_9allocatorINS1_4pairIKS7_SA_EEEEEEEEvRT_17TransferMetaFlags
6586:__ZNSt3__26__treeINS_12__value_typeIN4core12basic_stringIcNS2_20StringStorageDefaultIcEEEEN11AssetBundle9AssetInfoEEENS_19__map_value_compareIS6_S9_NS_4lessIS6_EELb1EEENS_9allocatorIS9_EEE7destroyEPNS_11__tree_nodeIS9_PvEE
6587:__ZNSt3__26__treeINS_12__value_typeIN4core12basic_stringIcNS2_20StringStorageDefaultIcEEEE4PPtrI6ObjectEEENS_19__map_value_compareIS6_SA_NS_4lessIS6_EELb1EEENS_9allocatorISA_EEE7destroyEPNS_11__tree_nodeISA_PvEE
6588:__ZN14SafeBinaryRead19TransferSTLStyleMapINSt3__28multimapIN4core12basic_stringIcNS3_20StringStorageDefaultIcEEEEN11AssetBundle9AssetInfoENS1_4lessIS7_EENS1_9allocatorINS1_4pairIKS7_S9_EEEEEEEEvRT_17TransferMetaFlags
6589:__ZN11AssetBundle9AssetInfo8TransferI14SafeBinaryReadEEvRT_
6590:__ZN14SafeBinaryRead8TransferI14ConstantStringEEvRT_PKc17TransferMetaFlags
6591:__ZN14SafeBinaryRead21TransferSTLStyleArrayINSt3__26vectorI14ConstantStringNS1_9allocatorIS3_EEEEEEvRT_17TransferMetaFlags
6592:__ZN11AssetBundle44BuildLookupAndNameContainerFromPathContainerEv
6593:__ZN17PersistentManager18GetSerializedTypesERK13dynamic_arrayIiLj4EERS0_IPKN5Unity4TypeELj4EE
6594:__Z14resize_trimmedINSt3__26vectorI14ConstantStringNS0_9allocatorIS2_EEEEEvRT_j
6595:__ZNSt3__26vectorI14ConstantStringNS_9allocatorIS1_EEE6assignINS_11__wrap_iterIPS1_EEEENS_9enable_ifIXaasr21__is_forward_iteratorIT_EE5valuesr16is_constructibleIS1_NS_15iterator_traitsISA_E9referenceEEE5valueEvE4typeESA_SA_
6596:__ZNSt3__26vectorI14ConstantStringNS_9allocatorIS1_EEE8__appendEj
6597:__ZN14ConstantString6assignERKS_
6598:__ZN15SerializeTraitsINSt3__24pairIN4core12basic_stringIcNS2_20StringStorageDefaultIcEEEEN11AssetBundle9AssetInfoEEEE8TransferI14SafeBinaryReadEEvRS9_RT_
6599:__ZN15SerializeTraitsINSt3__24pairIN4core12basic_stringIcNS2_20StringStorageDefaultIcEEEE4PPtrI6ObjectEEEE8TransferI14SafeBinaryReadEEvRSA_RT_
6600:__ZN11AssetBundle8TransferI24GenerateTypeTreeTransferEEvRT_
6601:__ZN24GenerateTypeTreeTransfer19TransferSTLStyleMapINSt3__28multimapIN4core12basic_stringIcNS3_20StringStorageDefaultIcEEEEN11AssetBundle9AssetInfoENS1_4lessIS7_EENS1_9allocatorINS1_4pairIKS7_S9_EEEEEEEEvRT_17TransferMetaFlags
6602:__ZN24GenerateTypeTreeTransfer8TransferIN11AssetBundle9AssetInfoEEEvRT_PKc17TransferMetaFlags
6603:__ZN11AssetBundle8TransferI17RemapPPtrTransferEEvRT_
6604:__ZN11AssetBundle8TransferI18StreamedBinaryReadILb0EEEEvRT_
6605:__ZN18StreamedBinaryReadILb0EE19TransferSTLStyleMapINSt3__28multimapIN4core12basic_stringIcNS4_20StringStorageDefaultIcEEEEN11AssetBundle9AssetInfoENS2_4lessIS8_EENS2_9allocatorINS2_4pairIKS8_SA_EEEEEEEEvRT_17TransferMetaFlags
6606:__ZN18StreamedBinaryReadILb0EE21TransferSTLStyleArrayINSt3__26vectorI14ConstantStringNS2_9allocatorIS4_EEEEEEvRT_17TransferMetaFlags
6607:__ZN11AssetBundle8TransferI19StreamedBinaryWriteILb0EEEEvRT_
6608:__ZN19StreamedBinaryWriteILb0EE19TransferSTLStyleMapINSt3__28multimapIN4core12basic_stringIcNS4_20StringStorageDefaultIcEEEEN11AssetBundle9AssetInfoENS2_4lessIS8_EENS2_9allocatorINS2_4pairIKS8_SA_EEEEEEEEvRT_17TransferMetaFlags
6609:__ZN19StreamedBinaryWriteILb0EE21TransferSTLStyleArrayINSt3__26vectorI14ConstantStringNS2_9allocatorIS4_EEEEEEvRT_17TransferMetaFlags
6610:__ZN33AssetBundleLoadFromAsyncOperationD2Ev
6611:__ZN33AssetBundleLoadFromAsyncOperationD0Ev
6612:__ZN33AssetBundleLoadFromAsyncOperation6IsDoneEv
6613:__ZN33AssetBundleLoadFromAsyncOperation19IntegrateMainThreadEv
6614:__ZN33AssetBundleLoadFromAsyncOperation33TryToLoadAndInitializeAssetBundleEv
6615:__Z20GetAssetBundlePrefixRKN4core12basic_stringIcNS_20StringStorageDefaultIcEEEE
6616:__ZN33AssetBundleLoadFromAsyncOperation9SetResultENS_21AssetBundleLoadResultEPKc
6617:__ZN17PersistentManager14IsStreamLoadedERKN4core12basic_stringIcNS0_20StringStorageDefaultIcEEEE
6618:__Z24GetAssetBundleFileSystemv
6619:__ZN21AssetBundleFileSystem10AddArchiveEP20ArchiveStorageReader
6620:__ZN17PersistentManager14LoadFileStreamERKN4core12basic_stringIcNS0_20StringStorageDefaultIcEEEES6_24TransferInstructionFlagsii
6621:__ZN21AssetBundleFileSystem13RemoveArchiveEP20ArchiveStorageReader
6622:__Z28TestAssetBundleCompatibilityRKN4core12basic_stringIcNS_20StringStorageDefaultIcEEEES5_RS3_
6623:__ZN33AssetBundleLoadFromAsyncOperation21InitializeAssetBundleERKN4core12basic_stringIcNS0_20StringStorageDefaultIcEEEE
6624:__ZN17PersistentManager24GetTypeFromPathAndFileIDERKN4core12basic_stringIcNS0_20StringStorageDefaultIcEEEEx
6625:__ZN11AssetBundleC2E18MemLabelIdentifier18ObjectCreationMode
6626:__Z28TestAssetBundleCompatibilityR11AssetBundleRKN4core12basic_stringIcNS1_20StringStorageDefaultIcEEEERS5_
6627:__Z17UnloadAssetBundleR11AssetBundleb
6628:__ZN18AssetBundleManager19RegisterAssetBundleEP11AssetBundle
6629:__Z31GetAllScenePathsFromAssetBundleR11AssetBundleRNSt3__26vectorIN4core12basic_stringIcNS3_20StringStorageDefaultIcEEEENS1_9allocatorIS7_EEEE
6630:__ZN13sorted_vectorINSt3__24pairI14ConstantStringP11AssetBundleEEN10vector_mapIS2_S4_NS0_4lessIS2_EENS0_9allocatorIS5_EEE13value_compareESA_E14find_or_insertIS2_S4_EEvRPT0_RKT_
6631:__ZN15dense_hashtableINSt3__24pairIKN4core12basic_stringIcNS2_20StringStorageDefaultIcEEEEP11AssetBundleEES6_20StringHash32FunctionIS6_EN14dense_hash_mapIS6_S9_SC_NS0_8equal_toIS6_EENS0_9allocatorISA_EEE9SelectKeyESF_SH_E12resize_deltaEjj
6632:__ZN15dense_hashtableINSt3__24pairIKN4core12basic_stringIcNS2_20StringStorageDefaultIcEEEEP11AssetBundleEES6_20StringHash32FunctionIS6_EN14dense_hash_mapIS6_S9_SC_NS0_8equal_toIS6_EENS0_9allocatorISA_EEE9SelectKeyESF_SH_E4findERS7_
6633:__ZNSt3__26vectorINS_4pairI14ConstantStringP11AssetBundleEENS_9allocatorIS5_EEE6insertENS_11__wrap_iterIPKS5_EERSA_
6634:__ZN18AssetBundleManager17UnloadAssetBundleEP11AssetBundle
6635:__Z28GetAbsoluteAssetBundlePrefixRKN4core12basic_stringIcNS_20StringStorageDefaultIcEEEE
6636:__Z43DestroyWithoutLoadingButDontDestroyFromFilei
6637:__ZN17PersistentManager26GetLoadedInstanceIDsAtPathERKN4core12basic_stringIcNS0_20StringStorageDefaultIcEEEEPNSt3__23setIiNS7_4lessIiEENS7_9allocatorIiEEEE
6638:__Z22delete_object_internalP6Object
6639:__ZN17PersistentManager21RemoveObjectsFromPathERKN4core12basic_stringIcNS0_20StringStorageDefaultIcEEEE
6640:__Z17GetCachingManagerv
6641:__ZN14CachingManager20DidUnloadAssetBundleERKN4core12basic_stringIcNS0_20StringStorageDefaultIcEEEE
6642:__Z21DeleteFileOrDirectoryRKN4core12basic_stringIcNS_20StringStorageDefaultIcEEEE
6643:__ZN10FileSystem23UnmountMemoryFileSystemEv
6644:__ZNK10FileSystem6DeleteEPKcb
6645:__ZN5Cache20DidUnloadAssetBundleERKN4core12basic_stringIcNS0_20StringStorageDefaultIcEEEE
6646:__ZN15FileSystemEntry4LockE12FileLockModeP12FileAccessor
6647:__ZN15FileSystemEntry6DeleteEb
6648:__ZN14CachingManager7DisposeEv
6649:__Z39GetDefaultApplicationIdentifierForCachev
6650:__ZN14CachingManager15SetCurrentCacheERKN4core12basic_stringIcNS0_20StringStorageDefaultIcEEEExb
6651:__ZN14CachingManager15ClearTempFolderEv
6652:__Z21GetCachingManagerPathRKN4core12basic_stringIcNS_20StringStorageDefaultIcEEEEb
6653:__Z20GetPlatformCachePathv
6654:__ZN10systeminfo21GetPersistentDataPathEv
6655:__ZN5CacheD2Ev
6656:__ZN5Cache18WriteCacheInfoFileEb
6657:__ZN5Cache14ReadCacheIndexERKN4core12basic_stringIcNS0_20StringStorageDefaultIcEEEEb
6658:__ZN5Cache17ReadCacheInfoFileERKN4core12basic_stringIcNS0_20StringStorageDefaultIcEEEEPlS7_
6659:__ZN5Cache22ReadCacheIndexThreadedEPv
6660:__Z22GetFolderSizeRecursiveRKN4core12basic_stringIcNS_20StringStorageDefaultIcEEEE
6661:__ZN5Cache10AddToCacheERKN4core12basic_stringIcNS0_20StringStorageDefaultIcEEEEi
6662:__ZN14CachingManager12ReadInfoFileERKN4core12basic_stringIcNS0_20StringStorageDefaultIcEEEEPlPNSt3__26vectorIS4_NS8_9allocatorIS4_EEEE
6663:__Z11StringToIntPKc
6664:__Z18ReadStringFromFilePN4core17string_with_labelILi1EEERKNS_12basic_stringIcNS_20StringStorageDefaultIcEEEE
6665:__Z27FindSeparatedPathComponentsPKcjc
6666:__Z13GetFileLengthRKN4core12basic_stringIcNS_20StringStorageDefaultIcEEEE
6667:__Z12SetFileFlagsRKN4core12basic_stringIcNS_20StringStorageDefaultIcEEEEjj
6668:__ZN4File5WriteEPKvj
6669:__ZN4FileD2Ev
6670:__ZN15FileSystemEntry8SetFlagsEjj
6671:__ZNSt3__26__treeINS_12__value_typeIN4core12basic_stringIcNS2_20StringStorageDefaultIcEEEEP15FileSystemEntryEENS_19__map_value_compareIS6_S9_NS_4lessIS6_EELb1EEENS_9allocatorIS9_EEE7destroyEPNS_11__tree_nodeIS9_PvEE
6672:__ZNSt3__26__treeIN5Cache10CachedFileENS_4lessIS2_EENS_9allocatorIS2_EEE7destroyEPNS_11__tree_nodeIS2_PvEE
6673:__ZN8Remapper33RemoveCompleteSerializedFileIndexEiRNSt3__26vectorIiNS0_9allocatorIiEEEE
6674:__ZN8Remapper41GetAllLoadedObjectsForSerializedFileIndexEiPNSt3__23setIiNS0_4lessIiEENS0_9allocatorIiEEEE
6675:__ZN13sorted_vectorINSt3__24pairI14ConstantStringP11AssetBundleEEN10vector_mapIS2_S4_NS0_4lessIS2_EENS0_9allocatorIS5_EEE13value_compareESA_E9erase_oneIS2_EEjRKT_
6676:__ZN15dense_hashtableINSt3__24pairIKN4core12basic_stringIcNS2_20StringStorageDefaultIcEEEEP11AssetBundleEES6_20StringHash32FunctionIS6_EN14dense_hash_mapIS6_S9_SC_NS0_8equal_toIS6_EENS0_9allocatorISA_EEE9SelectKeyESF_SH_E11set_deletedER30dense_hashtable_const_iteratorISA_S6_SC_SJ_SF_SH_E
6677:__ZNK13BuildSettings15GetHashOfScriptERK7Hash128
6678:__ZNK13BuildSettings13GetHashOfTypeEPKN5Unity4TypeE
6679:__ZN17ArchiveFileSystem14UnmountArchiveEP20ArchiveStorageReader
6680:__ZNK17ArchiveFileSystem18HasMountedArchivesEv
6681:__ZN10FileSystem14UnmountHandlerEP17FileSystemHandler
6682:__ZN17ArchiveFileSystem13RemoveStorageEP20ArchiveStorageReader
6683:__ZN10FileSystem12MountHandlerEP17FileSystemHandler
6684:__ZN17ArchiveFileSystem12MountArchiveEP20ArchiveStorageReader
6685:__ZN21AssetBundleFileSystemC2EPKc
6686:__ZN14dense_hash_mapIN4core12basic_stringIcNS0_20StringStorageDefaultIcEEEES4_20StringHash32FunctionIS4_ENSt3__28equal_toIS4_EE13stl_allocatorINS7_4pairIKS4_S4_EEL18MemLabelIdentifier54ELi16EEE13set_empty_keyERSC_
6687:__ZN14dense_hash_mapIN4core12basic_stringIcNS0_20StringStorageDefaultIcEEEES4_20StringHash32FunctionIS4_ENSt3__28equal_toIS4_EE13stl_allocatorINS7_4pairIKS4_S4_EEL18MemLabelIdentifier54ELi16EEE15set_deleted_keyERSC_
6688:__ZN15dense_hashtableINSt3__24pairIKN4core12basic_stringIcNS2_20StringStorageDefaultIcEEEES6_EES6_20StringHash32FunctionIS6_EN14dense_hash_mapIS6_S6_SA_NS0_8equal_toIS6_EE13stl_allocatorIS8_L18MemLabelIdentifier54ELi16EEE9SelectKeyESD_SG_EC2ERKSJ_j
6689:__ZN15dense_hashtableINSt3__24pairIKN4core12basic_stringIcNS2_20StringStorageDefaultIcEEEES6_EES6_20StringHash32FunctionIS6_EN14dense_hash_mapIS6_S6_SA_NS0_8equal_toIS6_EE13stl_allocatorIS8_L18MemLabelIdentifier54ELi16EEE9SelectKeyESD_SG_E4swapERSJ_
6690:__ZN15dense_hashtableINSt3__24pairIKN4core12basic_stringIcNS2_20StringStorageDefaultIcEEEES6_EES6_20StringHash32FunctionIS6_EN14dense_hash_mapIS6_S6_SA_NS0_8equal_toIS6_EE13stl_allocatorIS8_L18MemLabelIdentifier54ELi16EEE9SelectKeyESD_SG_ED2Ev
6691:__ZN15dense_hashtableINSt3__24pairIKN4core12basic_stringIcNS2_20StringStorageDefaultIcEEEES6_EES6_20StringHash32FunctionIS6_EN14dense_hash_mapIS6_S6_SA_NS0_8equal_toIS6_EE13stl_allocatorIS8_L18MemLabelIdentifier54ELi16EEE9SelectKeyESD_SG_E9set_valueEPS8_RKS8_
6692:__ZN15dense_hashtableINSt3__24pairIKN4core12basic_stringIcNS2_20StringStorageDefaultIcEEEES6_EES6_20StringHash32FunctionIS6_EN14dense_hash_mapIS6_S6_SA_NS0_8equal_toIS6_EE13stl_allocatorIS8_L18MemLabelIdentifier54ELi16EEE9SelectKeyESD_SG_E9copy_fromERKSJ_j
6693:__ZN15dense_hashtableINSt3__24pairIKN4core12basic_stringIcNS2_20StringStorageDefaultIcEEEES6_EES6_20StringHash32FunctionIS6_EN14dense_hash_mapIS6_S6_SA_NS0_8equal_toIS6_EE13stl_allocatorIS8_L18MemLabelIdentifier54ELi16EEE9SelectKeyESD_SG_E5clearEv
6694:__ZN15dense_hashtableINSt3__24pairIKN4core12basic_stringIcNS2_20StringStorageDefaultIcEEEES6_EES6_20StringHash32FunctionIS6_EN14dense_hash_mapIS6_S6_SA_NS0_8equal_toIS6_EE13stl_allocatorIS8_L18MemLabelIdentifier54ELi16EEE9SelectKeyESD_SG_E12expand_arrayEjN21dense_hash_map_traits17integral_constantIbLb0EEE
6695:__ZN30dense_hashtable_const_iteratorINSt3__24pairIKN4core12basic_stringIcNS2_20StringStorageDefaultIcEEEES6_EES6_20StringHash32FunctionIS6_EN14dense_hash_mapIS6_S6_SA_NS0_8equal_toIS6_EE13stl_allocatorIS8_L18MemLabelIdentifier54ELi16EEE9SelectKeyESD_SG_EC2EPK15dense_hashtableIS8_S6_SA_SI_SD_SG_EPKS8_SP_b
6696:__ZN30dense_hashtable_const_iteratorINSt3__24pairIKN4core12basic_stringIcNS2_20StringStorageDefaultIcEEEES6_EES6_20StringHash32FunctionIS6_EN14dense_hash_mapIS6_S6_SA_NS0_8equal_toIS6_EE13stl_allocatorIS8_L18MemLabelIdentifier54ELi16EEE9SelectKeyESD_SG_EppEv
6697:__ZN21AssetBundleFileSystemD2Ev
6698:__ZN21AssetBundleFileSystemD0Ev
6699:__ZNK21AssetBundleFileSystem9CanHandleEPKc
6700:__ZN21AssetBundleFileSystem10ToAbsoluteEPKc
6701:__ZN21AssetBundleFileSystem19InitializeFileEntryER13FileEntryData
6702:__ZN21AssetBundleFileSystem4NameEv
6703:__ZNK17FileSystemHandler8IsHiddenERK13FileEntryData
6704:__ZNK17FileSystemHandler12LastModifiedERK13FileEntryData
6705:__ZN15dense_hashtableINSt3__24pairIKN4core12basic_stringIcNS2_20StringStorageDefaultIcEEEES6_EES6_20StringHash32FunctionIS6_EN14dense_hash_mapIS6_S6_SA_NS0_8equal_toIS6_EE13stl_allocatorIS8_L18MemLabelIdentifier54ELi16EEE9SelectKeyESD_SG_E4findERS7_
6706:__ZNK10FileSystem17GetHandlerForPathEPKc
6707:__ZNK15dense_hashtableINSt3__24pairIKN4core12basic_stringIcNS2_20StringStorageDefaultIcEEEES6_EES6_20StringHash32FunctionIS6_EN14dense_hash_mapIS6_S6_SA_NS0_8equal_toIS6_EE13stl_allocatorIS8_L18MemLabelIdentifier54ELi16EEE9SelectKeyESD_SG_E23find_position_with_hashERS7_j
6708:__ZNK33AssetBundleLoadFromAsyncOperation12GetResultStrENS_21AssetBundleLoadResultE
6709:__ZN39AssetBundleLoadFromStreamAsyncOperation11GetProgressEv
6710:__ZN39AssetBundleLoadFromStreamAsyncOperation11SetPriorityEi
6711:__ZN39AssetBundleLoadFromStreamAsyncOperation35OnArchiveStorageBlocksInfoProcessedEP23ArchiveStorageConverterP20ArchiveStorageReader
6712:__ZN39AssetBundleLoadFromStreamAsyncOperation38OnArchiveStorageDirectoryInfoProcessedEP23ArchiveStorageConverterP20ArchiveStorageReader
6713:__ZThn188_N39AssetBundleLoadFromStreamAsyncOperation35OnArchiveStorageBlocksInfoProcessedEP23ArchiveStorageConverterP20ArchiveStorageReader
6714:__ZThn188_N39AssetBundleLoadFromStreamAsyncOperation38OnArchiveStorageDirectoryInfoProcessedEP23ArchiveStorageConverterP20ArchiveStorageReader
6715:__ZNK23ArchiveStorageConverter16GetDirectoryInfoEv
6716:__ZN39AssetBundleLoadFromStreamAsyncOperation22TryInitializeDiskCacheEv
6717:__ZN39AssetBundleLoadFromStreamAsyncOperation24TryInitializeMemoryCacheEv
6718:__ZN4File4LockENS_8LockModeEb
6719:__ZN23ArchiveStorageConverter23InitializeTargetArchiveERKN4core12basic_stringIcNS0_20StringStorageDefaultIcEEEE15CompressionTypej
6720:__ZN21ArchiveStorageCreator10InitializeERKN4core12basic_stringIcNS0_20StringStorageDefaultIcEEEEb
6721:__ZN21ArchiveStorageCreator10BeginBlockEb15CompressionType16CompressionLevelj
6722:__ZN21ArchiveStorageCreatorD2Ev
6723:__ZNSt3__26__treeINS_12__value_typeIN4core12basic_stringIcNS2_20StringStorageDefaultIcEEEEjEENS_19__map_value_compareIS6_S7_NS_4lessIS6_EELb1EEE13stl_allocatorIS7_L18MemLabelIdentifier54ELi16EEE7destroyEPNS_11__tree_nodeIS7_PvEE
6724:__ZN21ArchiveStorageCreator17StoreCurrentBlockEb
6725:__Z16CreateCompressor15CompressionType18MemLabelIdentifier
6726:__ZNK13Lz4Compressor29CalculateCompressedBufferSizeEj
6727:__ZNK13Lz4Compressor14CompressMemoryEPKvjPvPj16CompressionLevel
6728:_UNITY_LZ4_compress_limitedOutput
6729:_LZ4_compress_generic
6730:_UNITY_LZ4_compressBound
6731:__ZN21ArchiveStorageCreator11StoreStreamEb
6732:__ZN21ArchiveStorageCreator10StoreChunkEv
6733:__ZNSt3__26vectorIN20ArchiveStorageHeader12StorageBlockE13stl_allocatorIS2_L18MemLabelIdentifier54ELi16EEE21__push_back_slow_pathIKS2_EEvRT_
6734:__ZN12FileAccessor9SetLengthEy
6735:__ZN10FileSystem21MountMemoryFileSystemEv
6736:__ZNK39AssetBundleLoadFromStreamAsyncOperation25CreateTempOutputDirectoryERKN4core12basic_stringIcNS0_20StringStorageDefaultIcEEEE
6737:__Z25CreateUniqueTempDirectoryRKN4core12basic_stringIcNS_20StringStorageDefaultIcEEEEj
6738:__ZN9UnityGUID4InitEv
6739:__Z12GUIDToStringRK9UnityGUID
6740:__Z12GUIDToStringRK9UnityGUIDPc
6741:__ZN5Cache9GetFolderERKN4core12basic_stringIcNS0_20StringStorageDefaultIcEEEEb
6742:__ZNK23ArchiveStorageConverter26GetUncompressedArchiveSizeEv
6743:__ZN5Cache32GetCachingDiskSpaceFreeAndUsableEv
6744:__ZN5Cache15FreeUsableSpaceEj
6745:__ZN14CachingManager13GetTempFolderEv
6746:__ZNK10FileSystem21GetAvailableDiskSpaceEPKcRy
6747:__ZN39AssetBundleLoadFromStreamAsyncOperationD2Ev
6748:__ZN23ArchiveStorageConverterD2Ev
6749:__ZN39AssetBundleLoadFromStreamAsyncOperationD0Ev
6750:__ZN18StreamedBinaryReadILb0EE10ReadDirectEPvi
6751:__ZN16LevelGameManagerD2Ev
6752:__ZN11GameManager17MainThreadCleanupEv
6753:__ZNK16LevelGameManager26GetTypeInfoVirtualInternalEv
6754:__ZN16LevelGameManager23VirtualRedirectTransferER24GenerateTypeTreeTransfer
6755:__ZN16LevelGameManager23VirtualRedirectTransferER14SafeBinaryRead
6756:__ZNK11GameManager26GetTypeInfoVirtualInternalEv
6757:__ZNK17GlobalGameManager26GetTypeInfoVirtualInternalEv
6758:__ZN17GlobalGameManager23VirtualRedirectTransferER24GenerateTypeTreeTransfer
6759:__ZN17GlobalGameManager23VirtualRedirectTransferER14SafeBinaryRead
6760:__ZN10TagManagerD2Ev
6761:__ZN10TagManagerD0Ev
6762:__ZN10TagManager5ResetEv
6763:__ZNK10TagManager26GetTypeInfoVirtualInternalEv
6764:__ZN10TagManager23VirtualRedirectTransferER19StreamedBinaryWriteILb0EE
6765:__ZN10TagManager23VirtualRedirectTransferER18StreamedBinaryReadILb0EE
6766:__ZN10TagManager23VirtualRedirectTransferER17RemapPPtrTransfer
6767:__ZN10TagManager23VirtualRedirectTransferER24GenerateTypeTreeTransfer
6768:__ZN10TagManager23VirtualRedirectTransferER14SafeBinaryRead
6769:__ZN10TagManager8TransferI14SafeBinaryReadEEvRT_
6770:__ZN10TagManager32RegisterDefaultTagsAndLayerMasksEv
6771:__ZN10TagManager11RegisterTagEjRKN4core12basic_stringIcNS0_20StringStorageDefaultIcEEEE
6772:__ZN10TagManager13RegisterLayerEjRKN4core12basic_stringIcNS0_20StringStorageDefaultIcEEEE
6773:__ZN14SafeBinaryRead21TransferSTLStyleArrayINSt3__26vectorI17SortingLayerEntryNS1_9allocatorIS3_EEEEEEvRT_17TransferMetaFlags
6774:__ZN10TagManager23AddDefaultLayerIfNeededEv
6775:__ZNSt3__26vectorI17SortingLayerEntryNS_9allocatorIS1_EEE6insertENS_11__wrap_iterIPKS1_EERS6_
6776:__ZNSt3__26vectorI17SortingLayerEntryNS_9allocatorIS1_EEE12__move_rangeEPS1_S5_S5_
6777:__ZNSt3__26vectorI17SortingLayerEntryNS_9allocatorIS1_EEE26__swap_out_circular_bufferERNS_14__split_bufferIS1_RS3_EEPS1_
6778:__Z14resize_trimmedINSt3__26vectorI17SortingLayerEntryNS0_9allocatorIS2_EEEEEvRT_j
6779:__ZN15SerializeTraitsI17SortingLayerEntryE8TransferI14SafeBinaryReadEEvRS0_RT_
6780:__ZNSt3__26vectorI17SortingLayerEntryNS_9allocatorIS1_EEE7reserveEj
6781:__ZNSt3__26vectorI17SortingLayerEntryNS_9allocatorIS1_EEE6assignINS_11__wrap_iterIPS1_EEEENS_9enable_ifIXaasr21__is_forward_iteratorIT_EE5valuesr16is_constructibleIS1_NS_15iterator_traitsISA_E9referenceEEE5valueEvE4typeESA_SA_
6782:__ZNSt3__26vectorI17SortingLayerEntryNS_9allocatorIS1_EEE8__appendEj
6783:__ZNSt3__26__treeINS_12__value_typeIN4core12basic_stringIcNS2_20StringStorageDefaultIcEEEEjEENS_19__map_value_compareIS6_S7_NS_4lessIS6_EELb1EEE13stl_allocatorIS7_L18MemLabelIdentifier6ELi16EEE7destroyEPNS_11__tree_nodeIS7_PvEE
6784:__ZNSt3__26__treeINS_12__value_typeIjN4core12basic_stringIcNS2_20StringStorageDefaultIcEEEEEENS_19__map_value_compareIjS7_NS_4lessIjEELb1EEE13stl_allocatorIS7_L18MemLabelIdentifier6ELi16EEE7destroyEPNS_11__tree_nodeIS7_PvEE
6785:__ZNSt3__26vectorI17SortingLayerEntryNS_9allocatorIS1_EEE21__push_back_slow_pathIKS1_EEvRT_
6786:__ZN10TagManager8TransferI24GenerateTypeTreeTransferEEvRT_
6787:__ZN24GenerateTypeTreeTransfer8TransferINSt3__26vectorIN4core12basic_stringIcNS3_20StringStorageDefaultIcEEEENS1_9allocatorIS7_EEEEEEvRT_PKc17TransferMetaFlags
6788:__ZN24GenerateTypeTreeTransfer32TransferSTLStyleArrayWithElementI17SortingLayerEntryEEvRT_17TransferMetaFlags
6789:__ZN10TagManager8TransferI17RemapPPtrTransferEEvRT_
6790:__ZN10TagManager8TransferI18StreamedBinaryReadILb0EEEEvRT_
6791:__ZN18StreamedBinaryReadILb0EE21TransferSTLStyleArrayINSt3__26vectorI17SortingLayerEntryNS2_9allocatorIS4_EEEEEEvRT_17TransferMetaFlags
6792:__ZN10TagManager8TransferI19StreamedBinaryWriteILb0EEEEvRT_
6793:__ZN19StreamedBinaryWriteILb0EE21TransferSTLStyleArrayINSt3__26vectorI17SortingLayerEntryNS2_9allocatorIS4_EEEEEEvRT_17TransferMetaFlags
6794:__ZN10TagManager15ThreadedCleanupEv
6795:__ZN12BaseRenderer15AddAsRenderNodeER15RenderNodeQueueRK20DeprecatedSourceData
6796:__ZN12BaseRenderer23RendererCullingCallbackEv
6797:__ZN12BaseRenderer21RendererBecameVisibleEv
6798:__ZN12BaseRenderer23RendererBecameInvisibleEv
6799:__ZN12BaseRenderer23UpdatePreviousFrameDataEv
6800:__ZN12BaseRenderer20FlattenToRenderQueueER15RenderNodeQueueRK20DeprecatedSourceData
6801:__ZN12BaseRenderer16FlattenProbeDataERS_RK13TransformInfoRK17LightProbeContextR10RenderNode
6802:__ZN12BaseRenderer25FlattenSharedMaterialDataILb0EEEbRS_R22PerThreadPageAllocatorR10RenderNode
6803:__ZN8Material10GetDefaultEv
6804:__Z29FindReflectionProbeFromAnchorP9TransformRK4AABBRS1_RsS5_
6805:__Z30GetLightProbeProxyVolumeHandleRK28LightProbeProxyVolumeContextRK12BaseRenderer
6806:__Z38CalculateExplicitLightProbeCoordinatesiR29LightProbeSamplingCoordinates
6807:__ZN6CameraD2Ev
6808:__ZN6CameraD0Ev
6809:__ZN6Camera17MainThreadCleanupEv
6810:__ZN6Camera13AwakeFromLoadE17AwakeFromLoadMode
6811:__ZN6Camera16CheckConsistencyEv
6812:__ZN6Camera5ResetEv
6813:__ZNK6Camera26GetTypeInfoVirtualInternalEv
6814:__ZN6Camera23VirtualRedirectTransferER19StreamedBinaryWriteILb0EE
6815:__ZN6Camera23VirtualRedirectTransferER18StreamedBinaryReadILb0EE
6816:__ZN6Camera23VirtualRedirectTransferER17RemapPPtrTransfer
6817:__ZN6Camera23VirtualRedirectTransferER24GenerateTypeTreeTransfer
6818:__ZN6Camera23VirtualRedirectTransferER14SafeBinaryRead
6819:__ZN6Camera12AddToManagerEv
6820:__ZN6Camera17RemoveFromManagerEv
6821:__ZN6Camera8TransferI14SafeBinaryReadEEvRT_
6822:__ZN14SafeBinaryRead8TransferI8BitFieldEEvRT_PKc17TransferMetaFlags
6823:__ZN6Camera8TransferI24GenerateTypeTreeTransferEEvRT_
6824:__ZN5RectTIfE8TransferI24GenerateTypeTreeTransferEEvRT_
6825:__ZN6Camera8TransferI18StreamedBinaryReadILb0EEEEvRT_
6826:__ZN6Camera8TransferI19StreamedBinaryWriteILb0EEEEvRT_
6827:__ZN13MonoBehaviour33AddImageEffectCallbacksToManagersEv
6828:__Z30scripting_method_has_attribute18ScriptingMethodPtr17ScriptingClassPtr
6829:__ZN13MonoBehaviour17RenderImageFilterEPN5Unity9ComponentEP13RenderTextureS4_
6830:__ZN6Camera14AddImageFilterERK11ImageFilter
6831:__ZN12ImageFilters14AddImageFilterERK11ImageFilter
6832:__ZN12ImageFilters17RemoveImageFilterERK11ImageFilter
6833:__ZNSt3__26vectorI11ImageFilterNS_9allocatorIS1_EEE6insertENS_11__wrap_iterIPKS1_EERS6_
6834:__ZN19RenderEventsContext23RemoveAllCommandBuffersEv
6835:__ZN15LODGroupManager20DestroyCameraLODDataEPK6Camera
6836:__ZN19RenderEventsContext20RemoveCommandBuffersEi
6837:__ZN6Camera15ThreadedCleanupEv
6838:__ZN19RenderEventsContextD2Ev
6839:__Z16DeleteRenderLoopP10RenderLoop
6840:__Z21DestroyShadowMapCacheP14ShadowMapCache
6841:__ZN12FlareManager8AddFlareEv
6842:__ZNSt3__26vectorIN12FlareManager10FlareEntryENS_9allocatorIS2_EEE21__push_back_slow_pathIKS2_EEvRT_
6843:__ZNK10FlareLayer26GetTypeInfoVirtualInternalEv
6844:__ZN10FlareLayer12AddToManagerEv
6845:__ZN10FlareLayer17RemoveFromManagerEv
6846:__ZN12FlareManager12RemoveCameraER6Camera
6847:__ZN12FlareManager9AddCameraER6Camera
6848:__ZNSt3__26vectorIfNS_9allocatorIfEEE8__appendEjRKf
6849:__ZN16GraphicsSettingsD2Ev
6850:__ZN16GraphicsSettingsD0Ev
6851:__ZN16GraphicsSettings10SmartResetEv
6852:__ZNK16GraphicsSettings26GetTypeInfoVirtualInternalEv
6853:__ZN16GraphicsSettings23VirtualRedirectTransferER19StreamedBinaryWriteILb0EE
6854:__ZN16GraphicsSettings23VirtualRedirectTransferER18StreamedBinaryReadILb0EE
6855:__ZN16GraphicsSettings23VirtualRedirectTransferER17RemapPPtrTransfer
6856:__ZN16GraphicsSettings23VirtualRedirectTransferER24GenerateTypeTreeTransfer
6857:__ZN16GraphicsSettings23VirtualRedirectTransferER14SafeBinaryRead
6858:__ZN16GraphicsSettings8TransferI14SafeBinaryReadEEvRT_
6859:__ZN14SafeBinaryRead8TransferI21BuiltinShaderSettingsEEvRT_PKc17TransferMetaFlags
6860:__ZN14SafeBinaryRead21TransferSTLStyleArrayINSt3__26vectorI4PPtrI6ShaderE13stl_allocatorIS5_L18MemLabelIdentifier52ELi16EEEEEEvRT_17TransferMetaFlags
6861:__ZN14SafeBinaryRead21TransferSTLStyleArrayINSt3__26vectorI4PPtrI23ShaderVariantCollectionE13stl_allocatorIS5_L18MemLabelIdentifier52ELi16EEEEEEvRT_17TransferMetaFlags
6862:__ZN20TierGraphicsSettings8TransferI14SafeBinaryReadEEvRT_
6863:__ZN5Light7PrecalcEv
6864:__ZNK5Light16UnshareLightDataEv
6865:__ZN15SharedLightData7PrecalcEv
6866:__ZN5Light9SetupHaloEv
6867:__ZN5Light10SetupFlareEv
6868:__Z15GetFlareManagerv
6869:__ZN12FlareManager11DeleteFlareEi
6870:__ZN12FlareManager11UpdateFlareEiP5FlareRK8Vector3fbfRK10ColorRGBAffjj
6871:__Z14GetHaloManagerv
6872:__ZN11HaloManager7AddHaloEv
6873:__ZN11HaloManager10UpdateHaloEi8Vector3f11ColorRGBA32fjP6Object
6874:__ZN11HaloManager10DeleteHaloEiP6Object
6875:__ZNSt3__26vectorIN11HaloManager4HaloENS_9allocatorIS2_EEE21__push_back_slow_pathIKS2_EEvRT_
6876:__Z31CorrelatedColorTemperatureToRGBf
6877:__Z24CalculateVertexLightDataRK15SharedLightDataR14GfxVertexLight
6878:__ZN19RenderEventsContextC2ERKS_
6879:__ZN22RenderingCommandBufferC2ERKS_
6880:__ZN14GrowableBufferC2ERKS_
6881:__ZN22RenderingCommandBufferD2Ev
6882:__ZN22RenderingCommandBufferD0Ev
6883:__ZN14GrowableBufferD2Ev
6884:__ZN15SharedLightDataD2Ev
6885:__ZN15SharedLightDataD0Ev
6886:__Z14resize_trimmedINSt3__26vectorI4PPtrI23ShaderVariantCollectionE13stl_allocatorIS4_L18MemLabelIdentifier52ELi16EEEEEvRT_j
6887:__ZNSt3__26vectorI4PPtrI23ShaderVariantCollectionE13stl_allocatorIS3_L18MemLabelIdentifier52ELi16EEE6assignINS_11__wrap_iterIPS3_EEEENS_9enable_ifIXaasr21__is_forward_iteratorIT_EE5valuesr16is_constructibleIS3_NS_15iterator_traitsISD_E9referenceEEE5valueEvE4typeESD_SD_
6888:__ZNSt3__26vectorI4PPtrI23ShaderVariantCollectionE13stl_allocatorIS3_L18MemLabelIdentifier52ELi16EEE8__appendEj
6889:__ZN16GraphicsSettings8TransferI24GenerateTypeTreeTransferEEvRT_
6890:__ZN24GenerateTypeTreeTransfer8TransferI21BuiltinShaderSettingsEEvRT_PKc17TransferMetaFlags
6891:__ZN20TierGraphicsSettings8TransferI24GenerateTypeTreeTransferEEvRT_
6892:__ZN16GraphicsSettings8TransferI17RemapPPtrTransferEEvRT_
6893:__ZN16GraphicsSettings8TransferI18StreamedBinaryReadILb0EEEEvRT_
6894:__ZN20TierGraphicsSettings8TransferI18StreamedBinaryReadILb0EEEEvRT_
6895:__ZN16GraphicsSettings8TransferI19StreamedBinaryWriteILb0EEEEvRT_
6896:__ZN20TierGraphicsSettings8TransferI19StreamedBinaryWriteILb0EEEEvRT_
6897:__ZN11ColorRGBA328TransferI14SafeBinaryReadEEvRT_
6898:__ZN20IntermediateRendererD2Ev
6899:__ZN20IntermediateRendererD0Ev
6900:__ZNK20IntermediateRenderer8GetLayerEv
6901:__ZNK20IntermediateRenderer11GetMaterialEi
6902:__ZNK20IntermediateRenderer12GetLayerMaskEv
6903:__Z20RenderMultipleMeshesRK15RenderNodeQueueRK18RenderMultipleData17ShaderChannelMask
6904:__ZN8DrawUtil24DrawMeshRawFromNodeQueueERK15RenderNodeQueuej17ShaderChannelMaski
6905:__ZNK17InstancedPropInfo15RenderInstancesERK15RenderNodeQueuePK17BatchInstanceDataj17ShaderChannelMask
6906:__Z17RenderStaticBatchR9GfxDevice10Matrix4x4fR13dynamic_arrayI7SubMeshLj4EERK11MeshBuffersPK17BatchInstanceDataj17ShaderChannelMask
6907:__ZNK14VertexDataInfo17GetChannelsLayoutEv
6908:__Z28BuildSingleStreamChannelInfo17ShaderChannelMaskRK20VertexChannelsLayoutS_S2_P11ChannelInfo
6909:__Z30ProcessDynamicBatchGeometryJobP25DynamicVBOGeometryJobDataj
6910:__ZNK17InstancedPropInfo20AllocateInstanceDataEj
6911:__ZNK17InstancedPropInfo22FillInstancePropertiesER19ShaderPropertySheetjPK17BatchInstanceDatajRK15RenderNodeQueue
6912:__ZN31CanvasBatchIntermediateRendererD2Ev
6913:__ZN31CanvasBatchIntermediateRendererD0Ev
6914:__ZN31CanvasBatchIntermediateRenderer15AddAsRenderNodeER15RenderNodeQueueRK20DeprecatedSourceData
6915:__ZN31CanvasBatchIntermediateRenderer14OnAssetDeletedEv
6916:__ZThn268_N31CanvasBatchIntermediateRenderer14OnAssetDeletedEv
6917:__ZN31CanvasBatchIntermediateRenderer25CleanupSubBatchPropertiesEv
6918:__Z38CanvasBatchIntermediateRenderer_RenderRK15RenderNodeQueuej17ShaderChannelMaski
6919:__Z39CanvasBatchIntermediateRenderer_CleanupR15RenderNodeQueuej
6920:__ZN5Light17MainThreadCleanupEv
6921:__ZN5Light13AwakeFromLoadE17AwakeFromLoadMode
6922:__ZN5Light16CheckConsistencyEv
6923:__ZN5Light5ResetEv
6924:__ZNK5Light26GetTypeInfoVirtualInternalEv
6925:__ZN5Light23VirtualRedirectTransferER19StreamedBinaryWriteILb0EE
6926:__ZN5Light23VirtualRedirectTransferER18StreamedBinaryReadILb0EE
6927:__ZN5Light23VirtualRedirectTransferER17RemapPPtrTransfer
6928:__ZN5Light23VirtualRedirectTransferER24GenerateTypeTreeTransfer
6929:__ZN5Light23VirtualRedirectTransferER14SafeBinaryRead
6930:__ZN5Light12AddToManagerEv
6931:__ZN5Light17RemoveFromManagerEv
6932:__ZN15SharedLightData15UpdateTransformERK9Transform
6933:__ZN5Light8TransferI14SafeBinaryReadEEvRT_
6934:__ZN14ShadowSettings8TransferI14SafeBinaryReadEEvRT_
6935:__ZN17LightBakingOutput8TransferI14SafeBinaryReadEEvRT_
6936:__ZN5Light8TransferI24GenerateTypeTreeTransferEEvRT_
6937:__ZN14ShadowSettings8TransferI24GenerateTypeTreeTransferEEvRT_
6938:__ZN5Light8TransferI18StreamedBinaryReadILb0EEEEvRT_
6939:__ZN14ShadowSettings8TransferI18StreamedBinaryReadILb0EEEEvRT_
6940:__ZN5Light8TransferI19StreamedBinaryWriteILb0EEEEvRT_
6941:__ZN14ShadowSettings8TransferI19StreamedBinaryWriteILb0EEEEvRT_
6942:__ZN15SharedLightData5ResetEv
6943:__ZN15SharedLightData16CheckConsistencyEv
6944:__ZN15SharedLightData22UpdateCookieTextureRefEv
6945:__ZN15SharedLightData17MainThreadCleanupEv
6946:__ZN20SphericalHarmonicsL28TransferI14SafeBinaryReadEEvRT_
6947:__ZN20SphericalHarmonicsL28TransferI24GenerateTypeTreeTransferEEvRT_
6948:__ZN20SphericalHarmonicsL28TransferI18StreamedBinaryReadILb0EEEEvRT_
6949:__ZN20SphericalHarmonicsL28TransferI19StreamedBinaryWriteILb0EEEEvRT_
6950:__ZN20OcclusionCullingDataD2Ev
6951:__ZN20OcclusionCullingDataD0Ev
6952:__ZN20OcclusionCullingData17MainThreadCleanupEv
6953:__ZNK20OcclusionCullingData26GetTypeInfoVirtualInternalEv
6954:__ZN20OcclusionCullingData23VirtualRedirectTransferER19StreamedBinaryWriteILb0EE
6955:__ZN20OcclusionCullingData23VirtualRedirectTransferER18StreamedBinaryReadILb0EE
6956:__ZN20OcclusionCullingData23VirtualRedirectTransferER17RemapPPtrTransfer
6957:__ZN20OcclusionCullingData23VirtualRedirectTransferER24GenerateTypeTreeTransfer
6958:__ZN20OcclusionCullingData23VirtualRedirectTransferER14SafeBinaryRead
6959:__ZN20OcclusionCullingData8TransferI14SafeBinaryReadEEvRT_
6960:__ZN14SafeBinaryRead21TransferSTLStyleArrayI13dynamic_arrayI14OcclusionSceneLj4EEEEvRT_17TransferMetaFlags
6961:__ZN15SerializeTraitsI13dynamic_arrayI14OcclusionSceneLj4EEE19ResizeSTLStyleArrayERS2_i18MemLabelIdentifier
6962:__ZN14OcclusionScene8TransferI14SafeBinaryReadEEvRT_
6963:__ZN20OcclusionCullingData8TransferI24GenerateTypeTreeTransferEEvRT_
6964:__ZN14OcclusionScene8TransferI24GenerateTypeTreeTransferEEvRT_
6965:__ZN20OcclusionCullingData8TransferI18StreamedBinaryReadILb0EEEEvRT_
6966:__ZN14OcclusionScene8TransferI18StreamedBinaryReadILb0EEEEvRT_
6967:__ZN20OcclusionCullingData8TransferI19StreamedBinaryWriteILb0EEEEvRT_
6968:__ZN14OcclusionScene8TransferI19StreamedBinaryWriteILb0EEEEvRT_
6969:__ZN24OcclusionCullingSettingsD2Ev
6970:__ZN24OcclusionCullingSettingsD0Ev
6971:__ZN24OcclusionCullingSettings17MainThreadCleanupEv
6972:__ZN24OcclusionCullingSettings13AwakeFromLoadE17AwakeFromLoadMode
6973:__ZNK24OcclusionCullingSettings26GetTypeInfoVirtualInternalEv
6974:__ZN24OcclusionCullingSettings23VirtualRedirectTransferER19StreamedBinaryWriteILb0EE
6975:__ZN24OcclusionCullingSettings23VirtualRedirectTransferER18StreamedBinaryReadILb0EE
6976:__ZN24OcclusionCullingSettings23VirtualRedirectTransferER17RemapPPtrTransfer
6977:__ZN24OcclusionCullingSettings23VirtualRedirectTransferER24GenerateTypeTreeTransfer
6978:__ZN24OcclusionCullingSettings23VirtualRedirectTransferER14SafeBinaryRead
6979:__ZNK24OcclusionCullingSettings19ShouldWriteForBuildEv
6980:__ZN24OcclusionCullingSettings8TransferI14SafeBinaryReadEEvRT_
6981:__ZN14SafeBinaryRead21TransferSTLStyleArrayI13dynamic_arrayI4PPtrI8RendererELj4EEEEvRT_17TransferMetaFlags
6982:__ZN14SafeBinaryRead21TransferSTLStyleArrayI13dynamic_arrayI4PPtrI15OcclusionPortalELj4EEEEvRT_17TransferMetaFlags
6983:__ZN24OcclusionCullingSettings18TransferDeprecatedI14SafeBinaryReadEEvRT_
6984:__ZN24OcclusionCullingSettings8TransferI24GenerateTypeTreeTransferEEvRT_
6985:__ZN17RemapPPtrTransfer8TransferI24OcclusionCullingSettingsEEvRT_PKc17TransferMetaFlags
6986:__ZN24OcclusionCullingSettings8TransferI19StreamedBinaryWriteILb0EEEEvRT_
6987:__ZN13RendererScene27CleanupPVSAndRequestRebuildEv
6988:__ZNSt3__212__deque_baseI18ReflectionProbeJobNS_9allocatorIS1_EEED2Ev
6989:__ZN14RenderSettingsD2Ev
6990:__ZN14RenderSettingsD0Ev
6991:__ZN14RenderSettings13AwakeFromLoadE17AwakeFromLoadMode
6992:__ZN14RenderSettings16CheckConsistencyEv
6993:__ZN14RenderSettings5ResetEv
6994:__ZNK14RenderSettings26GetTypeInfoVirtualInternalEv
6995:__ZN14RenderSettings23VirtualRedirectTransferER19StreamedBinaryWriteILb0EE
6996:__ZN14RenderSettings23VirtualRedirectTransferER18StreamedBinaryReadILb0EE
6997:__ZN14RenderSettings23VirtualRedirectTransferER17RemapPPtrTransfer
6998:__ZN14RenderSettings23VirtualRedirectTransferER24GenerateTypeTreeTransfer
6999:__ZN14RenderSettings23VirtualRedirectTransferER14SafeBinaryRead
7000:__ZN14RenderSettings8TransferI14SafeBinaryReadEEvRT_
7001:__ZN14RenderSettings18TransferDeprecatedI14SafeBinaryReadEEvRT_
7002:__ZN14RenderSettings8TransferI24GenerateTypeTreeTransferEEvRT_
7003:__ZN14RenderSettings8TransferI17RemapPPtrTransferEEvRT_
7004:__ZN14RenderSettings8TransferI18StreamedBinaryReadILb0EEEEvRT_
7005:__ZN14RenderSettings8TransferI19StreamedBinaryWriteILb0EEEEvRT_
7006:__ZNK22BuiltinResourceManager21GetResourceInstanceIDEPKN5Unity4TypeERKN4core12basic_stringIcNS4_20StringStorageDefaultIcEEEE
7007:__ZN14RenderSettings17UpdateGlobalStateEv
7008:__ZN14RenderSettings23UpdateFinalAmbientProbeEv
7009:__ZN14RenderSettings16ApplyHaloTextureEv
7010:__ZN14RenderSettings27UpdateIndirectSpecularColorEv
7011:__ZN10builtintex14GetHaloTextureEv
7012:__ZN20SphericalHarmonicsL215AddAmbientLightERK10ColorRGBAf
7013:__ZNK6Skybox26GetTypeInfoVirtualInternalEv
7014:__ZN6Skybox23VirtualRedirectTransferER19StreamedBinaryWriteILb0EE
7015:__ZN6Skybox23VirtualRedirectTransferER18StreamedBinaryReadILb0EE
7016:__ZN6Skybox23VirtualRedirectTransferER17RemapPPtrTransfer
7017:__ZN6Skybox23VirtualRedirectTransferER24GenerateTypeTreeTransfer
7018:__ZN6Skybox23VirtualRedirectTransferER14SafeBinaryRead
7019:__ZN19ShaderPropertySheetC2E18MemLabelIdentifierRKS_
7020:__ZN8PlayableD2Ev
7021:__ZN8PlayableD0Ev
7022:__ZN8Playable14SetInputWeightEif
7023:__ZNK8Playable14GetInputWeightEi
7024:__ZN8Playable12PrepareFrameERK19DirectorVisitorInfo
7025:__ZN8Playable7SetTimeEd
7026:__ZN8Playable7SetDataEyPv
7027:__ZN8Playable7ProcessEiRK9FrameDataPv
7028:__ZN8Playable7GetTypeEv
7029:__ZN8Playable11DerivesFromE17ScriptingClassPtr
7030:__ZN8Playable19DeallocateResourcesEv
7031:__ZN8Playable13OnAdvanceTimeEd
7032:__ZN8Playable18SetInputConnectionEPS_i
7033:__ZN8Playable19SetOutputConnectionEPS_i
7034:__ZN8Playable20ClearInputConnectionEi
7035:__ZN8Playable21ClearOutputConnectionEi
7036:__ZN15DirectorManager14ConnectionPool12SwitchBucketEP14ConnectionList
7037:__ZN8Playable7DestroyEv
7038:__ZN15DirectorManager14ConnectionPool4FreeEP14ConnectionList
7039:__ZN15DirectorManager8FreeNodeEP5HNode
7040:__ZN14PlayableOutput7DestroyEv
7041:__ZN14PlayableOutput17SetSourcePlayableEP8Playable
7042:__ZN15DirectorManager11AcquireNodeEv
7043:__ZN15DirectorManager14FreeOutputNodeEP19HPlayableOutputNode
7044:__ZN20BaseBehaviourManagerD2Ev
7045:__ZN20BaseBehaviourManagerD0Ev
7046:__ZNSt3__26__treeINS_12__value_typeIiNS_4pairIP4ListI8ListNodeI9BehaviourEES8_EEEENS_19__map_value_compareIiSA_NS_4lessIiEELb1EEENS_9allocatorISA_EEE7destroyEPNS_11__tree_nodeISA_PvEE
7047:__ZN18DelayedCallManagerD2Ev
7048:__ZN18DelayedCallManagerD0Ev
7049:__ZN18DelayedCallManager17MainThreadCleanupEv
7050:__ZNK18DelayedCallManager26GetTypeInfoVirtualInternalEv
7051:__ZN18DelayedCallManager6UpdateEi
7052:__ZN18DelayedCallManager15RemoveNoCleanupERKNS_8CallbackENSt3__221__tree_const_iteratorIS0_PNS3_11__tree_nodeIS0_PvEEiEE
7053:__ZN18DelayedCallManager8ClearAllEv
7054:__ZNSt3__26__treeIN18DelayedCallManager8CallbackENS_4lessIS2_EENS_9allocatorIS2_EEE7destroyEPNS_11__tree_nodeIS2_PvEE
7055:__ZN12CubemapArrayD2Ev
7056:__ZN12CubemapArrayD0Ev
7057:__ZN12CubemapArray13AwakeFromLoadE17AwakeFromLoadMode
7058:__ZN12CubemapArray5ResetEv
7059:__ZNK12CubemapArray26GetTypeInfoVirtualInternalEv
7060:__ZNK12CubemapArray20GetRuntimeMemorySizeEv
7061:__ZN12CubemapArray23VirtualRedirectTransferER19StreamedBinaryWriteILb0EE
7062:__ZN12CubemapArray23VirtualRedirectTransferER18StreamedBinaryReadILb0EE
7063:__ZN12CubemapArray23VirtualRedirectTransferER17RemapPPtrTransfer
7064:__ZN12CubemapArray23VirtualRedirectTransferER24GenerateTypeTreeTransfer
7065:__ZN12CubemapArray23VirtualRedirectTransferER14SafeBinaryRead
7066:__ZNK12CubemapArray26CanReuploadDataToGfxDeviceEv
7067:__ZNK12CubemapArray20GetTextureLayerCountEv
7068:__ZNK12CubemapArray12GetDimensionEv
7069:__ZN12CubemapArray34UpdateFileTextureUploadInstructionEP28FileTextureUploadInstructionj
7070:__ZN12CubemapArray17UploadToGfxDeviceEv
7071:__ZNK12CubemapArray16ExtractImageImplEP14ImageReferenceNS0_8BlitModeEbi
7072:__ZN7Texture25ReloadFromStorageIfNeededEPvb
7073:__ZN12CubemapArray13UploadTextureEv
7074:__ZNK7Texture41QueryPersistentManagerForDataAvailabilityEv
7075:__ZN12CubemapArray8TransferI14SafeBinaryReadEEvRT_
7076:__ZN12CubemapArray8TransferI24GenerateTypeTreeTransferEEvRT_
7077:__ZN12CubemapArray8TransferI18StreamedBinaryReadILb0EEEEvRT_
7078:__ZN12CubemapArray8TransferI19StreamedBinaryWriteILb0EEEEvRT_
7079:__ZN7CubemapD2Ev
7080:__ZN7CubemapD0Ev
7081:__ZN9Texture2D17MainThreadCleanupEv
7082:__ZN9Texture2D13AwakeFromLoadE17AwakeFromLoadMode
7083:__ZN9Texture2D21AwakeFromLoadThreadedEv
7084:__ZNK7Cubemap26GetTypeInfoVirtualInternalEv
7085:__ZNK9Texture2D20GetRuntimeMemorySizeEv
7086:__ZN7Cubemap23VirtualRedirectTransferER19StreamedBinaryWriteILb0EE
7087:__ZN7Cubemap23VirtualRedirectTransferER18StreamedBinaryReadILb0EE
7088:__ZN7Cubemap23VirtualRedirectTransferER17RemapPPtrTransfer
7089:__ZN7Cubemap23VirtualRedirectTransferER24GenerateTypeTreeTransfer
